 isolated_vm

 Timestamp is 5b8e22af (Tue Sep  4 14:14:07 2018)

 Preferred load address is 0000000180000000

 Start         Length     Name                   Class
 0001:00000000 00000190H .text$di                CODE
 0001:00000190 000884a0H .text$mn                CODE
 0001:00088630 00000020H .text$mn$00             CODE
 0001:00088650 0000c4f0H .text$x                 CODE
 0001:00094b40 0000032aH .text$yd                CODE
 0002:00000000 000003c0H .idata$5                DATA
 0002:000003c0 00000010H .00cfg                  DATA
 0002:000003d0 00000008H .CRT$XCA                DATA
 0002:000003d8 00000028H .CRT$XCC                DATA
 0002:00000400 00000010H .CRT$XCL                DATA
 0002:00000410 00000040H .CRT$XCU                DATA
 0002:00000450 00000008H .CRT$XCZ                DATA
 0002:00000458 00000008H .CRT$XIA                DATA
 0002:00000460 00000030H .CRT$XIC                DATA
 0002:00000490 00000008H .CRT$XIZ                DATA
 0002:00000498 00000008H .CRT$XLA                DATA
 0002:000004a0 00000008H .CRT$XLZ                DATA
 0002:000004a8 00000008H .CRT$XPA                DATA
 0002:000004b0 00000008H .CRT$XPB                DATA
 0002:000004b8 00000010H .CRT$XPX                DATA
 0002:000004c8 00000008H .CRT$XPXA               DATA
 0002:000004d0 00000008H .CRT$XPZ                DATA
 0002:000004d8 00000008H .CRT$XTA                DATA
 0002:000004e0 00000010H .CRT$XTZ                DATA
 0002:000004f0 0001b0a8H .rdata                  DATA
 0002:0001b598 00000028H .rdata$T                DATA
 0002:0001b5c0 00007f5cH .rdata$r                DATA
 0002:0002351c 000004bcH .rdata$zzzdbg           DATA
 0002:000239d8 00000008H .rtc$IAA                DATA
 0002:000239e0 00000008H .rtc$IZZ                DATA
 0002:000239e8 00000008H .rtc$TAA                DATA
 0002:000239f0 00000010H .rtc$TZZ                DATA
 0002:00023a00 00015ce8H .xdata                  DATA
 0002:000396e8 00000ec4H .xdata$x                DATA
 0002:0003a5ac 00000020H .didat$2                DATA
 0002:0003a5cc 00000024H .didat$3                DATA
 0002:0003a5f0 00000970H .didat$4                DATA
 0002:0003af60 00004f70H .didat$6                DATA
 0002:0003fed0 00000970H .didat$7                DATA
 0002:00040840 0000005cH .edata                  DATA
 0002:0004089c 00000014H .idata$2                DATA
 0002:000408b0 00000018H .idata$3                DATA
 0002:000408c8 000003c0H .idata$4                DATA
 0002:00040c88 00000910H .idata$6                DATA
 0003:00000000 00000bc0H .data                   DATA
 0003:00000bc0 00004600H .data$r                 DATA
 0003:000051c0 00000970H .didat$5                DATA
 0003:00005b30 000022d4H .bss                    DATA
 0004:00000000 00009c3cH .pdata                  DATA
 0005:00000000 000000bcH .gfids$x                DATA
 0005:000000bc 00000a00H .gfids$y                DATA
 0006:00000000 00000008H .tls                    DATA
 0006:00000008 00000018H .stls                   DATA
 0006:00000020 00000004H .tls$                   DATA
 0006:00000024 00000001H .tls$ZZZ                DATA
 0007:00000000 00000060H .rsrc$01                DATA
 0007:00000060 00000180H .rsrc$02                DATA

  Address         Publics by Value              Rva+Base               Lib:Object

 0000:00000000       __guard_longjmp_count      0000000000000000     <absolute>
 0000:00000000       __guard_longjmp_table      0000000000000000     <absolute>
 0000:00000000       __guard_iat_count          0000000000000000     <absolute>
 0000:00000000       __guard_iat_table          0000000000000000     <absolute>
 0000:00000000       ___safe_se_handler_count   0000000000000000     <absolute>
 0000:00000000       __dynamic_value_reloc_table 0000000000000000     <absolute>
 0000:00000000       __guard_fids_count         0000000000000000     <absolute>
 0000:00000000       ___safe_se_handler_table   0000000000000000     <absolute>
 0000:00000000       __guard_fids_table         0000000000000000     <absolute>
 0000:00000100       __guard_flags              0000000000000100     <absolute>
 0000:00000000       __ImageBase                0000000180000000     <linker-defined>
 0001:00000190       ?_Decref@_Ref_count_base@std@@QEAAXXZ 0000000180001190 f i allocator.obj
 0001:000001d0       ?Terminate@IsolateEnvironment@ivm@@QEAAXXZ 00000001800011d0 f i allocator.obj
 0001:00000270       ?Check@LimitedAllocator@ivm@@QEAA_N_K@Z 0000000180001270 f   allocator.obj
 0001:00000370       ??_ELimitedAllocator@ivm@@UEAAPEAXI@Z 0000000180001370 f i * CIL library *:* CIL module *
 0001:00000370       ??_GLimitedAllocator@ivm@@UEAAPEAXI@Z 0000000180001370 f i allocator.obj
 0001:000003b0       ?Allocate@LimitedAllocator@ivm@@UEAAPEAX_K@Z 00000001800013b0 f   allocator.obj
 0001:00000420       ?AllocateUninitialized@LimitedAllocator@ivm@@UEAAPEAX_K@Z 0000000180001420 f   allocator.obj
 0001:000004a0       ?Free@LimitedAllocator@ivm@@UEAAXPEAX_K@Z 00000001800014a0 f   allocator.obj
 0001:000004c0       ??1?$shared_ptr@V?$RemoteHandle@VValue@v8@@@ivm@@@std@@QEAA@XZ 00000001800014c0 f i context_handle.obj
 0001:000004c0       ??1?$shared_ptr@VSessionImpl@ivm@@@std@@QEAA@XZ 00000001800014c0 f i session_handle.obj
 0001:000004c0       ??1?$shared_ptr@VExternalCopyArrayBuffer@ivm@@@std@@QEAA@XZ 00000001800014c0 f i isolate_handle.obj
 0001:000004c0       ??1?$shared_ptr@V?$vector@DV?$allocator@D@std@@@std@@@std@@QEAA@XZ 00000001800014c0 f i external_copy.obj
 0001:000004c0       ??1?$shared_ptr@V?$RemoteHandle@VContext@v8@@@ivm@@@std@@QEAA@XZ 00000001800014c0 f i context_handle.obj
 0001:000004c0       ??1?$shared_ptr@UModuleInfo@ivm@@@std@@QEAA@XZ 00000001800014c0 f i isolate_handle.obj
 0001:000004c0       ??1?$shared_ptr@Vmutex@std@@@std@@QEAA@XZ 00000001800014c0 f i environment.obj
 0001:000004c0       ??1?$shared_ptr@UBookkeepingStatics@IsolateEnvironment@ivm@@@std@@QEAA@XZ 00000001800014c0 f i environment.obj
 0001:000004c0       ??1?$shared_ptr@X@std@@QEAA@XZ 00000001800014c0 f i environment.obj
 0001:000004c0       ??1?$shared_ptr@VNativeModule@NativeModuleHandle@ivm@@@std@@QEAA@XZ 00000001800014c0 f i native_module_handle.obj
 0001:000004c0       ??1?$shared_ptr@VExternalCopy@ivm@@@std@@QEAA@XZ 00000001800014c0 f i external_copy_handle.obj
 0001:000004c0       ??1?$shared_ptr@V?$RemoteHandle@VFunction@v8@@@ivm@@@std@@QEAA@XZ 00000001800014c0 f i session_handle.obj
 0001:000004c0       ??1?$shared_ptr@VIsolateHolder@ivm@@@std@@QEAA@XZ 00000001800014c0 f i environment.obj
 0001:000004c0       ??1?$shared_ptr@VV8InspectorSession@v8_inspector@@@std@@QEAA@XZ 00000001800014c0 f i inspector.obj
 0001:000004c0       ??1?$shared_ptr@_N@std@@QEAA@XZ 00000001800014c0 f i reference_handle.obj
 0001:000004c0       ??1?$shared_ptr@V?$RemoteHandle@VUnboundScript@v8@@@ivm@@@std@@QEAA@XZ 00000001800014c0 f i isolate_handle.obj
 0001:000004c0       ??1?$shared_ptr@Utimer_data_t@timer_t@ivm@@@std@@QEAA@XZ 00000001800014c0 f i isolate.obj
 0001:000004c0       ??1?$shared_ptr@VIsolateEnvironment@ivm@@@std@@QEAA@XZ 00000001800014c0 f i allocator.obj
 0001:00000510       ?UnwrapClassHandle@ClassHandle@ivm@@SAPEAV12@V?$Local@VObject@v8@@@v8@@@Z 0000000180001510 f i class_handle.obj
 0001:000005a0       __local_stdio_printf_options 00000001800015a0 f i environment.obj
 0001:000005b0       fprintf                    00000001800015b0 f i environment.obj
 0001:00000600       ??0exception@stdext@@QEAA@AEBV01@@Z 0000000180001600 f i environment.obj
 0001:00000620       ??1system_error@std@@UEAA@XZ 0000000180001620 f i environment.obj
 0001:00000620       ??1logic_error@std@@UEAA@XZ 0000000180001620 f i environment.obj
 0001:00000620       ??1param_incorrect@ivm@@UEAA@XZ 0000000180001620 f i context_handle.obj
 0001:00000620       ??1js_runtime_error@ivm@@UEAA@XZ 0000000180001620 f i environment.obj
 0001:00000620       ??1runtime_error@std@@UEAA@XZ 0000000180001620 f i environment.obj
 0001:00000620       ??1failure@ios_base@std@@UEAA@XZ 0000000180001620 f i stack_trace.obj
 0001:00000620       ??1param_required@ivm@@UEAA@XZ 0000000180001620 f i context_handle.obj
 0001:00000620       ??1exception@stdext@@UEAA@XZ 0000000180001620 f i environment.obj
 0001:00000630       ?what@exception@stdext@@UEBAPEBDXZ 0000000180001630 f i environment.obj
 0001:00000650       ?_Raise@exception@stdext@@QEBAXXZ 0000000180001650 f i environment.obj
 0001:00000690       ?_Destroy@?$_Ref_count_obj@_N@std@@EEAAXXZ 0000000180001690 f i reference_handle.obj
 0001:00000690       ?VirtualProcessorActiveNotification@SchedulerBase@details@Concurrency@@MEAAX_NJ@Z 0000000180001690 f i libconcrt:SchedulerBase.obj
 0001:00000690       ?destroy@stl_critical_section_win7@details@Concurrency@@UEAAXXZ 0000000180001690 f i libcpmt:mutex.obj
 0001:00000690       ?CreateNodeTopology@ResourceManager@details@Concurrency@@UEAAXIPEAIPEAPEAI0@Z 0000000180001690 f i libconcrt:ResourceManager.obj
 0001:00000690       ?destroy@stl_condition_variable_vista@details@Concurrency@@UEAAXXZ 0000000180001690 f i libcpmt:cond.obj
 0001:00000690       ??1thread@std@@QEAA@XZ     0000000180001690 f i environment.obj
 0001:00000690       ?flushProtocolNotifications@SessionImpl@ivm@@EEAAXXZ 0000000180001690 f i session_handle.obj
 0001:00000690       ??3@YAXPEAX0@Z             0000000180001690 f i environment.obj
 0001:00000690       ??1PlatformDelegate@ivm@@UEAA@XZ 0000000180001690 f i isolate.obj
 0001:00000690       ?RMAwaken@InternalContextBase@details@Concurrency@@EEAAXXZ 0000000180001690 f i libconcrt:InternalContextBase.obj
 0001:00000690       ?_Doraise@exception@stdext@@MEBAXXZ 0000000180001690 f i environment.obj
 0001:00000690       __except_validate_context_record 0000000180001690 f i libvcruntime:jbcxrval.obj
 0001:00000690       ?NotifyAffinitizedWork@FairScheduleGroupSegment@details@Concurrency@@UEAAXXZ 0000000180001690 f i libconcrt:SchedulerBase.obj
 0001:00000690       ?Destroy@WaitAnyBlock@details@Concurrency@@UEAAXXZ 0000000180001690 f i libconcrt:event.obj
 0001:00000690       ?OnCriticalMemoryPressure@Platform@v8@@UEAAXXZ 0000000180001690 f i isolate.obj
 0001:00000690       ?NotifyResourcesExternallyBusy@ThreadScheduler@details@Concurrency@@UEAAXPEAPEAUIVirtualProcessorRoot@3@I@Z 0000000180001690 f i libconcrt:ThreadScheduler.obj
 0001:00000690       ?_Orphan_all@?$_Vector_alloc@U?$_Vec_base_types@Vthread@std@@V?$allocator@Vthread@std@@@2@@std@@@std@@QEAAXXZ 0000000180001690 f i environment.obj
 0001:00000690       ?imbue@?$basic_streambuf@DU?$char_traits@D@std@@@std@@MEAAXAEBVlocale@2@@Z 0000000180001690 f i stack_trace.obj
 0001:00000690       ?NotifyResourcesExternallyIdle@ThreadScheduler@details@Concurrency@@UEAAXPEAPEAUIVirtualProcessorRoot@3@I@Z 0000000180001690 f i libconcrt:ThreadScheduler.obj
 0001:00000690       ??1critical_section@Concurrency@@QEAA@XZ 0000000180001690 f i libconcrt:rtlocks.obj
 0001:00000690       ?_Unlock@?$basic_streambuf@DU?$char_traits@D@std@@@std@@UEAAXXZ 0000000180001690 f i stack_trace.obj
 0001:00000690       ?destroy@stl_condition_variable_win7@details@Concurrency@@UEAAXXZ 0000000180001690 f i libcpmt:cond.obj
 0001:00000690       _guard_check_icall_nop     0000000180001690 f i LIBCMT:guard_support.obj
 0001:00000690       ?_Lock@?$basic_streambuf@DU?$char_traits@D@std@@@std@@UEAAXXZ 0000000180001690 f i stack_trace.obj
 0001:000006a0       ??_Gexception@stdext@@UEAAPEAXI@Z 00000001800016a0 f i environment.obj
 0001:000006a0       ??_Eexception@stdext@@UEAAPEAXI@Z 00000001800016a0 f i * CIL library *:* CIL module *
 0001:000006a0       ??_Gruntime_error@std@@UEAAPEAXI@Z 00000001800016a0 f i environment.obj
 0001:000006a0       ??_Elogic_error@std@@UEAAPEAXI@Z 00000001800016a0 f i * CIL library *:* CIL module *
 0001:000006a0       ??_Gparam_required@ivm@@UEAAPEAXI@Z 00000001800016a0 f i context_handle.obj
 0001:000006a0       ??_Eparam_required@ivm@@UEAAPEAXI@Z 00000001800016a0 f i * CIL library *:* CIL module *
 0001:000006a0       ??_Glogic_error@std@@UEAAPEAXI@Z 00000001800016a0 f i environment.obj
 0001:000006a0       ??_Ejs_runtime_error@ivm@@UEAAPEAXI@Z 00000001800016a0 f i * CIL library *:* CIL module *
 0001:000006a0       ??_Gjs_runtime_error@ivm@@UEAAPEAXI@Z 00000001800016a0 f i environment.obj
 0001:000006a0       ??_Eruntime_error@std@@UEAAPEAXI@Z 00000001800016a0 f i * CIL library *:* CIL module *
 0001:000006d0       ?_Deallocate@std@@YAXPEAX_K1@Z 00000001800016d0 f i environment.obj
 0001:00000740       ??1_Ref_count_base@std@@UEAA@XZ 0000000180001740 f i environment.obj
 0001:00000750       ?ExitCriticalRegion@ContextBase@details@Concurrency@@QEAAHXZ 0000000180001750 f i libconcrt:ContextBase.obj
 0001:00000750       ?GetStackTracePrinter@Platform@v8@@UEAAP6AXXZXZ 0000000180001750 f i isolate.obj
 0001:00000750       ?GetContextKind@ExternalContextBase@details@Concurrency@@EEBA?AW4ContextKind@ContextBase@23@XZ 0000000180001750 f i libconcrt:ExternalContextBase.obj
 0001:00000750       ?GetDefaultDestination@VirtualProcessor@details@Concurrency@@UEAAPEAUIExecutionContext@3@XZ 0000000180001750 f i libconcrt:VirtualProcessor.obj
 0001:00000750       ?EnterCriticalRegion@ContextBase@details@Concurrency@@QEAAHXZ 0000000180001750 f i libconcrt:ContextBase.obj
 0001:00000750       ?PreRunnableSearch@VirtualProcessor@details@Concurrency@@UEAAPEAVInternalContextBase@23@XZ 0000000180001750 f i libconcrt:VirtualProcessor.obj
 0001:00000750       ?NumberOfAvailableBackgroundThreads@Platform@v8@@UEAA_KXZ 0000000180001750 f i isolate.obj
 0001:00000750       ?sync@?$basic_streambuf@DU?$char_traits@D@std@@@std@@MEAAHXZ 0000000180001750 f i stack_trace.obj
 0001:00000750       ?showmanyc@?$basic_streambuf@DU?$char_traits@D@std@@@std@@MEAA_JXZ 0000000180001750 f i stack_trace.obj
 0001:00000750       ?EnterHyperCriticalRegion@ContextBase@details@Concurrency@@QEAAHXZ 0000000180001750 f i libconcrt:ContextBase.obj
 0001:00000750       ?ExitHyperCriticalRegion@ContextBase@details@Concurrency@@QEAAHXZ 0000000180001750 f i libconcrt:ContextBase.obj
 0001:00000750       ?_Get_deleter@_Ref_count_base@std@@UEBAPEAXAEBVtype_info@@@Z 0000000180001750 f i environment.obj
 0001:00000760       ??_E_Ref_count_base@std@@UEAAPEAXI@Z 0000000180001760 f i * CIL library *:* CIL module *
 0001:00000760       ??_G_Ref_count_base@std@@UEAAPEAXI@Z 0000000180001760 f i environment.obj
 0001:00000790       ?_Doraise@logic_error@std@@MEBAXXZ 0000000180001790 f i environment.obj
 0001:00000790       ?_Doraise@runtime_error@std@@MEBAXXZ 0000000180001790 f i environment.obj
 0001:00000790       ?_Doraise@failure@ios_base@std@@MEBAXXZ 0000000180001790 f i stack_trace.obj
 0001:00000790       ?_Doraise@system_error@std@@MEBAXXZ 0000000180001790 f i environment.obj
 0001:000007b0       ??1Scope@Context@v8@@QEAA@XZ 00000001800017b0 f i environment.obj
 0001:000007d0       ??1_Auto_cnd@std@@QEAA@XZ  00000001800017d0 f i environment.obj
 0001:000007e0       ??1_Auto_mtx@std@@QEAA@XZ  00000001800017e0 f i environment.obj
 0001:000007f0       ?_Call_func@_Pad@std@@CAIPEAX@Z 00000001800017f0 f i environment.obj
 0001:00000810       ??_E_Iostream_error_category@std@@UEAAPEAXI@Z 0000000180001810 f i * CIL library *:* CIL module *
 0001:00000810       ??_E_Generic_error_category@std@@UEAAPEAXI@Z 0000000180001810 f i * CIL library *:* CIL module *
 0001:00000810       ??_G_Iostream_error_category@std@@UEAAPEAXI@Z 0000000180001810 f i stack_trace.obj
 0001:00000810       ??_G_Generic_error_category@std@@UEAAPEAXI@Z 0000000180001810 f i environment.obj
 0001:00000810       ??_Eerror_category@std@@UEAAPEAXI@Z 0000000180001810 f i * CIL library *:* CIL module *
 0001:00000810       ??_Gerror_category@std@@UEAAPEAXI@Z 0000000180001810 f i environment.obj
 0001:00000840       ?message@error_code@std@@QEBA?AV?$basic_string@DU?$char_traits@D@std@@V?$allocator@D@2@@2@XZ 0000000180001840 f i environment.obj
 0001:00000870       ?default_error_condition@error_category@std@@UEBA?AVerror_condition@2@H@Z 0000000180001870 f i environment.obj
 0001:00000880       ?equivalent@error_category@std@@UEBA_NHAEBVerror_condition@2@@Z 0000000180001880 f i environment.obj
 0001:000008e0       ?equivalent@error_category@std@@UEBA_NAEBVerror_code@2@H@Z 00000001800018e0 f i environment.obj
 0001:00000900       ?_Makestr@_System_error@std@@CA?AV?$basic_string@DU?$char_traits@D@std@@V?$allocator@D@2@@2@Verror_code@2@V32@@Z 0000000180001900 f i environment.obj
 0001:00000a10       ??0_System_error@std@@IEAA@Verror_code@1@AEBV?$basic_string@DU?$char_traits@D@std@@V?$allocator@D@2@@1@@Z 0000000180001a10 f i environment.obj
 0001:00000b20       ??_G_System_error@std@@UEAAPEAXI@Z 0000000180001b20 f i environment.obj
 0001:00000b20       ??_Esystem_error@std@@UEAAPEAXI@Z 0000000180001b20 f i * CIL library *:* CIL module *
 0001:00000b20       ??_E_System_error@std@@UEAAPEAXI@Z 0000000180001b20 f i * CIL library *:* CIL module *
 0001:00000b20       ??_Gsystem_error@std@@UEAAPEAXI@Z 0000000180001b20 f i environment.obj
 0001:00000b20       ??_Efailure@ios_base@std@@UEAAPEAXI@Z 0000000180001b20 f i * CIL library *:* CIL module *
 0001:00000b20       ??_Gfailure@ios_base@std@@UEAAPEAXI@Z 0000000180001b20 f i stack_trace.obj
 0001:00000b50       ??0system_error@std@@QEAA@Verror_code@1@@Z 0000000180001b50 f i environment.obj
 0001:00000c40       ?name@_Generic_error_category@std@@UEBAPEBDXZ 0000000180001c40 f i environment.obj
 0001:00000c50       ?message@_Generic_error_category@std@@UEBA?AV?$basic_string@DU?$char_traits@D@std@@V?$allocator@D@2@@2@H@Z 0000000180001c50 f i environment.obj
 0001:00000cb0       ?generic_category@std@@YAAEBVerror_category@1@XZ 0000000180001cb0 f i environment.obj
 0001:00000cc0       ??1condition_variable@std@@QEAA@XZ 0000000180001cc0 f i environment.obj
 0001:00000cd0       ??1mutex@std@@QEAA@XZ      0000000180001cd0 f i environment.obj
 0001:00000ce0       ??0condition_variable_any@std@@QEAA@XZ 0000000180001ce0 f i environment.obj
 0001:00000d70       ??1condition_variable_any@std@@QEAA@XZ 0000000180001d70 f i environment.obj
 0001:00000dd0       ?new_thread@thread_pool_t@@AEAA_KXZ 0000000180001dd0 f i environment.obj
 0001:000013c0       ?exec@thread_pool_t@@QEAAXAEAVaffinity_t@1@P6AX_NPEAX@Z2@Z 00000001800023c0 f i environment.obj
 0001:000017a0       ?resize@thread_pool_t@@QEAAX_K@Z 00000001800027a0 f i environment.obj
 0001:00001990       ??_Ejs_fatal_error@ivm@@UEAAPEAXI@Z 0000000180002990 f i * CIL library *:* CIL module *
 0001:00001990       ??_Ejs_error_ctor_base@ivm@@UEAAPEAXI@Z 0000000180002990 f i * CIL library *:* CIL module *
 0001:00001990       ??_Gjs_error_ctor_base@ivm@@UEAAPEAXI@Z 0000000180002990 f i environment.obj
 0001:00001990       ??_Gjs_error_message@ivm@@UEAAPEAXI@Z 0000000180002990 f i environment.obj
 0001:00001990       ??_Ejs_error_message@ivm@@UEAAPEAXI@Z 0000000180002990 f i * CIL library *:* CIL module *
 0001:00001990       ??_Gjs_fatal_error@ivm@@UEAAPEAXI@Z 0000000180002990 f i environment.obj
 0001:000019e0       ??1js_fatal_error@ivm@@UEAA@XZ 00000001800029e0 f i environment.obj
 0001:000019e0       ??1js_error_ctor_base@ivm@@UEAA@XZ 00000001800029e0 f i environment.obj
 0001:00001a10       ??0js_error_ctor_base@ivm@@QEAA@V?$basic_string@DU?$char_traits@D@std@@V?$allocator@D@2@@std@@@Z 0000000180002a10 f i environment.obj
 0001:00001ab0       ??0Lock@Executor@IsolateEnvironment@ivm@@QEAA@AEAV23@@Z 0000000180002ab0 f   environment.obj
 0001:00001b80       ??1Lock@Executor@IsolateEnvironment@ivm@@QEAA@XZ 0000000180002b80 f   environment.obj
 0001:00001c00       ??1Unlock@Executor@IsolateEnvironment@ivm@@QEAA@XZ 0000000180002c00 f   environment.obj
 0001:00001c30       ??0CpuTimer@Executor@IsolateEnvironment@ivm@@QEAA@AEAV123@@Z 0000000180002c30 f   environment.obj
 0001:00001d10       ??1CpuTimer@Executor@IsolateEnvironment@ivm@@QEAA@XZ 0000000180002d10 f   environment.obj
 0001:00001e00       ?Pause@CpuTimer@Executor@IsolateEnvironment@ivm@@QEAAXXZ 0000000180002e00 f   environment.obj
 0001:00001eb0       ?Resume@CpuTimer@Executor@IsolateEnvironment@ivm@@QEAAXXZ 0000000180002eb0 f   environment.obj
 0001:00001f60       ??1PauseScope@CpuTimer@Executor@IsolateEnvironment@ivm@@QEAA@XZ 0000000180002f60 f   environment.obj
 0001:00001f80       ??0WallTimer@Executor@IsolateEnvironment@ivm@@QEAA@AEAV123@@Z 0000000180002f80 f   environment.obj
 0001:00002050       ??1WallTimer@Executor@IsolateEnvironment@ivm@@QEAA@XZ 0000000180003050 f   environment.obj
 0001:00002110       ??1Scope@Executor@IsolateEnvironment@ivm@@QEAA@XZ 0000000180003110 f   environment.obj
 0001:00002140       ??0Scheduler@IsolateEnvironment@ivm@@QEAA@XZ 0000000180003140 f   environment.obj
 0001:000022d0       ??1?$queue@V?$unique_ptr@VRunnable@ivm@@U?$default_delete@VRunnable@ivm@@@std@@@std@@V?$deque@V?$unique_ptr@VRunnable@ivm@@U?$default_delete@VRunnable@ivm@@@std@@@std@@V?$allocator@V?$unique_ptr@VRunnable@ivm@@U?$default_delete@VRunnable@ivm@@@std@@@std@@@2@@2@@std@@QEAA@XZ 00000001800032d0 f i environment.obj
 0001:00002300       ??1Scheduler@IsolateEnvironment@ivm@@QEAA@XZ 0000000180003300 f   environment.obj
 0001:00002460       ?AsyncCallbackCommon@Scheduler@IsolateEnvironment@ivm@@CAX_NPEAX@Z 0000000180003460 f   environment.obj
 0001:00002500       ?AsyncCallbackNonDefaultIsolate@Scheduler@IsolateEnvironment@ivm@@CAX_NPEAX@Z 0000000180003500 f   environment.obj
 0001:00002530       ?AsyncCallbackDefaultIsolate@Scheduler@IsolateEnvironment@ivm@@CAXPEAUuv_async_s@@@Z 0000000180003530 f   environment.obj
 0001:00002640       ?AsyncCallbackInterrupt@Scheduler@IsolateEnvironment@ivm@@CAXPEAVIsolate@v8@@PEAX@Z 0000000180003640 f   environment.obj
 0001:00002650       ?SyncCallbackInterrupt@Scheduler@IsolateEnvironment@ivm@@CAXPEAVIsolate@v8@@PEAX@Z 0000000180003650 f   environment.obj
 0001:00002660       ??1Lock@Scheduler@IsolateEnvironment@ivm@@QEAA@XZ 0000000180003660 f   environment.obj
 0001:00002690       ?TakeTasks@Lock@Scheduler@IsolateEnvironment@ivm@@QEAA?AV?$queue@V?$unique_ptr@VRunnable@ivm@@U?$default_delete@VRunnable@ivm@@@std@@@std@@V?$deque@V?$unique_ptr@VRunnable@ivm@@U?$default_delete@VRunnable@ivm@@@std@@@std@@V?$allocator@V?$unique_ptr@VRunnable@ivm@@U?$default_delete@VRunnable@ivm@@@std@@@std@@@2@@2@@std@@XZ 0000000180003690 f   environment.obj
 0001:00002760       ?TakeHandleTasks@Lock@Scheduler@IsolateEnvironment@ivm@@QEAA?AV?$queue@V?$unique_ptr@VRunnable@ivm@@U?$default_delete@VRunnable@ivm@@@std@@@std@@V?$deque@V?$unique_ptr@VRunnable@ivm@@U?$default_delete@VRunnable@ivm@@@std@@@std@@V?$allocator@V?$unique_ptr@VRunnable@ivm@@U?$default_delete@VRunnable@ivm@@@std@@@std@@@2@@2@@std@@XZ 0000000180003760 f   environment.obj
 0001:00002830       ?TakeInterrupts@Lock@Scheduler@IsolateEnvironment@ivm@@QEAA?AV?$queue@V?$unique_ptr@VRunnable@ivm@@U?$default_delete@VRunnable@ivm@@@std@@@std@@V?$deque@V?$unique_ptr@VRunnable@ivm@@U?$default_delete@VRunnable@ivm@@@std@@@std@@V?$allocator@V?$unique_ptr@VRunnable@ivm@@U?$default_delete@VRunnable@ivm@@@std@@@std@@@2@@2@@std@@XZ 0000000180003830 f   environment.obj
 0001:00002900       ?TakeSyncInterrupts@Lock@Scheduler@IsolateEnvironment@ivm@@QEAA?AV?$queue@V?$unique_ptr@VRunnable@ivm@@U?$default_delete@VRunnable@ivm@@@std@@@std@@V?$deque@V?$unique_ptr@VRunnable@ivm@@U?$default_delete@VRunnable@ivm@@@std@@@std@@V?$allocator@V?$unique_ptr@VRunnable@ivm@@U?$default_delete@VRunnable@ivm@@@std@@@std@@@2@@2@@std@@XZ 0000000180003900 f   environment.obj
 0001:000029d0       ?WakeIsolate@Lock@Scheduler@IsolateEnvironment@ivm@@QEAA_NV?$shared_ptr@VIsolateEnvironment@ivm@@@std@@@Z 00000001800039d0 f   environment.obj
 0001:00002b50       ??1AsyncWait@Scheduler@IsolateEnvironment@ivm@@QEAA@XZ 0000000180003b50 f   environment.obj
 0001:00002bb0       ?Ready@AsyncWait@Scheduler@IsolateEnvironment@ivm@@QEAAXXZ 0000000180003bb0 f   environment.obj
 0001:00002c50       ?Wait@AsyncWait@Scheduler@IsolateEnvironment@ivm@@QEAAXXZ 0000000180003c50 f   environment.obj
 0001:00002cd0       ?Wake@AsyncWait@Scheduler@IsolateEnvironment@ivm@@QEAAXXZ 0000000180003cd0 f   environment.obj
 0001:00002d70       ??0HeapCheck@IsolateEnvironment@ivm@@QEAA@AEAV12@_K@Z 0000000180003d70 f   environment.obj
 0001:00002f10       ??1?$js_error_ctor@$1?TypeError@Exception@v8@@SA?AV?$Local@VValue@v8@@@3@V?$Local@VString@v8@@@3@@Z@ivm@@UEAA@XZ 0000000180003f10 f i stack_trace.obj
 0001:00002f10       ??1?$js_error_ctor@$1?Error@Exception@v8@@SA?AV?$Local@VValue@v8@@@3@V?$Local@VString@v8@@@3@@Z@ivm@@UEAA@XZ 0000000180003f10 f i environment.obj
 0001:00002f10       ??1?$js_error_ctor@$1?RangeError@Exception@v8@@SA?AV?$Local@VValue@v8@@@3@V?$Local@VString@v8@@@3@@Z@ivm@@UEAA@XZ 0000000180003f10 f i external_copy.obj
 0001:00002f40       ??0?$js_error_ctor@$1?Error@Exception@v8@@SA?AV?$Local@VValue@v8@@@3@V?$Local@VString@v8@@@3@@Z@ivm@@QEAA@AEBV01@@Z 0000000180003f40 f i environment.obj
 0001:00002fb0       ??0js_error_ctor_base@ivm@@QEAA@AEBV01@@Z 0000000180003fb0 f i environment.obj
 0001:00003030       ??0js_error_message@ivm@@QEAA@AEBV01@@Z 0000000180004030 f i environment.obj
 0001:000030a0       ??0js_runtime_error@ivm@@QEAA@AEBV01@@Z 00000001800040a0 f i environment.obj
 0001:000030c0       ??_E?$js_error_ctor@$1?RangeError@Exception@v8@@SA?AV?$Local@VValue@v8@@@3@V?$Local@VString@v8@@@3@@Z@ivm@@UEAAPEAXI@Z 00000001800040c0 f i * CIL library *:* CIL module *
 0001:000030c0       ??_E?$js_error_ctor@$1?Error@Exception@v8@@SA?AV?$Local@VValue@v8@@@3@V?$Local@VString@v8@@@3@@Z@ivm@@UEAAPEAXI@Z 00000001800040c0 f i * CIL library *:* CIL module *
 0001:000030c0       ??_G?$js_error_ctor@$1?RangeError@Exception@v8@@SA?AV?$Local@VValue@v8@@@3@V?$Local@VString@v8@@@3@@Z@ivm@@UEAAPEAXI@Z 00000001800040c0 f i external_copy.obj
 0001:000030c0       ??_E?$js_error_ctor@$1?TypeError@Exception@v8@@SA?AV?$Local@VValue@v8@@@3@V?$Local@VString@v8@@@3@@Z@ivm@@UEAAPEAXI@Z 00000001800040c0 f i * CIL library *:* CIL module *
 0001:000030c0       ??_G?$js_error_ctor@$1?Error@Exception@v8@@SA?AV?$Local@VValue@v8@@@3@V?$Local@VString@v8@@@3@@Z@ivm@@UEAAPEAXI@Z 00000001800040c0 f i environment.obj
 0001:000030c0       ??_G?$js_error_ctor@$1?TypeError@Exception@v8@@SA?AV?$Local@VValue@v8@@@3@V?$Local@VString@v8@@@3@@Z@ivm@@UEAAPEAXI@Z 00000001800040c0 f i stack_trace.obj
 0001:00003110       ??1HeapCheck@IsolateEnvironment@ivm@@QEAA@XZ 0000000180004110 f   environment.obj
 0001:00003140       ?Epilogue@HeapCheck@IsolateEnvironment@ivm@@QEAAXXZ 0000000180004140 f   environment.obj
 0001:00003270       ??0js_fatal_error@ivm@@QEAA@AEBV01@@Z 0000000180004270 f i environment.obj
 0001:000032f0       ?GCEpilogueCallback@IsolateEnvironment@ivm@@CAXPEAVIsolate@v8@@W4GCType@4@W4GCCallbackFlags@4@@Z 00000001800042f0 f   environment.obj
 0001:00003520       ??_ELowMemoryTask@?7??GCEpilogueCallback@IsolateEnvironment@ivm@@CAXPEAVIsolate@v8@@W4GCType@5@W4GCCallbackFlags@5@@Z@UEAAPEAXI@Z 0000000180004520 f i * CIL library *:* CIL module *
 0001:00003520       ??_GAddDefaultContext@?1???0InspectorAgent@ivm@@QEAA@AEAVIsolateEnvironment@2@@Z@UEAAPEAXI@Z 0000000180004520 f i inspector.obj
 0001:00003520       ??_GLowMemoryTask@?7??GCEpilogueCallback@IsolateEnvironment@ivm@@CAXPEAVIsolate@v8@@W4GCType@5@W4GCCallbackFlags@5@@Z@UEAAPEAXI@Z 0000000180004520 f i environment.obj
 0001:00003520       ??_EAddDefaultContext@?1???0InspectorAgent@ivm@@QEAA@AEAVIsolateEnvironment@2@@Z@UEAAPEAXI@Z 0000000180004520 f i * CIL library *:* CIL module *
 0001:00003550       ?OOMErrorCallback@IsolateEnvironment@ivm@@CAXPEBD_N@Z 0000000180004550 f   environment.obj
 0001:00003650       ?PromiseRejectCallback@IsolateEnvironment@ivm@@CAXVPromiseRejectMessage@v8@@@Z 0000000180004650 f   environment.obj
 0001:000036f0       ?AsyncEntry@IsolateEnvironment@ivm@@AEAAXXZ 00000001800046f0 f   environment.obj
 0001:00003db0       ??0IsolateEnvironment@ivm@@QEAA@PEAVIsolate@v8@@V?$Local@VContext@v8@@@3@@Z 0000000180004db0 f   environment.obj
 0001:00004080       ??1Executor@IsolateEnvironment@ivm@@QEAA@XZ 0000000180005080 f i environment.obj
 0001:00004090       ??1?$unordered_map@PEAV?$Persistent@VObject@v8@@V?$NonCopyablePersistentTraits@VObject@v8@@@2@@v8@@U?$pair@P6AXPEAX@ZPEAX@std@@U?$hash@PEAV?$Persistent@VObject@v8@@V?$NonCopyablePersistentTraits@VObject@v8@@@2@@v8@@@4@U?$equal_to@PEAV?$Persistent@VObject@v8@@V?$NonCopyablePersistentTraits@VObject@v8@@@2@@v8@@@4@V?$allocator@U?$pair@QEAV?$Persistent@VObject@v8@@V?$NonCopyablePersistentTraits@VObject@v8@@@2@@v8@@U?$pair@P6AXPEAX@ZPEAX@std@@@std@@@4@@std@@QEAA@XZ 0000000180005090 f i environment.obj
 0001:00004090       ??1?$unordered_multimap@HPEAUModuleInfo@ivm@@U?$hash@H@std@@U?$equal_to@H@4@V?$allocator@U?$pair@$$CBHPEAUModuleInfo@ivm@@@std@@@4@@std@@QEAA@XZ 0000000180005090 f i environment.obj
 0001:000040a0       ??0IsolateEnvironment@ivm@@QEAA@_KV?$shared_ptr@X@std@@0@Z 00000001800050a0 f   environment.obj
 0001:00004500       ??1IsolateEnvironment@ivm@@QEAA@XZ 0000000180005500 f   environment.obj
 0001:00004ac0       ?TaskEpilogue@IsolateEnvironment@ivm@@QEAAXXZ 0000000180005ac0 f   environment.obj
 0001:00004c10       ?EnableInspectorAgent@IsolateEnvironment@ivm@@QEAAXXZ 0000000180005c10 f   environment.obj
 0001:00004c70       ?GetCpuTime@IsolateEnvironment@ivm@@QEAA?AV?$duration@_JU?$ratio@$00$0DLJKMKAA@@std@@@chrono@std@@XZ 0000000180005c70 f   environment.obj
 0001:00004d20       ?GetWallTime@IsolateEnvironment@ivm@@QEAA?AV?$duration@_JU?$ratio@$00$0DLJKMKAA@@std@@@chrono@std@@XZ 0000000180005d20 f   environment.obj
 0001:00004dd0       ?AddWeakCallback@IsolateEnvironment@ivm@@QEAAXPEAV?$Persistent@VObject@v8@@V?$NonCopyablePersistentTraits@VObject@v8@@@2@@v8@@P6AXPEAX@Z1@Z 0000000180005dd0 f   environment.obj
 0001:00004f00       ??0logic_error@std@@QEAA@AEBV01@@Z 0000000180005f00 f i environment.obj
 0001:00004f20       ?RemoveWeakCallback@IsolateEnvironment@ivm@@QEAAXPEAV?$Persistent@VObject@v8@@V?$NonCopyablePersistentTraits@VObject@v8@@@2@@v8@@@Z 0000000180005f20 f   environment.obj
 0001:00004fb0       ?LookupIsolate@IsolateEnvironment@ivm@@SA?AV?$shared_ptr@VIsolateHolder@ivm@@@std@@PEAVIsolate@v8@@@Z 0000000180005fb0 f   environment.obj
 0001:00005070       ??1?$unique_ptr@VModuleHandle@ivm@@U?$default_delete@VModuleHandle@ivm@@@std@@@std@@QEAA@XZ 0000000180006070 f i isolate_handle.obj
 0001:00005070       ??1?$unique_ptr@USendResponseTask@?1??sendResponse@SessionImpl@ivm@@EEAAXHV?$unique_ptr@VStringBuffer@v8_inspector@@U?$default_delete@VStringBuffer@v8_inspector@@@std@@@std@@@Z@U?$default_delete@USendResponseTask@?1??sendResponse@SessionImpl@ivm@@EEAAXHV?$unique_ptr@VStringBuffer@v8_inspector@@U?$default_delete@VStringBuffer@v8_inspector@@@std@@@std@@@Z@@6@@std@@QEAA@XZ 0000000180006070 f i session_handle.obj
 0001:00005070       ??1?$unique_ptr@UCreateContextRunner@ivm@@U?$default_delete@UCreateContextRunner@ivm@@@std@@@std@@QEAA@XZ 0000000180006070 f i isolate_handle.obj
 0001:00005070       ??1?$unique_ptr@UApplyRunner@ivm@@U?$default_delete@UApplyRunner@ivm@@@std@@@std@@QEAA@XZ 0000000180006070 f i reference_handle.obj
 0001:00005070       ??1?$unique_ptr@VTaskHolder@PlatformDelegate@ivm@@U?$default_delete@VTaskHolder@PlatformDelegate@ivm@@@std@@@std@@QEAA@XZ 0000000180006070 f i isolate.obj
 0001:00005070       ??1?$unique_ptr@UCompileScriptRunner@ivm@@U?$default_delete@UCompileScriptRunner@ivm@@@std@@@std@@QEAA@XZ 0000000180006070 f i isolate_handle.obj
 0001:00005070       ??1?$unique_ptr@URunRunner@ivm@@U?$default_delete@URunRunner@ivm@@@std@@@std@@QEAA@XZ 0000000180006070 f i script_handle.obj
 0001:00005070       ??1?$unique_ptr@VAllocator@ArrayBuffer@v8@@U?$default_delete@VAllocator@ArrayBuffer@v8@@@std@@@std@@QEAA@XZ 0000000180006070 f i environment.obj
 0001:00005070       ??1?$unique_ptr@UDispatchMessageA@?1??DispatchBackendProtocolMessage@InspectorSession@ivm@@QEAAXV?$vector@GV?$allocator@G@std@@@std@@@Z@U?$default_delete@UDispatchMessageA@?1??DispatchBackendProtocolMessage@InspectorSession@ivm@@QEAAXV?$vector@GV?$allocator@G@std@@@std@@@Z@@6@@std@@QEAA@XZ 0000000180006070 f i inspector.obj
 0001:00005070       ??1?$unique_ptr@VExternalCopySharedArrayBuffer@ivm@@U?$default_delete@VExternalCopySharedArrayBuffer@ivm@@@std@@@std@@QEAA@XZ 0000000180006070 f i external_copy.obj
 0001:00005070       ??1?$unique_ptr@VClassHandle@ivm@@U?$default_delete@VClassHandle@ivm@@@std@@@std@@QEAA@XZ 0000000180006070 f i stack_trace.obj
 0001:00005070       ??1?$unique_ptr@VContextHandle@ivm@@U?$default_delete@VContextHandle@ivm@@@std@@@std@@QEAA@XZ 0000000180006070 f i context_handle.obj
 0001:00005070       ??1?$unique_ptr@VScriptHandle@ivm@@U?$default_delete@VScriptHandle@ivm@@@std@@@std@@QEAA@XZ 0000000180006070 f i isolate_handle.obj
 0001:00005070       ??1?$unique_ptr@UPhase3Failure@?1??Run@Phase2Runner@ThreePhaseTask@ivm@@UEAAXXZ@U?$default_delete@UPhase3Failure@?1??Run@Phase2Runner@ThreePhaseTask@ivm@@UEAAXXZ@@std@@@std@@QEAA@XZ 0000000180006070 f i three_phase_task.obj
 0001:00005070       ??1?$unique_ptr@VTransferable@ivm@@U?$default_delete@VTransferable@ivm@@@std@@@std@@QEAA@XZ 0000000180006070 f i context_handle.obj
 0001:00005070       ??1?$unique_ptr@UPhase2Runner@ThreePhaseTask@ivm@@U?$default_delete@UPhase2Runner@ThreePhaseTask@ivm@@@std@@@std@@QEAA@XZ 0000000180006070 f i isolate_handle.obj
 0001:00005070       ??1?$unique_ptr@UPhase3Success@?1??Run@Phase2Runner@ThreePhaseTask@ivm@@UEAAXXZ@U?$default_delete@UPhase3Success@?1??Run@Phase2Runner@ThreePhaseTask@ivm@@UEAAXXZ@@std@@@std@@QEAA@XZ 0000000180006070 f i three_phase_task.obj
 0001:00005070       ??1?$unique_ptr@VStringBuffer@v8_inspector@@U?$default_delete@VStringBuffer@v8_inspector@@@std@@@std@@QEAA@XZ 0000000180006070 f i session_handle.obj
 0001:00005070       ??1?$unique_ptr@VExternalCopyArrayBuffer@ivm@@U?$default_delete@VExternalCopyArrayBuffer@ivm@@@std@@@std@@QEAA@XZ 0000000180006070 f i external_copy.obj
 0001:00005070       ??1?$unique_ptr@VExternalCopy@ivm@@U?$default_delete@VExternalCopy@ivm@@@std@@@std@@QEAA@XZ 0000000180006070 f i three_phase_task.obj
 0001:00005070       ??1?$unique_ptr@UHeapStatRunner@ivm@@U?$default_delete@UHeapStatRunner@ivm@@@std@@@std@@QEAA@XZ 0000000180006070 f i isolate_handle.obj
 0001:00005070       ??1?$unique_ptr@ULowMemoryTask@?7??GCEpilogueCallback@IsolateEnvironment@ivm@@CAXPEAVIsolate@v8@@W4GCType@6@W4GCCallbackFlags@6@@Z@U?$default_delete@ULowMemoryTask@?7??GCEpilogueCallback@IsolateEnvironment@ivm@@CAXPEAVIsolate@v8@@W4GCType@6@W4GCCallbackFlags@6@@Z@@std@@@std@@QEAA@XZ 0000000180006070 f i environment.obj
 0001:00005070       ??1?$unique_ptr@VExternalCopyHandle@ivm@@U?$default_delete@VExternalCopyHandle@ivm@@@std@@@std@@QEAA@XZ 0000000180006070 f i external_copy_handle.obj
 0001:00005070       ??1?$unique_ptr@VCreateRunner@ivm@@U?$default_delete@VCreateRunner@ivm@@@std@@@std@@QEAA@XZ 0000000180006070 f i native_module_handle.obj
 0001:00005070       ??1?$unique_ptr@UDeleteSession@?4??Disconnect@InspectorSession@ivm@@QEAAXXZ@U?$default_delete@UDeleteSession@?4??Disconnect@InspectorSession@ivm@@QEAAXXZ@@std@@@std@@QEAA@XZ 0000000180006070 f i inspector.obj
 0001:00005070       ??1?$unique_ptr@UTimeoutRunner@ivm@@U?$default_delete@UTimeoutRunner@ivm@@@std@@@std@@QEAA@XZ 0000000180006070 f i reference_handle.obj
 0001:00005070       ??1?$unique_ptr@VReferenceHandleTransferable@ReferenceHandle@ivm@@U?$default_delete@VReferenceHandleTransferable@ReferenceHandle@ivm@@@std@@@std@@QEAA@XZ 0000000180006070 f i reference_handle.obj
 0001:00005070       ??1?$unique_ptr@UGetRunner@ivm@@U?$default_delete@UGetRunner@ivm@@@std@@@std@@QEAA@XZ 0000000180006070 f i reference_handle.obj
 0001:00005070       ??1?$unique_ptr@VStackTraceHolder@ivm@@U?$default_delete@VStackTraceHolder@ivm@@@std@@@std@@QEAA@XZ 0000000180006070 f i stack_trace.obj
 0001:00005070       ??1?$unique_ptr@UCompileModuleRunner@ivm@@U?$default_delete@UCompileModuleRunner@ivm@@@std@@@std@@QEAA@XZ 0000000180006070 f i isolate_handle.obj
 0001:00005070       ??1?$unique_ptr@USetRunner@ivm@@U?$default_delete@USetRunner@ivm@@@std@@@std@@QEAA@XZ 0000000180006070 f i reference_handle.obj
 0001:00005070       ??1?$unique_ptr@VExternalCopyString@ivm@@U?$default_delete@VExternalCopyString@ivm@@@std@@@std@@QEAA@XZ 0000000180006070 f i external_copy.obj
 0001:00005070       ??1?$unique_ptr@VIsolateHandle@ivm@@U?$default_delete@VIsolateHandle@ivm@@@std@@@std@@QEAA@XZ 0000000180006070 f i isolate_handle.obj
 0001:00005070       ??1?$unique_ptr@VDereferenceHandle@ivm@@U?$default_delete@VDereferenceHandle@ivm@@@std@@@std@@QEAA@XZ 0000000180006070 f i reference_handle.obj
 0001:00005070       ??1?$unique_ptr@UAsyncRunner@?CB@??RunSync@ThreePhaseTask@ivm@@AEAA?AV?$Local@VValue@v8@@@v8@@AEAVIsolateHolder@4@_N@Z@U?$default_delete@UAsyncRunner@?CB@??RunSync@ThreePhaseTask@ivm@@AEAA?AV?$Local@VValue@v8@@@v8@@AEAVIsolateHolder@4@_N@Z@@std@@@std@@QEAA@XZ 0000000180006070 f i three_phase_task.obj
 0001:00005070       ??1?$unique_ptr@UInstantiateRunner@ivm@@U?$default_delete@UInstantiateRunner@ivm@@@std@@@std@@QEAA@XZ 0000000180006070 f i module_handle.obj
 0001:00005070       ??1?$unique_ptr@VV8Inspector@v8_inspector@@U?$default_delete@VV8Inspector@v8_inspector@@@std@@@std@@QEAA@XZ 0000000180006070 f i inspector.obj
 0001:00005070       ??1?$unique_ptr@VExternalCopyError@ivm@@U?$default_delete@VExternalCopyError@ivm@@@std@@@std@@QEAA@XZ 0000000180006070 f i three_phase_task.obj
 0001:00005070       ??1?$unique_ptr@UAddDefaultContext@?1???0InspectorAgent@ivm@@QEAA@AEAVIsolateEnvironment@3@@Z@U?$default_delete@UAddDefaultContext@?1???0InspectorAgent@ivm@@QEAA@AEAVIsolateEnvironment@3@@Z@@std@@@std@@QEAA@XZ 0000000180006070 f i inspector.obj
 0001:00005070       ??1?$unique_ptr@VExternalCopyIntoHandle@ivm@@U?$default_delete@VExternalCopyIntoHandle@ivm@@@std@@@std@@QEAA@XZ 0000000180006070 f i external_copy_handle.obj
 0001:00005070       ??1?$unique_ptr@VLibHandle@ivm@@U?$default_delete@VLibHandle@ivm@@@std@@@std@@QEAA@XZ 0000000180006070 f i isolate.obj
 0001:00005070       ??1?$unique_ptr@UPhase2RunnerIgnored@ThreePhaseTask@ivm@@U?$default_delete@UPhase2RunnerIgnored@ThreePhaseTask@ivm@@@std@@@std@@QEAA@XZ 0000000180006070 f i isolate_handle.obj
 0001:00005070       ??1?$unique_ptr@USendNotificationTask@?1??sendNotification@SessionImpl@ivm@@EEAAXV?$unique_ptr@VStringBuffer@v8_inspector@@U?$default_delete@VStringBuffer@v8_inspector@@@std@@@std@@@Z@U?$default_delete@USendNotificationTask@?1??sendNotification@SessionImpl@ivm@@EEAAXV?$unique_ptr@VStringBuffer@v8_inspector@@U?$default_delete@VStringBuffer@v8_inspector@@@std@@@std@@@Z@@6@@std@@QEAA@XZ 0000000180006070 f i session_handle.obj
 0001:00005070       ??1?$unique_ptr@VInspectorAgent@ivm@@U?$default_delete@VInspectorAgent@ivm@@@std@@@std@@QEAA@XZ 0000000180006070 f i environment.obj
 0001:00005070       ??1?$unique_ptr@UEvaluateRunner@ivm@@U?$default_delete@UEvaluateRunner@ivm@@@std@@@std@@QEAA@XZ 0000000180006070 f i module_handle.obj
 0001:00005070       ??1?$unique_ptr@VSessionHandle@ivm@@U?$default_delete@VSessionHandle@ivm@@@std@@@std@@QEAA@XZ 0000000180006070 f i isolate_handle.obj
 0001:00005070       ??1?$unique_ptr@VRunnable@ivm@@U?$default_delete@VRunnable@ivm@@@std@@@std@@QEAA@XZ 0000000180006070 f i environment.obj
 0001:00005070       ??1?$unique_ptr@VReferenceHandle@ivm@@U?$default_delete@VReferenceHandle@ivm@@@std@@@std@@QEAA@XZ 0000000180006070 f i context_handle.obj
 0001:00005070       ??1?$unique_ptr@UContextDisposer@?1???RContextDeleter@?1??Phase2@CreateContextRunner@ivm@@UEAAXXZ@QEAAXPEAV?$RemoteHandle@VContext@v8@@@5@@Z@U?$default_delete@UContextDisposer@?1???RContextDeleter@?1??Phase2@CreateContextRunner@ivm@@UEAAXXZ@QEAAXPEAV?$RemoteHandle@VContext@v8@@@5@@Z@@std@@@std@@QEAA@XZ 0000000180006070 f i isolate_handle.obj
 0001:00005070       ??1?$unique_ptr@VV8InspectorSession@v8_inspector@@U?$default_delete@VV8InspectorSession@v8_inspector@@@std@@@std@@QEAA@XZ 0000000180006070 f i inspector.obj
 0001:00005070       ??1?$unique_ptr@UCopyRunner@ivm@@U?$default_delete@UCopyRunner@ivm@@@std@@@std@@QEAA@XZ 0000000180006070 f i reference_handle.obj
 0001:00005070       ??1?$unique_ptr@VLibraryHandle@ivm@@U?$default_delete@VLibraryHandle@ivm@@@std@@@std@@QEAA@XZ 0000000180006070 f i isolate.obj
 0001:00005070       ??1?$unique_ptr@VNativeModuleHandle@ivm@@U?$default_delete@VNativeModuleHandle@ivm@@@std@@@std@@QEAA@XZ 0000000180006070 f i native_module_handle.obj
 0001:00005070       ??1?$unique_ptr@VModuleLinker@ivm@@U?$default_delete@VModuleLinker@ivm@@@std@@@std@@QEAA@XZ 0000000180006070 f i module_handle.obj
 0001:00005090       ?ConstructError@?$js_error_ctor@$1?Error@Exception@v8@@SA?AV?$Local@VValue@v8@@@3@V?$Local@VString@v8@@@3@@Z@ivm@@UEBA?AV?$Local@VValue@v8@@@v8@@XZ 0000000180006090 f i environment.obj
 0001:00005280       ??0?$js_error_ctor@$1?Error@Exception@v8@@SA?AV?$Local@VValue@v8@@@3@V?$Local@VString@v8@@@3@@Z@ivm@@QEAA@V?$basic_string@DU?$char_traits@D@std@@V?$allocator@D@2@@std@@@Z 0000000180006280 f i environment.obj
 0001:00005300       ??1?$_Hash@V?$_Umap_traits@HPEAUModuleInfo@ivm@@V?$_Uhash_compare@HU?$hash@H@std@@U?$equal_to@H@2@@std@@V?$allocator@U?$pair@$$CBHPEAUModuleInfo@ivm@@@std@@@4@$00@std@@@std@@QEAA@XZ 0000000180006300 f i environment.obj
 0001:00005300       ??1?$_Hash@V?$_Umap_traits@PEAV?$Persistent@VObject@v8@@V?$NonCopyablePersistentTraits@VObject@v8@@@2@@v8@@U?$pair@P6AXPEAX@ZPEAX@std@@V?$_Uhash_compare@PEAV?$Persistent@VObject@v8@@V?$NonCopyablePersistentTraits@VObject@v8@@@2@@v8@@U?$hash@PEAV?$Persistent@VObject@v8@@V?$NonCopyablePersistentTraits@VObject@v8@@@2@@v8@@@std@@U?$equal_to@PEAV?$Persistent@VObject@v8@@V?$NonCopyablePersistentTraits@VObject@v8@@@2@@v8@@@4@@4@V?$allocator@U?$pair@QEAV?$Persistent@VObject@v8@@V?$NonCopyablePersistentTraits@VObject@v8@@@2@@v8@@U?$pair@P6AXPEAX@ZPEAX@std@@@std@@@4@$0A@@std@@@std@@QEAA@XZ 0000000180006300 f i environment.obj
 0001:00005300       ??1?$_Hash@V?$_Uset_traits@PEAVInspectorSession@ivm@@V?$_Uhash_compare@PEAVInspectorSession@ivm@@U?$hash@PEAVInspectorSession@ivm@@@std@@U?$equal_to@PEAVInspectorSession@ivm@@@4@@std@@V?$allocator@PEAVInspectorSession@ivm@@@4@$0A@@std@@@std@@QEAA@XZ 0000000180006300 f i inspector.obj
 0001:00005300       ??1?$_Hash@V?$_Umap_traits@PEAVIsolate@v8@@PEAVIsolateEnvironment@ivm@@V?$_Uhash_compare@PEAVIsolate@v8@@U?$hash@PEAVIsolate@v8@@@std@@U?$equal_to@PEAVIsolate@v8@@@4@@std@@V?$allocator@U?$pair@QEAVIsolate@v8@@PEAVIsolateEnvironment@ivm@@@std@@@6@$0A@@std@@@std@@QEAA@XZ 0000000180006300 f i environment.obj
 0001:00005380       ??0?$unordered_map@PEAVIsolate@v8@@PEAVIsolateEnvironment@ivm@@U?$hash@PEAVIsolate@v8@@@std@@U?$equal_to@PEAVIsolate@v8@@@6@V?$allocator@U?$pair@QEAVIsolate@v8@@PEAVIsolateEnvironment@ivm@@@std@@@6@@std@@QEAA@XZ 0000000180006380 f i environment.obj
 0001:00005380       ??0?$unordered_multimap@HPEAUModuleInfo@ivm@@U?$hash@H@std@@U?$equal_to@H@4@V?$allocator@U?$pair@$$CBHPEAUModuleInfo@ivm@@@std@@@4@@std@@QEAA@XZ 0000000180006380 f i environment.obj
 0001:00005410       ?erase@?$_Hash@V?$_Umap_traits@PEAVIsolate@v8@@PEAVIsolateEnvironment@ivm@@V?$_Uhash_compare@PEAVIsolate@v8@@U?$hash@PEAVIsolate@v8@@@std@@U?$equal_to@PEAVIsolate@v8@@@4@@std@@V?$allocator@U?$pair@QEAVIsolate@v8@@PEAVIsolateEnvironment@ivm@@@std@@@6@$0A@@std@@@std@@QEAA?AV?$_List_iterator@V?$_List_val@U?$_List_simple_types@U?$pair@QEAVIsolate@v8@@PEAVIsolateEnvironment@ivm@@@std@@@std@@@std@@@2@V?$_List_const_iterator@V?$_List_val@U?$_List_simple_types@U?$pair@QEAVIsolate@v8@@PEAVIsolateEnvironment@ivm@@@std@@@std@@@std@@@2@@Z 0000000180006410 f i environment.obj
 0001:00005410       ?erase@?$_Hash@V?$_Umap_traits@PEAV?$Persistent@VObject@v8@@V?$NonCopyablePersistentTraits@VObject@v8@@@2@@v8@@U?$pair@P6AXPEAX@ZPEAX@std@@V?$_Uhash_compare@PEAV?$Persistent@VObject@v8@@V?$NonCopyablePersistentTraits@VObject@v8@@@2@@v8@@U?$hash@PEAV?$Persistent@VObject@v8@@V?$NonCopyablePersistentTraits@VObject@v8@@@2@@v8@@@std@@U?$equal_to@PEAV?$Persistent@VObject@v8@@V?$NonCopyablePersistentTraits@VObject@v8@@@2@@v8@@@4@@4@V?$allocator@U?$pair@QEAV?$Persistent@VObject@v8@@V?$NonCopyablePersistentTraits@VObject@v8@@@2@@v8@@U?$pair@P6AXPEAX@ZPEAX@std@@@std@@@4@$0A@@std@@@std@@QEAA?AV?$_List_iterator@V?$_List_val@U?$_List_simple_types@U?$pair@QEAV?$Persistent@VObject@v8@@V?$NonCopyablePersistentTraits@VObject@v8@@@2@@v8@@U?$pair@P6AXPEAX@ZPEAX@std@@@std@@@std@@@std@@@2@V?$_List_const_iterator@V?$_List_val@U?$_List_simple_types@U?$pair@QEAV?$Persistent@VObject@v8@@V?$NonCopyablePersistentTraits@VObject@v8@@@2@@v8@@U?$pair@P6AXPEAX@ZPEAX@std@@@std@@@std@@@std@@@2@@Z 0000000180006410 f i environment.obj
 0001:00005410       ?erase@?$_Hash@V?$_Uset_traits@PEAVtimer_thread_t@timer_t@ivm@@V?$_Uhash_compare@PEAVtimer_thread_t@timer_t@ivm@@U?$hash@PEAVtimer_thread_t@timer_t@ivm@@@std@@U?$equal_to@PEAVtimer_thread_t@timer_t@ivm@@@5@@std@@V?$allocator@PEAVtimer_thread_t@timer_t@ivm@@@5@$0A@@std@@@std@@QEAA?AV?$_List_const_iterator@V?$_List_val@U?$_List_simple_types@PEAVtimer_thread_t@timer_t@ivm@@@std@@@std@@@2@V32@@Z 0000000180006410 f i isolate.obj
 0001:00005410       ?erase@?$_Hash@V?$_Uset_traits@PEAVInspectorSession@ivm@@V?$_Uhash_compare@PEAVInspectorSession@ivm@@U?$hash@PEAVInspectorSession@ivm@@@std@@U?$equal_to@PEAVInspectorSession@ivm@@@4@@std@@V?$allocator@PEAVInspectorSession@ivm@@@4@$0A@@std@@@std@@QEAA?AV?$_List_const_iterator@V?$_List_val@U?$_List_simple_types@PEAVInspectorSession@ivm@@@std@@@std@@@2@V32@@Z 0000000180006410 f i inspector.obj
 0001:00005520       ??0?$unordered_map@PEAV?$Persistent@VObject@v8@@V?$NonCopyablePersistentTraits@VObject@v8@@@2@@v8@@U?$pair@P6AXPEAX@ZPEAX@std@@U?$hash@PEAV?$Persistent@VObject@v8@@V?$NonCopyablePersistentTraits@VObject@v8@@@2@@v8@@@4@U?$equal_to@PEAV?$Persistent@VObject@v8@@V?$NonCopyablePersistentTraits@VObject@v8@@@2@@v8@@@4@V?$allocator@U?$pair@QEAV?$Persistent@VObject@v8@@V?$NonCopyablePersistentTraits@VObject@v8@@@2@@v8@@U?$pair@P6AXPEAX@ZPEAX@std@@@std@@@4@@std@@QEAA@XZ 0000000180006520 f i environment.obj
 0001:000055b0       ??1?$vector@V?$unique_ptr@V?$Eternal@VData@v8@@@v8@@U?$default_delete@V?$Eternal@VData@v8@@@v8@@@std@@@std@@V?$allocator@V?$unique_ptr@V?$Eternal@VData@v8@@@v8@@U?$default_delete@V?$Eternal@VData@v8@@@v8@@@std@@@std@@@2@@std@@QEAA@XZ 00000001800065b0 f i environment.obj
 0001:00005620       ??1?$Persistent@VValue@v8@@V?$NonCopyablePersistentTraits@VValue@v8@@@2@@v8@@QEAA@XZ 0000000180006620 f i environment.obj
 0001:00005620       ??1?$Persistent@VContext@v8@@V?$NonCopyablePersistentTraits@VContext@v8@@@2@@v8@@QEAA@XZ 0000000180006620 f i environment.obj
 0001:00005620       ??1?$Persistent@VObject@v8@@V?$NonCopyablePersistentTraits@VObject@v8@@@2@@v8@@QEAA@XZ 0000000180006620 f i stack_trace.obj
 0001:00005640       ?resize@?$vector@Vthread@std@@V?$allocator@Vthread@std@@@2@@std@@QEAAX_K@Z 0000000180006640 f i environment.obj
 0001:00005750       ?resize@?$vector@Uthread_data_t@thread_pool_t@@V?$allocator@Uthread_data_t@thread_pool_t@@@std@@@std@@QEAAX_K@Z 0000000180006750 f i environment.obj
 0001:00005880       ??4?$shared_ptr@Utimer_data_t@timer_t@ivm@@@std@@QEAAAEAV01@$$QEAV01@@Z 0000000180006880 f i isolate.obj
 0001:00005880       ??4?$shared_ptr@_N@std@@QEAAAEAV01@$$QEAV01@@Z 0000000180006880 f i reference_handle.obj
 0001:00005880       ??4?$shared_ptr@VExternalCopyArrayBuffer@ivm@@@std@@QEAAAEAV01@$$QEAV01@@Z 0000000180006880 f i isolate_handle.obj
 0001:00005880       ??4?$shared_ptr@Vmutex@std@@@std@@QEAAAEAV01@$$QEAV01@@Z 0000000180006880 f i environment.obj
 0001:00005880       ??4?$shared_ptr@UModuleInfo@ivm@@@std@@QEAAAEAV01@$$QEAV01@@Z 0000000180006880 f i isolate_handle.obj
 0001:00005880       ??4?$shared_ptr@V?$RemoteHandle@VContext@v8@@@ivm@@@std@@QEAAAEAV01@$$QEAV01@@Z 0000000180006880 f i isolate_handle.obj
 0001:00005880       ??4?$shared_ptr@V?$RemoteHandle@VUnboundScript@v8@@@ivm@@@std@@QEAAAEAV01@$$QEAV01@@Z 0000000180006880 f i isolate_handle.obj
 0001:00005880       ??4?$shared_ptr@V?$RemoteHandle@VFunction@v8@@@ivm@@@std@@QEAAAEAV01@$$QEAV01@@Z 0000000180006880 f i session_handle.obj
 0001:00005880       ??4?$shared_ptr@V?$RemoteHandle@VValue@v8@@@ivm@@@std@@QEAAAEAV01@$$QEAV01@@Z 0000000180006880 f i isolate_handle.obj
 0001:00005880       ??4?$shared_ptr@VIsolateHolder@ivm@@@std@@QEAAAEAV01@$$QEAV01@@Z 0000000180006880 f i isolate.obj
 0001:00005880       ??4?$shared_ptr@V?$vector@DV?$allocator@D@std@@@std@@@std@@QEAAAEAV01@$$QEAV01@@Z 0000000180006880 f i external_copy.obj
 0001:00005880       ??4?$shared_ptr@X@std@@QEAAAEAV01@$$QEAV01@@Z 0000000180006880 f i external_copy.obj
 0001:00005910       ??1?$lock_guard@Vmutex@std@@@std@@QEAA@XZ 0000000180006910 f i environment.obj
 0001:00005930       ?unlock@?$unique_lock@Vmutex@std@@@std@@QEAAXXZ 0000000180006930 f i environment.obj
 0001:00005b30       ??1?$unique_lock@Vmutex@std@@@std@@QEAA@XZ 0000000180006b30 f i environment.obj
 0001:00005b60       ??1?$basic_string@DU?$char_traits@D@std@@V?$allocator@D@2@@std@@QEAA@XZ 0000000180006b60 f i environment.obj
 0001:00005bf0       ??0?$basic_string@DU?$char_traits@D@std@@V?$allocator@D@2@@std@@QEAA@PEBD@Z 0000000180006bf0 f i environment.obj
 0001:00005c30       ??1?$vector@V?$_List_unchecked_iterator@V?$_List_val@U?$_List_simple_types@U?$pair@$$CBV?$basic_string@DU?$char_traits@D@std@@V?$allocator@D@2@@std@@V?$shared_ptr@UModuleInfo@ivm@@@2@@std@@@std@@@std@@@std@@U?$_Wrap_alloc@V?$allocator@V?$_List_unchecked_iterator@V?$_List_val@U?$_List_simple_types@U?$pair@$$CBV?$basic_string@DU?$char_traits@D@std@@V?$allocator@D@2@@std@@V?$shared_ptr@UModuleInfo@ivm@@@2@@std@@@std@@@std@@@std@@@std@@@2@@std@@QEAA@XZ 0000000180006c30 f i module_handle.obj
 0001:00005c30       ??1?$vector@V?$_List_unchecked_iterator@V?$_List_val@U?$_List_simple_types@U?$pair@$$CBHPEAUModuleInfo@ivm@@@std@@@std@@@std@@@std@@U?$_Wrap_alloc@V?$allocator@V?$_List_unchecked_iterator@V?$_List_val@U?$_List_simple_types@U?$pair@$$CBHPEAUModuleInfo@ivm@@@std@@@std@@@std@@@std@@@std@@@2@@std@@QEAA@XZ 0000000180006c30 f i environment.obj
 0001:00005c30       ??1?$vector@V?$_List_unchecked_iterator@V?$_List_val@U?$_List_simple_types@U?$pair@QEAVIsolate@v8@@PEAVIsolateEnvironment@ivm@@@std@@@std@@@std@@@std@@U?$_Wrap_alloc@V?$allocator@V?$_List_unchecked_iterator@V?$_List_val@U?$_List_simple_types@U?$pair@QEAVIsolate@v8@@PEAVIsolateEnvironment@ivm@@@std@@@std@@@std@@@std@@@std@@@2@@std@@QEAA@XZ 0000000180006c30 f i environment.obj
 0001:00005c30       ??1?$vector@V?$_List_unchecked_const_iterator@V?$_List_val@U?$_List_simple_types@PEAVtimer_thread_t@timer_t@ivm@@@std@@@std@@U_Iterator_base0@2@@std@@U?$_Wrap_alloc@V?$allocator@V?$_List_unchecked_const_iterator@V?$_List_val@U?$_List_simple_types@PEAVtimer_thread_t@timer_t@ivm@@@std@@@std@@U_Iterator_base0@2@@std@@@std@@@2@@std@@QEAA@XZ 0000000180006c30 f i isolate.obj
 0001:00005c30       ??1?$vector@PEAUtimer_data_t@timer_t@ivm@@V?$allocator@PEAUtimer_data_t@timer_t@ivm@@@std@@@std@@QEAA@XZ 0000000180006c30 f i isolate.obj
 0001:00005c30       ??1?$vector@V?$_List_unchecked_const_iterator@V?$_List_val@U?$_List_simple_types@PEAVInspectorSession@ivm@@@std@@@std@@U_Iterator_base0@2@@std@@U?$_Wrap_alloc@V?$allocator@V?$_List_unchecked_const_iterator@V?$_List_val@U?$_List_simple_types@PEAVInspectorSession@ivm@@@std@@@std@@U_Iterator_base0@2@@std@@@std@@@2@@std@@QEAA@XZ 0000000180006c30 f i inspector.obj
 0001:00005c30       ??1?$vector@V?$Local@VValue@v8@@@v8@@V?$allocator@V?$Local@VValue@v8@@@v8@@@std@@@std@@QEAA@XZ 0000000180006c30 f i external_copy_handle.obj
 0001:00005c30       ??1?$vector@V?$_List_unchecked_iterator@V?$_List_val@U?$_List_simple_types@U?$pair@QEAV?$Persistent@VObject@v8@@V?$NonCopyablePersistentTraits@VObject@v8@@@2@@v8@@U?$pair@P6AXPEAX@ZPEAX@std@@@std@@@std@@@std@@@std@@U?$_Wrap_alloc@V?$allocator@V?$_List_unchecked_iterator@V?$_List_val@U?$_List_simple_types@U?$pair@QEAV?$Persistent@VObject@v8@@V?$NonCopyablePersistentTraits@VObject@v8@@@2@@v8@@U?$pair@P6AXPEAX@ZPEAX@std@@@std@@@std@@@std@@@std@@@std@@@2@@std@@QEAA@XZ 0000000180006c30 f i environment.obj
 0001:00005c70       ??1?$list@U?$pair@QEAVIsolate@v8@@PEAVIsolateEnvironment@ivm@@@std@@V?$allocator@U?$pair@QEAVIsolate@v8@@PEAVIsolateEnvironment@ivm@@@std@@@2@@std@@QEAA@XZ 0000000180006c70 f i environment.obj
 0001:00005c70       ??1?$list@U?$pair@QEAV?$Persistent@VObject@v8@@V?$NonCopyablePersistentTraits@VObject@v8@@@2@@v8@@U?$pair@P6AXPEAX@ZPEAX@std@@@std@@V?$allocator@U?$pair@QEAV?$Persistent@VObject@v8@@V?$NonCopyablePersistentTraits@VObject@v8@@@2@@v8@@U?$pair@P6AXPEAX@ZPEAX@std@@@std@@@2@@std@@QEAA@XZ 0000000180006c70 f i environment.obj
 0001:00005c70       ??1?$list@PEAVtimer_thread_t@timer_t@ivm@@V?$allocator@PEAVtimer_thread_t@timer_t@ivm@@@std@@@std@@QEAA@XZ 0000000180006c70 f i isolate.obj
 0001:00005c70       ??1?$list@U?$pair@$$CBHPEAUModuleInfo@ivm@@@std@@V?$allocator@U?$pair@$$CBHPEAUModuleInfo@ivm@@@std@@@2@@std@@QEAA@XZ 0000000180006c70 f i environment.obj
 0001:00005c70       ??1?$list@PEAVInspectorSession@ivm@@V?$allocator@PEAVInspectorSession@ivm@@@std@@@std@@QEAA@XZ 0000000180006c70 f i inspector.obj
 0001:00005cd0       ?lower_bound@?$_Hash@V?$_Umap_traits@PEAV?$Persistent@VObject@v8@@V?$NonCopyablePersistentTraits@VObject@v8@@@2@@v8@@U?$pair@P6AXPEAX@ZPEAX@std@@V?$_Uhash_compare@PEAV?$Persistent@VObject@v8@@V?$NonCopyablePersistentTraits@VObject@v8@@@2@@v8@@U?$hash@PEAV?$Persistent@VObject@v8@@V?$NonCopyablePersistentTraits@VObject@v8@@@2@@v8@@@std@@U?$equal_to@PEAV?$Persistent@VObject@v8@@V?$NonCopyablePersistentTraits@VObject@v8@@@2@@v8@@@4@@4@V?$allocator@U?$pair@QEAV?$Persistent@VObject@v8@@V?$NonCopyablePersistentTraits@VObject@v8@@@2@@v8@@U?$pair@P6AXPEAX@ZPEAX@std@@@std@@@4@$0A@@std@@@std@@QEAA?AV?$_List_iterator@V?$_List_val@U?$_List_simple_types@U?$pair@QEAV?$Persistent@VObject@v8@@V?$NonCopyablePersistentTraits@VObject@v8@@@2@@v8@@U?$pair@P6AXPEAX@ZPEAX@std@@@std@@@std@@@std@@@2@AEBQEAV?$Persistent@VObject@v8@@V?$NonCopyablePersistentTraits@VObject@v8@@@2@@v8@@@Z 0000000180006cd0 f i environment.obj
 0001:00005cd0       ?lower_bound@?$_Hash@V?$_Umap_traits@PEAVIsolate@v8@@PEAVIsolateEnvironment@ivm@@V?$_Uhash_compare@PEAVIsolate@v8@@U?$hash@PEAVIsolate@v8@@@std@@U?$equal_to@PEAVIsolate@v8@@@4@@std@@V?$allocator@U?$pair@QEAVIsolate@v8@@PEAVIsolateEnvironment@ivm@@@std@@@6@$0A@@std@@@std@@QEAA?AV?$_List_iterator@V?$_List_val@U?$_List_simple_types@U?$pair@QEAVIsolate@v8@@PEAVIsolateEnvironment@ivm@@@std@@@std@@@std@@@2@AEBQEAVIsolate@v8@@@Z 0000000180006cd0 f i environment.obj
 0001:00005dc0       ?_Tidy@?$deque@V?$unique_ptr@VRunnable@ivm@@U?$default_delete@VRunnable@ivm@@@std@@@std@@V?$allocator@V?$unique_ptr@VRunnable@ivm@@U?$default_delete@VRunnable@ivm@@@std@@@std@@@2@@std@@IEAAXXZ 0000000180006dc0 f i environment.obj
 0001:00005ef0       ?pop_front@?$deque@V?$unique_ptr@VRunnable@ivm@@U?$default_delete@VRunnable@ivm@@@std@@@std@@V?$allocator@V?$unique_ptr@VRunnable@ivm@@U?$default_delete@VRunnable@ivm@@@std@@@std@@@2@@std@@QEAAXXZ 0000000180006ef0 f i environment.obj
 0001:00005f50       ?push_back@?$deque@V?$unique_ptr@VRunnable@ivm@@U?$default_delete@VRunnable@ivm@@@std@@@std@@V?$allocator@V?$unique_ptr@VRunnable@ivm@@U?$default_delete@VRunnable@ivm@@@std@@@std@@@2@@std@@QEAAX$$QEAV?$unique_ptr@VRunnable@ivm@@U?$default_delete@VRunnable@ivm@@@std@@@2@@Z 0000000180006f50 f i environment.obj
 0001:00006020       ??4?$deque@V?$unique_ptr@VRunnable@ivm@@U?$default_delete@VRunnable@ivm@@@std@@@std@@V?$allocator@V?$unique_ptr@VRunnable@ivm@@U?$default_delete@VRunnable@ivm@@@std@@@std@@@2@@std@@QEAAAEAV01@$$QEAV01@@Z 0000000180007020 f i environment.obj
 0001:000060a0       ?_Reserve@?$vector@Vthread@std@@V?$allocator@Vthread@std@@@2@@std@@IEAAX_K@Z 00000001800070a0 f i environment.obj
 0001:00006130       ?_Tidy@?$vector@Uthread_data_t@thread_pool_t@@V?$allocator@Uthread_data_t@thread_pool_t@@@std@@@std@@IEAAXXZ 0000000180007130 f i environment.obj
 0001:000061c0       ?_Reserve@?$vector@Uthread_data_t@thread_pool_t@@V?$allocator@Uthread_data_t@thread_pool_t@@@std@@@std@@IEAAX_K@Z 00000001800071c0 f i environment.obj
 0001:00006250       ?_Pop_back_n@?$vector@Uthread_data_t@thread_pool_t@@V?$allocator@Uthread_data_t@thread_pool_t@@@std@@@std@@QEAAX_K@Z 0000000180007250 f i environment.obj
 0001:000062d0       ?_Validate@?$unique_lock@Vmutex@std@@@std@@AEBAXXZ 00000001800072d0 f i environment.obj
 0001:00006360       ?_Tidy@?$basic_string@DU?$char_traits@D@std@@V?$allocator@D@2@@std@@QEAAX_N_K@Z 0000000180007360 f i environment.obj
 0001:00006410       ?assign@?$basic_string@DU?$char_traits@D@std@@V?$allocator@D@2@@std@@QEAAAEAV12@PEBD_K@Z 0000000180007410 f i environment.obj
 0001:00006540       ?assign@?$basic_string@DU?$char_traits@D@std@@V?$allocator@D@2@@std@@QEAAAEAV12@AEBV12@_K1@Z 0000000180007540 f i environment.obj
 0001:00006670       ?append@?$basic_string@DU?$char_traits@D@std@@V?$allocator@D@2@@std@@QEAAAEAV12@PEBD_K@Z 0000000180007670 f i environment.obj
 0001:000067c0       ?append@?$basic_string@DU?$char_traits@D@std@@V?$allocator@D@2@@std@@QEAAAEAV12@AEBV12@_K1@Z 00000001800077c0 f i environment.obj
 0001:000068f0       ?_Assign_rv@?$basic_string@DU?$char_traits@D@std@@V?$allocator@D@2@@std@@QEAAX$$QEAV12@@Z 00000001800078f0 f i environment.obj
 0001:00006970       ?_Init@?$_Hash@V?$_Uset_traits@PEAVtimer_thread_t@timer_t@ivm@@V?$_Uhash_compare@PEAVtimer_thread_t@timer_t@ivm@@U?$hash@PEAVtimer_thread_t@timer_t@ivm@@@std@@U?$equal_to@PEAVtimer_thread_t@timer_t@ivm@@@5@@std@@V?$allocator@PEAVtimer_thread_t@timer_t@ivm@@@5@$0A@@std@@@std@@IEAAX_K@Z 0000000180007970 f i isolate.obj
 0001:00006970       ?_Init@?$_Hash@V?$_Umap_traits@V?$basic_string@DU?$char_traits@D@std@@V?$allocator@D@2@@std@@V?$shared_ptr@UModuleInfo@ivm@@@2@V?$_Uhash_compare@V?$basic_string@DU?$char_traits@D@std@@V?$allocator@D@2@@std@@U?$hash@V?$basic_string@DU?$char_traits@D@std@@V?$allocator@D@2@@std@@@2@U?$equal_to@V?$basic_string@DU?$char_traits@D@std@@V?$allocator@D@2@@std@@@2@@2@V?$allocator@U?$pair@$$CBV?$basic_string@DU?$char_traits@D@std@@V?$allocator@D@2@@std@@V?$shared_ptr@UModuleInfo@ivm@@@2@@std@@@2@$0A@@std@@@std@@IEAAX_K@Z 0000000180007970 f i module_handle.obj
 0001:00006970       ?_Init@?$_Hash@V?$_Uset_traits@PEAVInspectorSession@ivm@@V?$_Uhash_compare@PEAVInspectorSession@ivm@@U?$hash@PEAVInspectorSession@ivm@@@std@@U?$equal_to@PEAVInspectorSession@ivm@@@4@@std@@V?$allocator@PEAVInspectorSession@ivm@@@4@$0A@@std@@@std@@IEAAX_K@Z 0000000180007970 f i inspector.obj
 0001:00006970       ?_Init@?$_Hash@V?$_Umap_traits@PEAV?$Persistent@VObject@v8@@V?$NonCopyablePersistentTraits@VObject@v8@@@2@@v8@@U?$pair@P6AXPEAX@ZPEAX@std@@V?$_Uhash_compare@PEAV?$Persistent@VObject@v8@@V?$NonCopyablePersistentTraits@VObject@v8@@@2@@v8@@U?$hash@PEAV?$Persistent@VObject@v8@@V?$NonCopyablePersistentTraits@VObject@v8@@@2@@v8@@@std@@U?$equal_to@PEAV?$Persistent@VObject@v8@@V?$NonCopyablePersistentTraits@VObject@v8@@@2@@v8@@@4@@4@V?$allocator@U?$pair@QEAV?$Persistent@VObject@v8@@V?$NonCopyablePersistentTraits@VObject@v8@@@2@@v8@@U?$pair@P6AXPEAX@ZPEAX@std@@@std@@@4@$0A@@std@@@std@@IEAAX_K@Z 0000000180007970 f i environment.obj
 0001:00006970       ?_Init@?$_Hash@V?$_Umap_traits@PEAVIsolate@v8@@PEAVIsolateEnvironment@ivm@@V?$_Uhash_compare@PEAVIsolate@v8@@U?$hash@PEAVIsolate@v8@@@std@@U?$equal_to@PEAVIsolate@v8@@@4@@std@@V?$allocator@U?$pair@QEAVIsolate@v8@@PEAVIsolateEnvironment@ivm@@@std@@@6@$0A@@std@@@std@@IEAAX_K@Z 0000000180007970 f i environment.obj
 0001:00006970       ?_Init@?$_Hash@V?$_Umap_traits@HPEAUModuleInfo@ivm@@V?$_Uhash_compare@HU?$hash@H@std@@U?$equal_to@H@2@@std@@V?$allocator@U?$pair@$$CBHPEAUModuleInfo@ivm@@@std@@@4@$00@std@@@std@@IEAAX_K@Z 0000000180007970 f i environment.obj
 0001:00006a10       ?deallocate@?$_Wrap_alloc@U?$_Wrap_alloc@V?$allocator@V?$_List_unchecked_iterator@V?$_List_val@U?$_List_simple_types@U?$pair@$$CBHPEAUModuleInfo@ivm@@@std@@@std@@@std@@@std@@@std@@@std@@@std@@QEAAXPEAV?$_List_unchecked_iterator@V?$_List_val@U?$_List_simple_types@U?$pair@$$CBHPEAUModuleInfo@ivm@@@std@@@std@@@std@@@2@_K@Z 0000000180007a10 f i environment.obj
 0001:00006a10       ?deallocate@?$_Wrap_alloc@U?$_Wrap_alloc@V?$allocator@V?$_List_unchecked_const_iterator@V?$_List_val@U?$_List_simple_types@PEAVtimer_thread_t@timer_t@ivm@@@std@@@std@@U_Iterator_base0@2@@std@@@std@@@std@@@std@@QEAAXPEAV?$_List_unchecked_const_iterator@V?$_List_val@U?$_List_simple_types@PEAVtimer_thread_t@timer_t@ivm@@@std@@@std@@U_Iterator_base0@2@@2@_K@Z 0000000180007a10 f i isolate.obj
 0001:00006a10       ?deallocate@?$_Wrap_alloc@V?$allocator@V?$unique_ptr@VExternalCopySharedArrayBuffer@ivm@@U?$default_delete@VExternalCopySharedArrayBuffer@ivm@@@std@@@std@@@std@@@std@@QEAAXPEAV?$unique_ptr@VExternalCopySharedArrayBuffer@ivm@@U?$default_delete@VExternalCopySharedArrayBuffer@ivm@@@std@@@2@_K@Z 0000000180007a10 f i external_copy.obj
 0001:00006a10       ?deallocate@?$_Wrap_alloc@U?$_Wrap_alloc@V?$allocator@V?$_List_unchecked_iterator@V?$_List_val@U?$_List_simple_types@U?$pair@QEAVIsolate@v8@@PEAVIsolateEnvironment@ivm@@@std@@@std@@@std@@@std@@@std@@@std@@@std@@QEAAXPEAV?$_List_unchecked_iterator@V?$_List_val@U?$_List_simple_types@U?$pair@QEAVIsolate@v8@@PEAVIsolateEnvironment@ivm@@@std@@@std@@@std@@@2@_K@Z 0000000180007a10 f i environment.obj
 0001:00006a10       ?deallocate@?$_Wrap_alloc@U?$_Wrap_alloc@V?$allocator@V?$_List_unchecked_const_iterator@V?$_List_val@U?$_List_simple_types@PEAVInspectorSession@ivm@@@std@@@std@@U_Iterator_base0@2@@std@@@std@@@std@@@std@@QEAAXPEAV?$_List_unchecked_const_iterator@V?$_List_val@U?$_List_simple_types@PEAVInspectorSession@ivm@@@std@@@std@@U_Iterator_base0@2@@2@_K@Z 0000000180007a10 f i inspector.obj
 0001:00006a10       ?deallocate@?$_Wrap_alloc@U?$_Wrap_alloc@V?$allocator@V?$_List_unchecked_iterator@V?$_List_val@U?$_List_simple_types@U?$pair@$$CBV?$basic_string@DU?$char_traits@D@std@@V?$allocator@D@2@@std@@V?$shared_ptr@UModuleInfo@ivm@@@2@@std@@@std@@@std@@@std@@@std@@@std@@@std@@QEAAXPEAV?$_List_unchecked_iterator@V?$_List_val@U?$_List_simple_types@U?$pair@$$CBV?$basic_string@DU?$char_traits@D@std@@V?$allocator@D@2@@std@@V?$shared_ptr@UModuleInfo@ivm@@@2@@std@@@std@@@std@@@2@_K@Z 0000000180007a10 f i module_handle.obj
 0001:00006a10       ?deallocate@?$_Wrap_alloc@U?$_Wrap_alloc@V?$allocator@V?$_List_unchecked_iterator@V?$_List_val@U?$_List_simple_types@U?$pair@QEAV?$Persistent@VObject@v8@@V?$NonCopyablePersistentTraits@VObject@v8@@@2@@v8@@U?$pair@P6AXPEAX@ZPEAX@std@@@std@@@std@@@std@@@std@@@std@@@std@@@std@@QEAAXPEAV?$_List_unchecked_iterator@V?$_List_val@U?$_List_simple_types@U?$pair@QEAV?$Persistent@VObject@v8@@V?$NonCopyablePersistentTraits@VObject@v8@@@2@@v8@@U?$pair@P6AXPEAX@ZPEAX@std@@@std@@@std@@@std@@@2@_K@Z 0000000180007a10 f i environment.obj
 0001:00006a10       ?deallocate@?$_Wrap_alloc@V?$allocator@V?$unique_ptr@VTransferable@ivm@@U?$default_delete@VTransferable@ivm@@@std@@@std@@@std@@@std@@QEAAXPEAV?$unique_ptr@VTransferable@ivm@@U?$default_delete@VTransferable@ivm@@@std@@@2@_K@Z 0000000180007a10 f i external_copy.obj
 0001:00006a10       ?deallocate@?$_Wrap_alloc@V?$allocator@V?$unique_ptr@V?$Eternal@VData@v8@@@v8@@U?$default_delete@V?$Eternal@VData@v8@@@v8@@@std@@@std@@@std@@@std@@QEAAXPEAV?$unique_ptr@V?$Eternal@VData@v8@@@v8@@U?$default_delete@V?$Eternal@VData@v8@@@v8@@@std@@@2@_K@Z 0000000180007a10 f i environment.obj
 0001:00006a10       ?deallocate@?$_Wrap_alloc@V?$allocator@V?$Local@VValue@v8@@@v8@@@std@@@std@@QEAAXPEAV?$Local@VValue@v8@@@v8@@_K@Z 0000000180007a10 f i external_copy_handle.obj
 0001:00006a10       ?deallocate@?$_Wrap_alloc@V?$allocator@V?$unique_ptr@VExternalCopyArrayBuffer@ivm@@U?$default_delete@VExternalCopyArrayBuffer@ivm@@@std@@@std@@@std@@@std@@QEAAXPEAV?$unique_ptr@VExternalCopyArrayBuffer@ivm@@U?$default_delete@VExternalCopyArrayBuffer@ivm@@@std@@@2@_K@Z 0000000180007a10 f i external_copy.obj
 0001:00006a10       ?deallocate@?$_Wrap_alloc@V?$allocator@PEAUtimer_data_t@timer_t@ivm@@@std@@@std@@QEAAXPEAPEAUtimer_data_t@timer_t@ivm@@_K@Z 0000000180007a10 f i isolate.obj
 0001:00006a80       ?_Growmap@?$deque@V?$unique_ptr@VRunnable@ivm@@U?$default_delete@VRunnable@ivm@@@std@@@std@@V?$allocator@V?$unique_ptr@VRunnable@ivm@@U?$default_delete@VRunnable@ivm@@@std@@@std@@@2@@std@@IEAAX_K@Z 0000000180007a80 f i environment.obj
 0001:00006cb0       ?begin@?$deque@V?$unique_ptr@VRunnable@ivm@@U?$default_delete@VRunnable@ivm@@@std@@@std@@V?$allocator@V?$unique_ptr@VRunnable@ivm@@U?$default_delete@VRunnable@ivm@@@std@@@std@@@2@@std@@QEAA?AV?$_Deque_iterator@V?$_Deque_val@U?$_Deque_simple_types@V?$unique_ptr@VRunnable@ivm@@U?$default_delete@VRunnable@ivm@@@std@@@std@@@std@@@std@@@2@XZ 0000000180007cb0 f i environment.obj
 0001:00006cb0       ?begin@?$deque@V?$shared_ptr@Utimer_data_t@timer_t@ivm@@@std@@V?$allocator@V?$shared_ptr@Utimer_data_t@timer_t@ivm@@@std@@@2@@std@@QEAA?AV?$_Deque_iterator@V?$_Deque_val@U?$_Deque_simple_types@V?$shared_ptr@Utimer_data_t@timer_t@ivm@@@std@@@std@@@std@@@2@XZ 0000000180007cb0 f i isolate.obj
 0001:00006cb0       ?begin@?$deque@V?$shared_ptr@Utimer_data_t@timer_t@ivm@@@std@@V?$allocator@V?$shared_ptr@Utimer_data_t@timer_t@ivm@@@std@@@2@@std@@QEBA?AV?$_Deque_const_iterator@V?$_Deque_val@U?$_Deque_simple_types@V?$shared_ptr@Utimer_data_t@timer_t@ivm@@@std@@@std@@@std@@@2@XZ 0000000180007cb0 f i isolate.obj
 0001:00006cd0       ?deallocate@?$_Wrap_alloc@V?$allocator@V?$shared_ptr@Utimer_data_t@timer_t@ivm@@@std@@@std@@@std@@QEAAXPEAV?$shared_ptr@Utimer_data_t@timer_t@ivm@@@2@_K@Z 0000000180007cd0 f i isolate.obj
 0001:00006cd0       ?deallocate@?$_Wrap_alloc@V?$allocator@Vthread@std@@@std@@@std@@QEAAXPEAVthread@2@_K@Z 0000000180007cd0 f i environment.obj
 0001:00006cd0       ?deallocate@?$_Wrap_alloc@V?$allocator@V?$shared_ptr@UModuleInfo@ivm@@@std@@@std@@@std@@QEAAXPEAV?$shared_ptr@UModuleInfo@ivm@@@2@_K@Z 0000000180007cd0 f i module_handle.obj
 0001:00006d40       ?_Reallocate@?$vector@Vthread@std@@V?$allocator@Vthread@std@@@2@@std@@IEAAX_K@Z 0000000180007d40 f i environment.obj
 0001:00006e40       ?deallocate@?$_Wrap_alloc@V?$allocator@Uthread_data_t@thread_pool_t@@@std@@@std@@QEAAXPEAUthread_data_t@thread_pool_t@@_K@Z 0000000180007e40 f i environment.obj
 0001:00006e40       ?deallocate@?$_Wrap_alloc@V?$allocator@V?$basic_string@DU?$char_traits@D@std@@V?$allocator@D@2@@std@@@std@@@std@@QEAAXPEAV?$basic_string@DU?$char_traits@D@std@@V?$allocator@D@2@@2@_K@Z 0000000180007e40 f i module_handle.obj
 0001:00006eb0       ?_Reallocate@?$vector@Uthread_data_t@thread_pool_t@@V?$allocator@Uthread_data_t@thread_pool_t@@@std@@@std@@IEAAX_K@Z 0000000180007eb0 f i environment.obj
 0001:00007020       ?erase@?$basic_string@DU?$char_traits@D@std@@V?$allocator@D@2@@std@@QEAAAEAV12@_K0@Z 0000000180008020 f i environment.obj
 0001:000070f0       ?_Copy@?$basic_string@DU?$char_traits@D@std@@V?$allocator@D@2@@std@@QEAAX_K0@Z 00000001800080f0 f i environment.obj
 0001:00007270       ?deallocate@?$allocator@D@std@@QEAAXPEAD_K@Z 0000000180008270 f i environment.obj
 0001:000072d0       ?_Reallocate@?$vector@V?$_List_unchecked_iterator@V?$_List_val@U?$_List_simple_types@U?$pair@QEAV?$Persistent@VObject@v8@@V?$NonCopyablePersistentTraits@VObject@v8@@@2@@v8@@U?$pair@P6AXPEAX@ZPEAX@std@@@std@@@std@@@std@@@std@@U?$_Wrap_alloc@V?$allocator@V?$_List_unchecked_iterator@V?$_List_val@U?$_List_simple_types@U?$pair@QEAV?$Persistent@VObject@v8@@V?$NonCopyablePersistentTraits@VObject@v8@@@2@@v8@@U?$pair@P6AXPEAX@ZPEAX@std@@@std@@@std@@@std@@@std@@@std@@@2@@std@@IEAAX_K@Z 00000001800082d0 f i environment.obj
 0001:000072d0       ?_Reallocate@?$vector@V?$_List_unchecked_iterator@V?$_List_val@U?$_List_simple_types@U?$pair@$$CBHPEAUModuleInfo@ivm@@@std@@@std@@@std@@@std@@U?$_Wrap_alloc@V?$allocator@V?$_List_unchecked_iterator@V?$_List_val@U?$_List_simple_types@U?$pair@$$CBHPEAUModuleInfo@ivm@@@std@@@std@@@std@@@std@@@std@@@2@@std@@IEAAX_K@Z 00000001800082d0 f i environment.obj
 0001:000072d0       ?_Reallocate@?$vector@V?$Local@VValue@v8@@@v8@@V?$allocator@V?$Local@VValue@v8@@@v8@@@std@@@std@@IEAAX_K@Z 00000001800082d0 f i external_copy_handle.obj
 0001:000072d0       ?_Reallocate@?$vector@V?$_List_unchecked_const_iterator@V?$_List_val@U?$_List_simple_types@PEAVInspectorSession@ivm@@@std@@@std@@U_Iterator_base0@2@@std@@U?$_Wrap_alloc@V?$allocator@V?$_List_unchecked_const_iterator@V?$_List_val@U?$_List_simple_types@PEAVInspectorSession@ivm@@@std@@@std@@U_Iterator_base0@2@@std@@@std@@@2@@std@@IEAAX_K@Z 00000001800082d0 f i inspector.obj
 0001:000072d0       ?_Reallocate@?$vector@V?$_List_unchecked_const_iterator@V?$_List_val@U?$_List_simple_types@PEAVtimer_thread_t@timer_t@ivm@@@std@@@std@@U_Iterator_base0@2@@std@@U?$_Wrap_alloc@V?$allocator@V?$_List_unchecked_const_iterator@V?$_List_val@U?$_List_simple_types@PEAVtimer_thread_t@timer_t@ivm@@@std@@@std@@U_Iterator_base0@2@@std@@@std@@@2@@std@@IEAAX_K@Z 00000001800082d0 f i isolate.obj
 0001:000072d0       ?_Reallocate@?$vector@V?$_List_unchecked_iterator@V?$_List_val@U?$_List_simple_types@U?$pair@$$CBV?$basic_string@DU?$char_traits@D@std@@V?$allocator@D@2@@std@@V?$shared_ptr@UModuleInfo@ivm@@@2@@std@@@std@@@std@@@std@@U?$_Wrap_alloc@V?$allocator@V?$_List_unchecked_iterator@V?$_List_val@U?$_List_simple_types@U?$pair@$$CBV?$basic_string@DU?$char_traits@D@std@@V?$allocator@D@2@@std@@V?$shared_ptr@UModuleInfo@ivm@@@2@@std@@@std@@@std@@@std@@@std@@@2@@std@@IEAAX_K@Z 00000001800082d0 f i module_handle.obj
 0001:000072d0       ?_Reallocate@?$vector@V?$_List_unchecked_iterator@V?$_List_val@U?$_List_simple_types@U?$pair@QEAVIsolate@v8@@PEAVIsolateEnvironment@ivm@@@std@@@std@@@std@@@std@@U?$_Wrap_alloc@V?$allocator@V?$_List_unchecked_iterator@V?$_List_val@U?$_List_simple_types@U?$pair@QEAVIsolate@v8@@PEAVIsolateEnvironment@ivm@@@std@@@std@@@std@@@std@@@std@@@2@@std@@IEAAX_K@Z 00000001800082d0 f i environment.obj
 0001:000073e0       ?allocate@?$_Wrap_alloc@U?$_Wrap_alloc@V?$allocator@V?$_List_unchecked_const_iterator@V?$_List_val@U?$_List_simple_types@PEAVInspectorSession@ivm@@@std@@@std@@U_Iterator_base0@2@@std@@@std@@@std@@@std@@QEAAPEAV?$_List_unchecked_const_iterator@V?$_List_val@U?$_List_simple_types@PEAVInspectorSession@ivm@@@std@@@std@@U_Iterator_base0@2@@2@_K@Z 00000001800083e0 f i inspector.obj
 0001:000073e0       ?allocate@?$_Wrap_alloc@U?$_Wrap_alloc@V?$allocator@V?$_List_unchecked_const_iterator@V?$_List_val@U?$_List_simple_types@PEAVtimer_thread_t@timer_t@ivm@@@std@@@std@@U_Iterator_base0@2@@std@@@std@@@std@@@std@@QEAAPEAV?$_List_unchecked_const_iterator@V?$_List_val@U?$_List_simple_types@PEAVtimer_thread_t@timer_t@ivm@@@std@@@std@@U_Iterator_base0@2@@2@_K@Z 00000001800083e0 f i isolate.obj
 0001:000073e0       ?allocate@?$_Wrap_alloc@U?$_Wrap_alloc@V?$allocator@V?$_List_unchecked_iterator@V?$_List_val@U?$_List_simple_types@U?$pair@QEAV?$Persistent@VObject@v8@@V?$NonCopyablePersistentTraits@VObject@v8@@@2@@v8@@U?$pair@P6AXPEAX@ZPEAX@std@@@std@@@std@@@std@@@std@@@std@@@std@@@std@@QEAAPEAV?$_List_unchecked_iterator@V?$_List_val@U?$_List_simple_types@U?$pair@QEAV?$Persistent@VObject@v8@@V?$NonCopyablePersistentTraits@VObject@v8@@@2@@v8@@U?$pair@P6AXPEAX@ZPEAX@std@@@std@@@std@@@std@@@2@_K@Z 00000001800083e0 f i environment.obj
 0001:000073e0       ?allocate@?$_Wrap_alloc@U?$_Wrap_alloc@V?$allocator@V?$_List_unchecked_iterator@V?$_List_val@U?$_List_simple_types@U?$pair@$$CBV?$basic_string@DU?$char_traits@D@std@@V?$allocator@D@2@@std@@V?$shared_ptr@UModuleInfo@ivm@@@2@@std@@@std@@@std@@@std@@@std@@@std@@@std@@QEAAPEAV?$_List_unchecked_iterator@V?$_List_val@U?$_List_simple_types@U?$pair@$$CBV?$basic_string@DU?$char_traits@D@std@@V?$allocator@D@2@@std@@V?$shared_ptr@UModuleInfo@ivm@@@2@@std@@@std@@@std@@@2@_K@Z 00000001800083e0 f i module_handle.obj
 0001:000073e0       ?allocate@?$_Wrap_alloc@U?$_Wrap_alloc@V?$allocator@V?$_List_unchecked_iterator@V?$_List_val@U?$_List_simple_types@U?$pair@QEAVIsolate@v8@@PEAVIsolateEnvironment@ivm@@@std@@@std@@@std@@@std@@@std@@@std@@@std@@QEAAPEAV?$_List_unchecked_iterator@V?$_List_val@U?$_List_simple_types@U?$pair@QEAVIsolate@v8@@PEAVIsolateEnvironment@ivm@@@std@@@std@@@std@@@2@_K@Z 00000001800083e0 f i environment.obj
 0001:000073e0       ?allocate@?$_Wrap_alloc@U?$_Wrap_alloc@V?$allocator@V?$_List_unchecked_iterator@V?$_List_val@U?$_List_simple_types@U?$pair@$$CBHPEAUModuleInfo@ivm@@@std@@@std@@@std@@@std@@@std@@@std@@@std@@QEAAPEAV?$_List_unchecked_iterator@V?$_List_val@U?$_List_simple_types@U?$pair@$$CBHPEAUModuleInfo@ivm@@@std@@@std@@@std@@@2@_K@Z 00000001800083e0 f i environment.obj
 0001:00007450       ?_Insert_n@?$vector@V?$_List_unchecked_const_iterator@V?$_List_val@U?$_List_simple_types@PEAVInspectorSession@ivm@@@std@@@std@@U_Iterator_base0@2@@std@@U?$_Wrap_alloc@V?$allocator@V?$_List_unchecked_const_iterator@V?$_List_val@U?$_List_simple_types@PEAVInspectorSession@ivm@@@std@@@std@@U_Iterator_base0@2@@std@@@std@@@2@@std@@IEAA?AV?$_Vector_iterator@V?$_Vector_val@U?$_Simple_types@V?$_List_unchecked_const_iterator@V?$_List_val@U?$_List_simple_types@PEAVInspectorSession@ivm@@@std@@@std@@U_Iterator_base0@2@@std@@@std@@@std@@@2@V?$_Vector_const_iterator@V?$_Vector_val@U?$_Simple_types@V?$_List_unchecked_const_iterator@V?$_List_val@U?$_List_simple_types@PEAVInspectorSession@ivm@@@std@@@std@@U_Iterator_base0@2@@std@@@std@@@std@@@2@_KAEBV?$_List_unchecked_const_iterator@V?$_List_val@U?$_List_simple_types@PEAVInspectorSession@ivm@@@std@@@std@@U_Iterator_base0@2@@2@@Z 0000000180008450 f i inspector.obj
 0001:00007450       ?_Insert_n@?$vector@V?$_List_unchecked_iterator@V?$_List_val@U?$_List_simple_types@U?$pair@$$CBHPEAUModuleInfo@ivm@@@std@@@std@@@std@@@std@@U?$_Wrap_alloc@V?$allocator@V?$_List_unchecked_iterator@V?$_List_val@U?$_List_simple_types@U?$pair@$$CBHPEAUModuleInfo@ivm@@@std@@@std@@@std@@@std@@@std@@@2@@std@@IEAA?AV?$_Vector_iterator@V?$_Vector_val@U?$_Simple_types@V?$_List_unchecked_iterator@V?$_List_val@U?$_List_simple_types@U?$pair@$$CBHPEAUModuleInfo@ivm@@@std@@@std@@@std@@@std@@@std@@@std@@@2@V?$_Vector_const_iterator@V?$_Vector_val@U?$_Simple_types@V?$_List_unchecked_iterator@V?$_List_val@U?$_List_simple_types@U?$pair@$$CBHPEAUModuleInfo@ivm@@@std@@@std@@@std@@@std@@@std@@@std@@@2@_KAEBV?$_List_unchecked_iterator@V?$_List_val@U?$_List_simple_types@U?$pair@$$CBHPEAUModuleInfo@ivm@@@std@@@std@@@std@@@2@@Z 0000000180008450 f i environment.obj
 0001:00007450       ?_Insert_n@?$vector@V?$_List_unchecked_iterator@V?$_List_val@U?$_List_simple_types@U?$pair@$$CBV?$basic_string@DU?$char_traits@D@std@@V?$allocator@D@2@@std@@V?$shared_ptr@UModuleInfo@ivm@@@2@@std@@@std@@@std@@@std@@U?$_Wrap_alloc@V?$allocator@V?$_List_unchecked_iterator@V?$_List_val@U?$_List_simple_types@U?$pair@$$CBV?$basic_string@DU?$char_traits@D@std@@V?$allocator@D@2@@std@@V?$shared_ptr@UModuleInfo@ivm@@@2@@std@@@std@@@std@@@std@@@std@@@2@@std@@IEAA?AV?$_Vector_iterator@V?$_Vector_val@U?$_Simple_types@V?$_List_unchecked_iterator@V?$_List_val@U?$_List_simple_types@U?$pair@$$CBV?$basic_string@DU?$char_traits@D@std@@V?$allocator@D@2@@std@@V?$shared_ptr@UModuleInfo@ivm@@@2@@std@@@std@@@std@@@std@@@std@@@std@@@2@V?$_Vector_const_iterator@V?$_Vector_val@U?$_Simple_types@V?$_List_unchecked_iterator@V?$_List_val@U?$_List_simple_types@U?$pair@$$CBV?$basic_string@DU?$char_traits@D@std@@V?$allocator@D@2@@std@@V?$shared_ptr@UModuleInfo@ivm@@@2@@std@@@std@@@std@@@std@@@std@@@std@@@2@_KAEBV?$_List_unchecked_iterator@V?$_List_val@U?$_List_simple_types@U?$pair@$$CBV?$basic_string@DU?$char_traits@D@std@@V?$allocator@D@2@@std@@V?$shared_ptr@UModuleInfo@ivm@@@2@@std@@@std@@@std@@@2@@Z 0000000180008450 f i module_handle.obj
 0001:00007450       ?_Insert_n@?$vector@V?$_List_unchecked_iterator@V?$_List_val@U?$_List_simple_types@U?$pair@QEAVIsolate@v8@@PEAVIsolateEnvironment@ivm@@@std@@@std@@@std@@@std@@U?$_Wrap_alloc@V?$allocator@V?$_List_unchecked_iterator@V?$_List_val@U?$_List_simple_types@U?$pair@QEAVIsolate@v8@@PEAVIsolateEnvironment@ivm@@@std@@@std@@@std@@@std@@@std@@@2@@std@@IEAA?AV?$_Vector_iterator@V?$_Vector_val@U?$_Simple_types@V?$_List_unchecked_iterator@V?$_List_val@U?$_List_simple_types@U?$pair@QEAVIsolate@v8@@PEAVIsolateEnvironment@ivm@@@std@@@std@@@std@@@std@@@std@@@std@@@2@V?$_Vector_const_iterator@V?$_Vector_val@U?$_Simple_types@V?$_List_unchecked_iterator@V?$_List_val@U?$_List_simple_types@U?$pair@QEAVIsolate@v8@@PEAVIsolateEnvironment@ivm@@@std@@@std@@@std@@@std@@@std@@@std@@@2@_KAEBV?$_List_unchecked_iterator@V?$_List_val@U?$_List_simple_types@U?$pair@QEAVIsolate@v8@@PEAVIsolateEnvironment@ivm@@@std@@@std@@@std@@@2@@Z 0000000180008450 f i environment.obj
 0001:00007450       ?_Insert_n@?$vector@V?$_List_unchecked_iterator@V?$_List_val@U?$_List_simple_types@U?$pair@QEAV?$Persistent@VObject@v8@@V?$NonCopyablePersistentTraits@VObject@v8@@@2@@v8@@U?$pair@P6AXPEAX@ZPEAX@std@@@std@@@std@@@std@@@std@@U?$_Wrap_alloc@V?$allocator@V?$_List_unchecked_iterator@V?$_List_val@U?$_List_simple_types@U?$pair@QEAV?$Persistent@VObject@v8@@V?$NonCopyablePersistentTraits@VObject@v8@@@2@@v8@@U?$pair@P6AXPEAX@ZPEAX@std@@@std@@@std@@@std@@@std@@@std@@@2@@std@@IEAA?AV?$_Vector_iterator@V?$_Vector_val@U?$_Simple_types@V?$_List_unchecked_iterator@V?$_List_val@U?$_List_simple_types@U?$pair@QEAV?$Persistent@VObject@v8@@V?$NonCopyablePersistentTraits@VObject@v8@@@2@@v8@@U?$pair@P6AXPEAX@ZPEAX@std@@@std@@@std@@@std@@@std@@@std@@@std@@@2@V?$_Vector_const_iterator@V?$_Vector_val@U?$_Simple_types@V?$_List_unchecked_iterator@V?$_List_val@U?$_List_simple_types@U?$pair@QEAV?$Persistent@VObject@v8@@V?$NonCopyablePersistentTraits@VObject@v8@@@2@@v8@@U?$pair@P6AXPEAX@ZPEAX@std@@@std@@@std@@@std@@@std@@@std@@@std@@@2@_KAEBV?$_List_unchecked_iterator@V?$_List_val@U?$_List_simple_types@U?$pair@QEAV?$Persistent@VObject@v8@@V?$NonCopyablePersistentTraits@VObject@v8@@@2@@v8@@U?$pair@P6AXPEAX@ZPEAX@std@@@std@@@std@@@std@@@2@@Z 0000000180008450 f i environment.obj
 0001:00007450       ?_Insert_n@?$vector@V?$_List_unchecked_const_iterator@V?$_List_val@U?$_List_simple_types@PEAVtimer_thread_t@timer_t@ivm@@@std@@@std@@U_Iterator_base0@2@@std@@U?$_Wrap_alloc@V?$allocator@V?$_List_unchecked_const_iterator@V?$_List_val@U?$_List_simple_types@PEAVtimer_thread_t@timer_t@ivm@@@std@@@std@@U_Iterator_base0@2@@std@@@std@@@2@@std@@IEAA?AV?$_Vector_iterator@V?$_Vector_val@U?$_Simple_types@V?$_List_unchecked_const_iterator@V?$_List_val@U?$_List_simple_types@PEAVtimer_thread_t@timer_t@ivm@@@std@@@std@@U_Iterator_base0@2@@std@@@std@@@std@@@2@V?$_Vector_const_iterator@V?$_Vector_val@U?$_Simple_types@V?$_List_unchecked_const_iterator@V?$_List_val@U?$_List_simple_types@PEAVtimer_thread_t@timer_t@ivm@@@std@@@std@@U_Iterator_base0@2@@std@@@std@@@std@@@2@_KAEBV?$_List_unchecked_const_iterator@V?$_List_val@U?$_List_simple_types@PEAVtimer_thread_t@timer_t@ivm@@@std@@@std@@U_Iterator_base0@2@@2@@Z 0000000180008450 f i isolate.obj
 0001:00007740       ?allocate@?$allocator@D@std@@QEAAPEAD_K@Z 0000000180008740 f i environment.obj
 0001:000077a0       ??$_Immortalize@V_Generic_error_category@std@@@std@@YAAEAV_Generic_error_category@0@XZ 00000001800087a0 f i environment.obj
 0001:00007820       ??$make_shared@Vmutex@std@@$$V@std@@YA?AV?$shared_ptr@Vmutex@std@@@0@XZ 0000000180008820 f i environment.obj
 0001:000078d0       ??$make_unique@Vcondition_variable@std@@$$V@std@@YA?AV?$unique_ptr@Vcondition_variable@std@@U?$default_delete@Vcondition_variable@std@@@2@@0@XZ 00000001800088d0 f i environment.obj
 0001:00007910       ??$InterruptEntry@$1?TakeInterrupts@Lock@Scheduler@IsolateEnvironment@ivm@@QEAA?AV?$queue@V?$unique_ptr@VRunnable@ivm@@U?$default_delete@VRunnable@ivm@@@std@@@std@@V?$deque@V?$unique_ptr@VRunnable@ivm@@U?$default_delete@VRunnable@ivm@@@std@@@std@@V?$allocator@V?$unique_ptr@VRunnable@ivm@@U?$default_delete@VRunnable@ivm@@@std@@@std@@@2@@2@@std@@XZ@IsolateEnvironment@ivm@@AEAAXXZ 0000000180008910 f i environment.obj
 0001:00007b30       ??$InterruptEntry@$1?TakeSyncInterrupts@Lock@Scheduler@IsolateEnvironment@ivm@@QEAA?AV?$queue@V?$unique_ptr@VRunnable@ivm@@U?$default_delete@VRunnable@ivm@@@std@@@std@@V?$deque@V?$unique_ptr@VRunnable@ivm@@U?$default_delete@VRunnable@ivm@@@std@@@std@@V?$allocator@V?$unique_ptr@VRunnable@ivm@@U?$default_delete@VRunnable@ivm@@@std@@@std@@@2@@2@@std@@XZ@IsolateEnvironment@ivm@@AEAAXXZ 0000000180008b30 f i environment.obj
 0001:00007d50       ??$wait@V?$unique_lock@Vmutex@std@@@std@@@condition_variable_any@std@@QEAAXAEAV?$unique_lock@Vmutex@std@@@1@@Z 0000000180008d50 f i environment.obj
 0001:00007e40       ??$make_shared@UBookkeepingStatics@IsolateEnvironment@ivm@@$$V@std@@YA?AV?$shared_ptr@UBookkeepingStatics@IsolateEnvironment@ivm@@@0@XZ 0000000180008e40 f i environment.obj
 0001:00007eb0       ??$make_unique@ULowMemoryTask@?7??GCEpilogueCallback@IsolateEnvironment@ivm@@CAXPEAVIsolate@v8@@W4GCType@6@W4GCCallbackFlags@6@@Z@AEAPEAV56@@std@@YA?AV?$unique_ptr@ULowMemoryTask@?7??GCEpilogueCallback@IsolateEnvironment@ivm@@CAXPEAVIsolate@v8@@W4GCType@6@W4GCCallbackFlags@6@@Z@U?$default_delete@ULowMemoryTask@?7??GCEpilogueCallback@IsolateEnvironment@ivm@@CAXPEAVIsolate@v8@@W4GCType@6@W4GCCallbackFlags@6@@Z@@std@@@0@AEAPEAVIsolate@v8@@@Z 0000000180008eb0 f i environment.obj
 0001:00007f00       ??$make_unique@VLimitedAllocator@ivm@@AEAVIsolateEnvironment@2@_K@std@@YA?AV?$unique_ptr@VLimitedAllocator@ivm@@U?$default_delete@VLimitedAllocator@ivm@@@std@@@0@AEAVIsolateEnvironment@ivm@@$$QEA_K@Z 0000000180008f00 f i environment.obj
 0001:00007f90       ??$make_unique@VInspectorAgent@ivm@@AEAVIsolateEnvironment@2@@std@@YA?AV?$unique_ptr@VInspectorAgent@ivm@@U?$default_delete@VInspectorAgent@ivm@@@std@@@0@AEAVIsolateEnvironment@ivm@@@Z 0000000180008f90 f i environment.obj
 0001:00007ff0       ??$?HDU?$char_traits@D@std@@V?$allocator@D@1@@std@@YA?AV?$basic_string@DU?$char_traits@D@std@@V?$allocator@D@2@@0@$$QEAV10@AEBV10@@Z 0000000180008ff0 f i environment.obj
 0001:00008040       ??$_Umove@PEAV?$_List_unchecked_iterator@V?$_List_val@U?$_List_simple_types@U?$pair@$$CBHPEAUModuleInfo@ivm@@@std@@@std@@@std@@@std@@@?$vector@V?$_List_unchecked_iterator@V?$_List_val@U?$_List_simple_types@U?$pair@$$CBHPEAUModuleInfo@ivm@@@std@@@std@@@std@@@std@@U?$_Wrap_alloc@V?$allocator@V?$_List_unchecked_iterator@V?$_List_val@U?$_List_simple_types@U?$pair@$$CBHPEAUModuleInfo@ivm@@@std@@@std@@@std@@@std@@@std@@@2@@std@@IEAAPEAV?$_List_unchecked_iterator@V?$_List_val@U?$_List_simple_types@U?$pair@$$CBHPEAUModuleInfo@ivm@@@std@@@std@@@std@@@1@PEAV21@00@Z 0000000180009040 f i environment.obj
 0001:00008040       ??$_Umove@PEAV?$_List_unchecked_iterator@V?$_List_val@U?$_List_simple_types@U?$pair@QEAVIsolate@v8@@PEAVIsolateEnvironment@ivm@@@std@@@std@@@std@@@std@@@?$vector@V?$_List_unchecked_iterator@V?$_List_val@U?$_List_simple_types@U?$pair@QEAVIsolate@v8@@PEAVIsolateEnvironment@ivm@@@std@@@std@@@std@@@std@@U?$_Wrap_alloc@V?$allocator@V?$_List_unchecked_iterator@V?$_List_val@U?$_List_simple_types@U?$pair@QEAVIsolate@v8@@PEAVIsolateEnvironment@ivm@@@std@@@std@@@std@@@std@@@std@@@2@@std@@IEAAPEAV?$_List_unchecked_iterator@V?$_List_val@U?$_List_simple_types@U?$pair@QEAVIsolate@v8@@PEAVIsolateEnvironment@ivm@@@std@@@std@@@std@@@1@PEAV21@00@Z 0000000180009040 f i environment.obj
 0001:00008040       ??$_Umove@PEAV?$_List_unchecked_const_iterator@V?$_List_val@U?$_List_simple_types@PEAVtimer_thread_t@timer_t@ivm@@@std@@@std@@U_Iterator_base0@2@@std@@@?$vector@V?$_List_unchecked_const_iterator@V?$_List_val@U?$_List_simple_types@PEAVtimer_thread_t@timer_t@ivm@@@std@@@std@@U_Iterator_base0@2@@std@@U?$_Wrap_alloc@V?$allocator@V?$_List_unchecked_const_iterator@V?$_List_val@U?$_List_simple_types@PEAVtimer_thread_t@timer_t@ivm@@@std@@@std@@U_Iterator_base0@2@@std@@@std@@@2@@std@@IEAAPEAV?$_List_unchecked_const_iterator@V?$_List_val@U?$_List_simple_types@PEAVtimer_thread_t@timer_t@ivm@@@std@@@std@@U_Iterator_base0@2@@1@PEAV21@00@Z 0000000180009040 f i isolate.obj
 0001:00008040       ??$_Umove@PEAV?$_List_unchecked_const_iterator@V?$_List_val@U?$_List_simple_types@PEAVInspectorSession@ivm@@@std@@@std@@U_Iterator_base0@2@@std@@@?$vector@V?$_List_unchecked_const_iterator@V?$_List_val@U?$_List_simple_types@PEAVInspectorSession@ivm@@@std@@@std@@U_Iterator_base0@2@@std@@U?$_Wrap_alloc@V?$allocator@V?$_List_unchecked_const_iterator@V?$_List_val@U?$_List_simple_types@PEAVInspectorSession@ivm@@@std@@@std@@U_Iterator_base0@2@@std@@@std@@@2@@std@@IEAAPEAV?$_List_unchecked_const_iterator@V?$_List_val@U?$_List_simple_types@PEAVInspectorSession@ivm@@@std@@@std@@U_Iterator_base0@2@@1@PEAV21@00@Z 0000000180009040 f i inspector.obj
 0001:00008040       ??$_Umove@PEAV?$_List_unchecked_iterator@V?$_List_val@U?$_List_simple_types@U?$pair@QEAV?$Persistent@VObject@v8@@V?$NonCopyablePersistentTraits@VObject@v8@@@2@@v8@@U?$pair@P6AXPEAX@ZPEAX@std@@@std@@@std@@@std@@@std@@@?$vector@V?$_List_unchecked_iterator@V?$_List_val@U?$_List_simple_types@U?$pair@QEAV?$Persistent@VObject@v8@@V?$NonCopyablePersistentTraits@VObject@v8@@@2@@v8@@U?$pair@P6AXPEAX@ZPEAX@std@@@std@@@std@@@std@@@std@@U?$_Wrap_alloc@V?$allocator@V?$_List_unchecked_iterator@V?$_List_val@U?$_List_simple_types@U?$pair@QEAV?$Persistent@VObject@v8@@V?$NonCopyablePersistentTraits@VObject@v8@@@2@@v8@@U?$pair@P6AXPEAX@ZPEAX@std@@@std@@@std@@@std@@@std@@@std@@@2@@std@@IEAAPEAV?$_List_unchecked_iterator@V?$_List_val@U?$_List_simple_types@U?$pair@QEAV?$Persistent@VObject@v8@@V?$NonCopyablePersistentTraits@VObject@v8@@@2@@v8@@U?$pair@P6AXPEAX@ZPEAX@std@@@std@@@std@@@std@@@1@PEAV21@00@Z 0000000180009040 f i environment.obj
 0001:00008040       ??$_Umove@PEAV?$_List_unchecked_iterator@V?$_List_val@U?$_List_simple_types@U?$pair@$$CBV?$basic_string@DU?$char_traits@D@std@@V?$allocator@D@2@@std@@V?$shared_ptr@UModuleInfo@ivm@@@2@@std@@@std@@@std@@@std@@@?$vector@V?$_List_unchecked_iterator@V?$_List_val@U?$_List_simple_types@U?$pair@$$CBV?$basic_string@DU?$char_traits@D@std@@V?$allocator@D@2@@std@@V?$shared_ptr@UModuleInfo@ivm@@@2@@std@@@std@@@std@@@std@@U?$_Wrap_alloc@V?$allocator@V?$_List_unchecked_iterator@V?$_List_val@U?$_List_simple_types@U?$pair@$$CBV?$basic_string@DU?$char_traits@D@std@@V?$allocator@D@2@@std@@V?$shared_ptr@UModuleInfo@ivm@@@2@@std@@@std@@@std@@@std@@@std@@@2@@std@@IEAAPEAV?$_List_unchecked_iterator@V?$_List_val@U?$_List_simple_types@U?$pair@$$CBV?$basic_string@DU?$char_traits@D@std@@V?$allocator@D@2@@std@@V?$shared_ptr@UModuleInfo@ivm@@@2@@std@@@std@@@std@@@1@PEAV21@00@Z 0000000180009040 f i module_handle.obj
 0001:00008080       ?_Delete_this@?$_Ref_count_obj@VIsolateEnvironment@ivm@@@std@@EEAAXXZ 0000000180009080 f i isolate.obj
 0001:00008080       ?_Delete_this@?$_Ref_count_obj@V?$RemoteHandle@VContext@v8@@@ivm@@@std@@EEAAXXZ 0000000180009080 f i reference_handle.obj
 0001:00008080       ?_Delete_this@?$_Ref_count_del@VExternalCopy@ivm@@U?$default_delete@VExternalCopy@ivm@@@std@@@std@@EEAAXXZ 0000000180009080 f i external_copy_handle.obj
 0001:00008080       ?_Delete_this@?$_Ref_count_obj@VSessionImpl@ivm@@@std@@EEAAXXZ 0000000180009080 f i session_handle.obj
 0001:00008080       ?_Delete_this@?$_Ref_count_obj@V?$RemoteHandle@VUnboundScript@v8@@@ivm@@@std@@EEAAXXZ 0000000180009080 f i isolate_handle.obj
 0001:00008080       ?_Delete_this@?$_Ref_count_obj@VNativeModule@NativeModuleHandle@ivm@@@std@@EEAAXXZ 0000000180009080 f i native_module_handle.obj
 0001:00008080       ?_Delete_this@?$_Ref_count_obj@Vmutex@std@@@std@@EEAAXXZ 0000000180009080 f i environment.obj
 0001:00008080       ?_Delete_this@?$_Ref_count_obj@VExternalCopyArrayBuffer@ivm@@@std@@EEAAXXZ 0000000180009080 f i isolate_handle.obj
 0001:00008080       ?_Delete_this@?$_Ref_count_obj@UBookkeepingStatics@IsolateEnvironment@ivm@@@std@@EEAAXXZ 0000000180009080 f i environment.obj
 0001:00008080       ?_Delete_this@?$_Ref_count_del@V?$RemoteHandle@VContext@v8@@@ivm@@UContextDeleter@?1??Phase2@CreateContextRunner@2@UEAAXXZ@@std@@EEAAXXZ 0000000180009080 f i isolate_handle.obj
 0001:00008080       ?_Delete_this@?$_Ref_count_obj@UModuleInfo@ivm@@@std@@EEAAXXZ 0000000180009080 f i isolate_handle.obj
 0001:00008080       ?_Delete_this@?$_Ref_count_obj@VIsolateHolder@ivm@@@std@@EEAAXXZ 0000000180009080 f i isolate.obj
 0001:00008080       ?_Delete_this@?$_Ref_count_obj@_N@std@@EEAAXXZ 0000000180009080 f i reference_handle.obj
 0001:00008080       ?_Delete_this@?$_Ref_count_obj@Utimer_data_t@timer_t@ivm@@@std@@EEAAXXZ 0000000180009080 f i isolate.obj
 0001:00008080       ?_Delete_this@?$_Ref_count_obj@V?$RemoteHandle@VValue@v8@@@ivm@@@std@@EEAAXXZ 0000000180009080 f i isolate_handle.obj
 0001:00008080       ?_Delete_this@?$_Ref_count_del@VV8InspectorSession@v8_inspector@@U?$default_delete@VV8InspectorSession@v8_inspector@@@std@@@std@@EEAAXXZ 0000000180009080 f i inspector.obj
 0001:00008080       ?_Delete_this@?$_Ref_count_obj@V?$vector@DV?$allocator@D@std@@@std@@@std@@EEAAXXZ 0000000180009080 f i external_copy.obj
 0001:00008080       ?_Delete_this@?$_Ref_count_del@XP6AXPEAX@Z@std@@EEAAXXZ 0000000180009080 f i external_copy.obj
 0001:00008080       ?_Delete_this@?$_Ref_count_obj@V?$RemoteHandle@VFunction@v8@@@ivm@@@std@@EEAAXXZ 0000000180009080 f i session_handle.obj
 0001:000080a0       ?_Destroy@?$_Ref_count_obj@UBookkeepingStatics@IsolateEnvironment@ivm@@@std@@EEAAXXZ 00000001800090a0 f i environment.obj
 0001:000080c0       ??1?$unique_ptr@V?$tuple@V?$_Binder@U_Unforced@std@@AEAP6AX_NPEAX@Z_NAEAPEAX@std@@@std@@U?$default_delete@V?$tuple@V?$_Binder@U_Unforced@std@@AEAP6AX_NPEAX@Z_NAEAPEAX@std@@@std@@@2@@std@@QEAA@XZ 00000001800090c0 f i environment.obj
 0001:000080e0       ??1?$unique_ptr@V?$tuple@V?$_Binder@U_Unforced@std@@P8timer_thread_t@timer_t@ivm@@EAAXXZQEAV345@@std@@@std@@U?$default_delete@V?$tuple@V?$_Binder@U_Unforced@std@@P8timer_thread_t@timer_t@ivm@@EAAXXZQEAV345@@std@@@std@@@2@@std@@QEAA@XZ 00000001800090e0 f i isolate.obj
 0001:000080e0       ??1?$unique_ptr@V?$tuple@V<lambda_b66495e3e3f10e7f01b01d6d2d75639e>@@@std@@U?$default_delete@V?$tuple@V<lambda_b66495e3e3f10e7f01b01d6d2d75639e>@@@std@@@2@@std@@QEAA@XZ 00000001800090e0 f i environment.obj
 0001:00008100       ?_Destroy@?$_Ref_count_obj@Vmutex@std@@@std@@EEAAXXZ 0000000180009100 f i environment.obj
 0001:00008110       ??0?$_Wrap_alloc@V?$allocator@Uthread_data_t@thread_pool_t@@@std@@@std@@QEAA@XZ 0000000180009110 f i environment.obj
 0001:00008110       ?setbuf@?$basic_streambuf@DU?$char_traits@D@std@@@std@@MEAAPEAV12@PEAD_J@Z 0000000180009110 f i stack_trace.obj
 0001:00008110       ??0?$_Wrap_alloc@V?$allocator@Vthread@std@@@std@@@std@@QEAA@XZ 0000000180009110 f i environment.obj
 0001:00008120       ?_Reset0@?$_Ptr_base@Utimer_data_t@timer_t@ivm@@@std@@QEAAXPEAUtimer_data_t@timer_t@ivm@@PEAV_Ref_count_base@2@@Z 0000000180009120 f i isolate.obj
 0001:00008120       ?_Reset0@?$_Ptr_base@V?$vector@DV?$allocator@D@std@@@std@@@std@@QEAAXPEAV?$vector@DV?$allocator@D@std@@@2@PEAV_Ref_count_base@2@@Z 0000000180009120 f i external_copy.obj
 0001:00008120       ?_Reset0@?$_Ptr_base@V?$RemoteHandle@VContext@v8@@@ivm@@@std@@QEAAXPEAV?$RemoteHandle@VContext@v8@@@ivm@@PEAV_Ref_count_base@2@@Z 0000000180009120 f i context_handle.obj
 0001:00008120       ?_Reset0@?$_Ptr_base@UModuleInfo@ivm@@@std@@QEAAXPEAUModuleInfo@ivm@@PEAV_Ref_count_base@2@@Z 0000000180009120 f i isolate_handle.obj
 0001:00008120       ?_Reset0@?$_Ptr_base@X@std@@QEAAXPEAXPEAV_Ref_count_base@2@@Z 0000000180009120 f i external_copy.obj
 0001:00008120       ?_Reset0@?$_Ptr_base@VIsolateEnvironment@ivm@@@std@@QEAAXPEAVIsolateEnvironment@ivm@@PEAV_Ref_count_base@2@@Z 0000000180009120 f i holder.obj
 0001:00008120       ?_Reset0@?$_Ptr_base@V?$RemoteHandle@VUnboundScript@v8@@@ivm@@@std@@QEAAXPEAV?$RemoteHandle@VUnboundScript@v8@@@ivm@@PEAV_Ref_count_base@2@@Z 0000000180009120 f i isolate_handle.obj
 0001:00008120       ?_Reset0@?$_Ptr_base@_N@std@@QEAAXPEA_NPEAV_Ref_count_base@2@@Z 0000000180009120 f i reference_handle.obj
 0001:00008120       ?_Reset0@?$_Ptr_base@VV8InspectorSession@v8_inspector@@@std@@QEAAXPEAVV8InspectorSession@v8_inspector@@PEAV_Ref_count_base@2@@Z 0000000180009120 f i inspector.obj
 0001:00008120       ?_Reset0@?$_Ptr_base@VSessionImpl@ivm@@@std@@QEAAXPEAVSessionImpl@ivm@@PEAV_Ref_count_base@2@@Z 0000000180009120 f i session_handle.obj
 0001:00008120       ?_Reset0@?$_Ptr_base@V?$RemoteHandle@VFunction@v8@@@ivm@@@std@@QEAAXPEAV?$RemoteHandle@VFunction@v8@@@ivm@@PEAV_Ref_count_base@2@@Z 0000000180009120 f i session_handle.obj
 0001:00008120       ?_Reset0@?$_Ptr_base@VIsolateHolder@ivm@@@std@@QEAAXPEAVIsolateHolder@ivm@@PEAV_Ref_count_base@2@@Z 0000000180009120 f i environment.obj
 0001:00008120       ?_Reset0@?$_Ptr_base@UBookkeepingStatics@IsolateEnvironment@ivm@@@std@@QEAAXPEAUBookkeepingStatics@IsolateEnvironment@ivm@@PEAV_Ref_count_base@2@@Z 0000000180009120 f i environment.obj
 0001:00008120       ?_Reset0@?$_Ptr_base@VExternalCopyArrayBuffer@ivm@@@std@@QEAAXPEAVExternalCopyArrayBuffer@ivm@@PEAV_Ref_count_base@2@@Z 0000000180009120 f i isolate_handle.obj
 0001:00008120       ?_Reset0@?$_Ptr_base@V?$RemoteHandle@VValue@v8@@@ivm@@@std@@QEAAXPEAV?$RemoteHandle@VValue@v8@@@ivm@@PEAV_Ref_count_base@2@@Z 0000000180009120 f i context_handle.obj
 0001:00008120       ?_Reset0@?$_Ptr_base@Vmutex@std@@@std@@QEAAXPEAVmutex@2@PEAV_Ref_count_base@2@@Z 0000000180009120 f i environment.obj
 0001:00008120       ?_Reset0@?$_Ptr_base@VNativeModule@NativeModuleHandle@ivm@@@std@@QEAAXPEAVNativeModule@NativeModuleHandle@ivm@@PEAV_Ref_count_base@2@@Z 0000000180009120 f i native_module_handle.obj
 0001:00008120       ?_Reset0@?$_Ptr_base@VExternalCopy@ivm@@@std@@QEAAXPEAVExternalCopy@ivm@@PEAV_Ref_count_base@2@@Z 0000000180009120 f i external_copy_handle.obj
 0001:000081b0       ??$make_unique@V?$tuple@V<lambda_b66495e3e3f10e7f01b01d6d2d75639e>@@@std@@V<lambda_b66495e3e3f10e7f01b01d6d2d75639e>@@@std@@YA?AV?$unique_ptr@V?$tuple@V<lambda_b66495e3e3f10e7f01b01d6d2d75639e>@@@std@@U?$default_delete@V?$tuple@V<lambda_b66495e3e3f10e7f01b01d6d2d75639e>@@@std@@@2@@0@$$QEAV<lambda_b66495e3e3f10e7f01b01d6d2d75639e>@@@Z 00000001800091b0 f i environment.obj
 0001:000081f0       ??$_Launch@V?$unique_ptr@V?$tuple@V<lambda_b66495e3e3f10e7f01b01d6d2d75639e>@@@std@@U?$default_delete@V?$tuple@V<lambda_b66495e3e3f10e7f01b01d6d2d75639e>@@@std@@@2@@std@@@std@@YAXPEAU_Thrd_imp_t@@$$QEAV?$unique_ptr@V?$tuple@V<lambda_b66495e3e3f10e7f01b01d6d2d75639e>@@@std@@U?$default_delete@V?$tuple@V<lambda_b66495e3e3f10e7f01b01d6d2d75639e>@@@std@@@2@@0@@Z 00000001800091f0 f i environment.obj
 0001:00008350       ??$make_unique@V?$tuple@V?$_Binder@U_Unforced@std@@AEAP6AX_NPEAX@Z_NAEAPEAX@std@@@std@@V?$_Binder@U_Unforced@std@@AEAP6AX_NPEAX@Z_NAEAPEAX@2@@std@@YA?AV?$unique_ptr@V?$tuple@V?$_Binder@U_Unforced@std@@AEAP6AX_NPEAX@Z_NAEAPEAX@std@@@std@@U?$default_delete@V?$tuple@V?$_Binder@U_Unforced@std@@AEAP6AX_NPEAX@Z_NAEAPEAX@std@@@std@@@2@@0@$$QEAV?$_Binder@U_Unforced@std@@AEAP6AX_NPEAX@Z_NAEAPEAX@0@@Z 0000000180009350 f i environment.obj
 0001:000083a0       ??$_Launch@V?$unique_ptr@V?$tuple@V?$_Binder@U_Unforced@std@@AEAP6AX_NPEAX@Z_NAEAPEAX@std@@@std@@U?$default_delete@V?$tuple@V?$_Binder@U_Unforced@std@@AEAP6AX_NPEAX@Z_NAEAPEAX@std@@@std@@@2@@std@@@std@@YAXPEAU_Thrd_imp_t@@$$QEAV?$unique_ptr@V?$tuple@V?$_Binder@U_Unforced@std@@AEAP6AX_NPEAX@Z_NAEAPEAX@std@@@std@@U?$default_delete@V?$tuple@V?$_Binder@U_Unforced@std@@AEAP6AX_NPEAX@Z_NAEAPEAX@std@@@std@@@2@@0@@Z 00000001800093a0 f i environment.obj
 0001:00008500       ??$?0$$V@?$_Ref_count_obj@UBookkeepingStatics@IsolateEnvironment@ivm@@@std@@QEAA@XZ 0000000180009500 f i environment.obj
 0001:00008580       ??_E?$_Ref_count_obj@Utimer_data_t@timer_t@ivm@@@std@@UEAAPEAXI@Z 0000000180009580 f i * CIL library *:* CIL module *
 0001:00008580       ??_G?$_Ref_count_obj@Vmutex@std@@@std@@UEAAPEAXI@Z 0000000180009580 f i environment.obj
 0001:00008580       ??_E?$_Ref_count_obj@Vmutex@std@@@std@@UEAAPEAXI@Z 0000000180009580 f i * CIL library *:* CIL module *
 0001:00008580       ??_G?$_Ref_count_obj@Utimer_data_t@timer_t@ivm@@@std@@UEAAPEAXI@Z 0000000180009580 f i isolate.obj
 0001:000085b0       ??1?$_LaunchPad@V?$unique_ptr@V?$tuple@V?$_Binder@U_Unforced@std@@P8timer_thread_t@timer_t@ivm@@EAAXXZQEAV345@@std@@@std@@U?$default_delete@V?$tuple@V?$_Binder@U_Unforced@std@@P8timer_thread_t@timer_t@ivm@@EAAXXZQEAV345@@std@@@std@@@2@@std@@@std@@QEAA@XZ 00000001800095b0 f i isolate.obj
 0001:000085b0       ??1?$_LaunchPad@V?$unique_ptr@V?$tuple@V<lambda_b66495e3e3f10e7f01b01d6d2d75639e>@@@std@@U?$default_delete@V?$tuple@V<lambda_b66495e3e3f10e7f01b01d6d2d75639e>@@@std@@@2@@std@@@std@@QEAA@XZ 00000001800095b0 f i environment.obj
 0001:00008620       ??1?$_LaunchPad@V?$unique_ptr@V?$tuple@V?$_Binder@U_Unforced@std@@AEAP6AX_NPEAX@Z_NAEAPEAX@std@@@std@@U?$default_delete@V?$tuple@V?$_Binder@U_Unforced@std@@AEAP6AX_NPEAX@Z_NAEAPEAX@std@@@std@@@2@@std@@@std@@QEAA@XZ 0000000180009620 f i environment.obj
 0001:00008690       ??_E?$_Ref_count_obj@UBookkeepingStatics@IsolateEnvironment@ivm@@@std@@UEAAPEAXI@Z 0000000180009690 f i * CIL library *:* CIL module *
 0001:00008690       ??_G?$_Ref_count_obj@UBookkeepingStatics@IsolateEnvironment@ivm@@@std@@UEAAPEAXI@Z 0000000180009690 f i environment.obj
 0001:000086c0       ?_Go@?$_LaunchPad@V?$unique_ptr@V?$tuple@V?$_Binder@U_Unforced@std@@AEAP6AX_NPEAX@Z_NAEAPEAX@std@@@std@@U?$default_delete@V?$tuple@V?$_Binder@U_Unforced@std@@AEAP6AX_NPEAX@Z_NAEAPEAX@std@@@std@@@2@@std@@@std@@UEAAXXZ 00000001800096c0 f i environment.obj
 0001:000086d0       ?_Go@?$_LaunchPad@V?$unique_ptr@V?$tuple@V<lambda_b66495e3e3f10e7f01b01d6d2d75639e>@@@std@@U?$default_delete@V?$tuple@V<lambda_b66495e3e3f10e7f01b01d6d2d75639e>@@@std@@@2@@std@@@std@@UEAAXXZ 00000001800096d0 f i environment.obj
 0001:000086e0       ?_Run@?$_LaunchPad@V?$unique_ptr@V?$tuple@V?$_Binder@U_Unforced@std@@AEAP6AX_NPEAX@Z_NAEAPEAX@std@@@std@@U?$default_delete@V?$tuple@V?$_Binder@U_Unforced@std@@AEAP6AX_NPEAX@Z_NAEAPEAX@std@@@std@@@2@@std@@@std@@CAXPEAV12@@Z 00000001800096e0 f i environment.obj
 0001:00008760       ?_Run@?$_LaunchPad@V?$unique_ptr@V?$tuple@V<lambda_b66495e3e3f10e7f01b01d6d2d75639e>@@@std@@U?$default_delete@V?$tuple@V<lambda_b66495e3e3f10e7f01b01d6d2d75639e>@@@std@@@2@@std@@@std@@CAXPEAV12@@Z 0000000180009760 f i environment.obj
 0001:000087e0       ??$_Insert@AEBQEAVInspectorSession@ivm@@V?$_List_unchecked_const_iterator@V?$_List_val@U?$_List_simple_types@PEAVInspectorSession@ivm@@@std@@@std@@U_Iterator_base0@2@@std@@@?$_Hash@V?$_Uset_traits@PEAVInspectorSession@ivm@@V?$_Uhash_compare@PEAVInspectorSession@ivm@@U?$hash@PEAVInspectorSession@ivm@@@std@@U?$equal_to@PEAVInspectorSession@ivm@@@4@@std@@V?$allocator@PEAVInspectorSession@ivm@@@4@$0A@@std@@@std@@IEAA?AU?$pair@V?$_List_const_iterator@V?$_List_val@U?$_List_simple_types@PEAVInspectorSession@ivm@@@std@@@std@@@std@@_N@1@AEBQEAVInspectorSession@ivm@@V?$_List_unchecked_const_iterator@V?$_List_val@U?$_List_simple_types@PEAVInspectorSession@ivm@@@std@@@std@@U_Iterator_base0@2@@1@@Z 00000001800097e0 f i inspector.obj
 0001:000087e0       ??$_Insert@AEBQEAVtimer_thread_t@timer_t@ivm@@V?$_List_unchecked_const_iterator@V?$_List_val@U?$_List_simple_types@PEAVtimer_thread_t@timer_t@ivm@@@std@@@std@@U_Iterator_base0@2@@std@@@?$_Hash@V?$_Uset_traits@PEAVtimer_thread_t@timer_t@ivm@@V?$_Uhash_compare@PEAVtimer_thread_t@timer_t@ivm@@U?$hash@PEAVtimer_thread_t@timer_t@ivm@@@std@@U?$equal_to@PEAVtimer_thread_t@timer_t@ivm@@@5@@std@@V?$allocator@PEAVtimer_thread_t@timer_t@ivm@@@5@$0A@@std@@@std@@IEAA?AU?$pair@V?$_List_const_iterator@V?$_List_val@U?$_List_simple_types@PEAVtimer_thread_t@timer_t@ivm@@@std@@@std@@@std@@_N@1@AEBQEAVtimer_thread_t@timer_t@ivm@@V?$_List_unchecked_const_iterator@V?$_List_val@U?$_List_simple_types@PEAVtimer_thread_t@timer_t@ivm@@@std@@@std@@U_Iterator_base0@2@@1@@Z 00000001800097e0 f i isolate.obj
 0001:000087e0       ??$_Insert@AEAU?$pair@QEAVIsolate@v8@@PEAVIsolateEnvironment@ivm@@@std@@V?$_List_unchecked_iterator@V?$_List_val@U?$_List_simple_types@U?$pair@QEAVIsolate@v8@@PEAVIsolateEnvironment@ivm@@@std@@@std@@@std@@@2@@?$_Hash@V?$_Umap_traits@PEAVIsolate@v8@@PEAVIsolateEnvironment@ivm@@V?$_Uhash_compare@PEAVIsolate@v8@@U?$hash@PEAVIsolate@v8@@@std@@U?$equal_to@PEAVIsolate@v8@@@4@@std@@V?$allocator@U?$pair@QEAVIsolate@v8@@PEAVIsolateEnvironment@ivm@@@std@@@6@$0A@@std@@@std@@IEAA?AU?$pair@V?$_List_iterator@V?$_List_val@U?$_List_simple_types@U?$pair@QEAVIsolate@v8@@PEAVIsolateEnvironment@ivm@@@std@@@std@@@std@@@std@@_N@1@AEAU?$pair@QEAVIsolate@v8@@PEAVIsolateEnvironment@ivm@@@1@V?$_List_unchecked_iterator@V?$_List_val@U?$_List_simple_types@U?$pair@QEAVIsolate@v8@@PEAVIsolateEnvironment@ivm@@@std@@@std@@@std@@@1@@Z 00000001800097e0 f i environment.obj
 0001:000087e0       ??$_Insert@AEAU?$pair@QEAV?$Persistent@VObject@v8@@V?$NonCopyablePersistentTraits@VObject@v8@@@2@@v8@@U?$pair@P6AXPEAX@ZPEAX@std@@@std@@V?$_List_unchecked_iterator@V?$_List_val@U?$_List_simple_types@U?$pair@QEAV?$Persistent@VObject@v8@@V?$NonCopyablePersistentTraits@VObject@v8@@@2@@v8@@U?$pair@P6AXPEAX@ZPEAX@std@@@std@@@std@@@std@@@2@@?$_Hash@V?$_Umap_traits@PEAV?$Persistent@VObject@v8@@V?$NonCopyablePersistentTraits@VObject@v8@@@2@@v8@@U?$pair@P6AXPEAX@ZPEAX@std@@V?$_Uhash_compare@PEAV?$Persistent@VObject@v8@@V?$NonCopyablePersistentTraits@VObject@v8@@@2@@v8@@U?$hash@PEAV?$Persistent@VObject@v8@@V?$NonCopyablePersistentTraits@VObject@v8@@@2@@v8@@@std@@U?$equal_to@PEAV?$Persistent@VObject@v8@@V?$NonCopyablePersistentTraits@VObject@v8@@@2@@v8@@@4@@4@V?$allocator@U?$pair@QEAV?$Persistent@VObject@v8@@V?$NonCopyablePersistentTraits@VObject@v8@@@2@@v8@@U?$pair@P6AXPEAX@ZPEAX@std@@@std@@@4@$0A@@std@@@std@@IEAA?AU?$pair@V?$_List_iterator@V?$_List_val@U?$_List_simple_types@U?$pair@QEAV?$Persistent@VObject@v8@@V?$NonCopyablePersistentTraits@VObject@v8@@@2@@v8@@U?$pair@P6AXPEAX@ZPEAX@std@@@std@@@std@@@std@@@std@@_N@1@AEAU?$pair@QEAV?$Persistent@VObject@v8@@V?$NonCopyablePersistentTraits@VObject@v8@@@2@@v8@@U?$pair@P6AXPEAX@ZPEAX@std@@@1@V?$_List_unchecked_iterator@V?$_List_val@U?$_List_simple_types@U?$pair@QEAV?$Persistent@VObject@v8@@V?$NonCopyablePersistentTraits@VObject@v8@@@2@@v8@@U?$pair@P6AXPEAX@ZPEAX@std@@@std@@@std@@@std@@@1@@Z 00000001800097e0 f i environment.obj
 0001:00008990       ?_Check_size@?$_Hash@V?$_Uset_traits@PEAVtimer_thread_t@timer_t@ivm@@V?$_Uhash_compare@PEAVtimer_thread_t@timer_t@ivm@@U?$hash@PEAVtimer_thread_t@timer_t@ivm@@@std@@U?$equal_to@PEAVtimer_thread_t@timer_t@ivm@@@5@@std@@V?$allocator@PEAVtimer_thread_t@timer_t@ivm@@@5@$0A@@std@@@std@@IEAAXXZ 0000000180009990 f i isolate.obj
 0001:00008990       ?_Check_size@?$_Hash@V?$_Uset_traits@PEAVInspectorSession@ivm@@V?$_Uhash_compare@PEAVInspectorSession@ivm@@U?$hash@PEAVInspectorSession@ivm@@@std@@U?$equal_to@PEAVInspectorSession@ivm@@@4@@std@@V?$allocator@PEAVInspectorSession@ivm@@@4@$0A@@std@@@std@@IEAAXXZ 0000000180009990 f i inspector.obj
 0001:00008990       ?_Check_size@?$_Hash@V?$_Umap_traits@PEAVIsolate@v8@@PEAVIsolateEnvironment@ivm@@V?$_Uhash_compare@PEAVIsolate@v8@@U?$hash@PEAVIsolate@v8@@@std@@U?$equal_to@PEAVIsolate@v8@@@4@@std@@V?$allocator@U?$pair@QEAVIsolate@v8@@PEAVIsolateEnvironment@ivm@@@std@@@6@$0A@@std@@@std@@IEAAXXZ 0000000180009990 f i environment.obj
 0001:00008990       ?_Check_size@?$_Hash@V?$_Umap_traits@PEAV?$Persistent@VObject@v8@@V?$NonCopyablePersistentTraits@VObject@v8@@@2@@v8@@U?$pair@P6AXPEAX@ZPEAX@std@@V?$_Uhash_compare@PEAV?$Persistent@VObject@v8@@V?$NonCopyablePersistentTraits@VObject@v8@@@2@@v8@@U?$hash@PEAV?$Persistent@VObject@v8@@V?$NonCopyablePersistentTraits@VObject@v8@@@2@@v8@@@std@@U?$equal_to@PEAV?$Persistent@VObject@v8@@V?$NonCopyablePersistentTraits@VObject@v8@@@2@@v8@@@4@@4@V?$allocator@U?$pair@QEAV?$Persistent@VObject@v8@@V?$NonCopyablePersistentTraits@VObject@v8@@@2@@v8@@U?$pair@P6AXPEAX@ZPEAX@std@@@std@@@4@$0A@@std@@@std@@IEAAXXZ 0000000180009990 f i environment.obj
 0001:00008a50       ??1?$unique_ptr@V?$Eternal@VData@v8@@@v8@@U?$default_delete@V?$Eternal@VData@v8@@@v8@@@std@@@std@@QEAA@XZ 0000000180009a50 f i environment.obj
 0001:00008a70       ?Dispose@IsolateHolder@ivm@@QEAAXXZ 0000000180009a70 f   holder.obj
 0001:00008c30       ?GetIsolate@IsolateHolder@ivm@@QEAA?AV?$shared_ptr@VIsolateEnvironment@ivm@@@std@@XZ 0000000180009c30 f   holder.obj
 0001:00008c50       ?ScheduleTask@IsolateHolder@ivm@@QEAAXV?$unique_ptr@VRunnable@ivm@@U?$default_delete@VRunnable@ivm@@@std@@@std@@_N11@Z 0000000180009c50 f   holder.obj
 0001:00008df0       ??$atomic_exchange@VIsolateEnvironment@ivm@@@std@@YA?AV?$shared_ptr@VIsolateEnvironment@ivm@@@0@PEAV10@V10@@Z 0000000180009df0 f i holder.obj
 0001:00008df0       ??$atomic_exchange@X@std@@YA?AV?$shared_ptr@X@0@PEAV10@V10@@Z 0000000180009df0 f i external_copy.obj
 0001:00008e80       ??$atomic_load@VIsolateEnvironment@ivm@@@std@@YA?AV?$shared_ptr@VIsolateEnvironment@ivm@@@0@PEBV10@@Z 0000000180009e80 f i holder.obj
 0001:00008e80       ??$atomic_load@X@std@@YA?AV?$shared_ptr@X@0@PEBV10@@Z 0000000180009e80 f i external_copy.obj
 0001:00008ea0       ??$atomic_exchange_explicit@VIsolateEnvironment@ivm@@@std@@YA?AV?$shared_ptr@VIsolateEnvironment@ivm@@@0@PEAV10@V10@W4memory_order@0@@Z 0000000180009ea0 f i holder.obj
 0001:00008ea0       ??$atomic_exchange_explicit@X@std@@YA?AV?$shared_ptr@X@0@PEAV10@V10@W4memory_order@0@@Z 0000000180009ea0 f i external_copy.obj
 0001:00008f40       ??$atomic_load_explicit@VIsolateEnvironment@ivm@@@std@@YA?AV?$shared_ptr@VIsolateEnvironment@ivm@@@0@PEBV10@W4memory_order@0@@Z 0000000180009f40 f i holder.obj
 0001:00008f40       ??$atomic_load_explicit@X@std@@YA?AV?$shared_ptr@X@0@PEBV10@W4memory_order@0@@Z 0000000180009f40 f i external_copy.obj
 0001:00008f90       ??0InspectorAgent@ivm@@QEAA@AEAVIsolateEnvironment@1@@Z 0000000180009f90 f   inspector.obj
 0001:000091d0       ??_GInspectorAgent@ivm@@UEAAPEAXI@Z 000000018000a1d0 f i inspector.obj
 0001:000091d0       ??_EInspectorAgent@ivm@@UEAAPEAXI@Z 000000018000a1d0 f i * CIL library *:* CIL module *
 0001:00009210       ??1<unnamed-type-sessions>@InspectorAgent@ivm@@QEAA@XZ 000000018000a210 f i inspector.obj
 0001:00009230       ??1InspectorAgent@ivm@@UEAA@XZ 000000018000a230 f   inspector.obj
 0001:000093c0       ?runMessageLoopOnPause@InspectorAgent@ivm@@UEAAXH@Z 000000018000a3c0 f   inspector.obj
 0001:000098c0       ?quitMessageLoopOnPause@InspectorAgent@ivm@@UEAAXXZ 000000018000a8c0 f   inspector.obj
 0001:000098f0       ?ConnectSession@InspectorAgent@ivm@@AEAA?AV?$unique_ptr@VV8InspectorSession@v8_inspector@@U?$default_delete@VV8InspectorSession@v8_inspector@@@std@@@std@@AEAVInspectorSession@2@@Z 000000018000a8f0 f   inspector.obj
 0001:000099d0       ?SessionDisconnected@InspectorAgent@ivm@@AEAAXAEAVInspectorSession@2@@Z 000000018000a9d0 f   inspector.obj
 0001:00009a60       ?SendInterrupt@InspectorAgent@ivm@@AEAAXV?$unique_ptr@VRunnable@ivm@@U?$default_delete@VRunnable@ivm@@@std@@@std@@@Z 000000018000aa60 f   inspector.obj
 0001:00009c60       ?WaitForLoop@InspectorAgent@ivm@@QEAA_NXZ 000000018000ac60 f   inspector.obj
 0001:00009d00       ??0InspectorSession@ivm@@QEAA@AEAVIsolateEnvironment@1@@Z 000000018000ad00 f   inspector.obj
 0001:00009dc0       ??_EInspectorSession@ivm@@UEAAPEAXI@Z 000000018000adc0 f i * CIL library *:* CIL module *
 0001:00009dc0       ??_GInspectorSession@ivm@@UEAAPEAXI@Z 000000018000adc0 f i inspector.obj
 0001:00009e00       ??1InspectorSession@ivm@@UEAA@XZ 000000018000ae00 f   inspector.obj
 0001:00009e90       ?Disconnect@InspectorSession@ivm@@QEAAXXZ 000000018000ae90 f   inspector.obj
 0001:00009f40       ??_EDeleteSession@?4??Disconnect@InspectorSession@ivm@@QEAAXXZ@UEAAPEAXI@Z 000000018000af40 f i * CIL library *:* CIL module *
 0001:00009f40       ??_GNativeModuleTransferable@NativeModuleHandle@ivm@@UEAAPEAXI@Z 000000018000af40 f i native_module_handle.obj
 0001:00009f40       ??_EModuleHandleTransferable@ModuleHandle@ivm@@UEAAPEAXI@Z 000000018000af40 f i * CIL library *:* CIL module *
 0001:00009f40       ??_GModuleHandleTransferable@ModuleHandle@ivm@@UEAAPEAXI@Z 000000018000af40 f i module_handle.obj
 0001:00009f40       ??_GDeleteSession@?4??Disconnect@InspectorSession@ivm@@QEAAXXZ@UEAAPEAXI@Z 000000018000af40 f i inspector.obj
 0001:00009f40       ??_GExternalCopyTransferable@ExternalCopyHandle@ivm@@UEAAPEAXI@Z 000000018000af40 f i external_copy_handle.obj
 0001:00009f40       ??_EIsolateHandleTransferable@IsolateHandle@ivm@@UEAAPEAXI@Z 000000018000af40 f i * CIL library *:* CIL module *
 0001:00009f40       ??_GIsolateHandleTransferable@IsolateHandle@ivm@@UEAAPEAXI@Z 000000018000af40 f i isolate_handle.obj
 0001:00009f40       ??_ENativeModuleTransferable@NativeModuleHandle@ivm@@UEAAPEAXI@Z 000000018000af40 f i * CIL library *:* CIL module *
 0001:00009f40       ??_EExternalCopyTransferable@ExternalCopyHandle@ivm@@UEAAPEAXI@Z 000000018000af40 f i * CIL library *:* CIL module *
 0001:00009fd0       ?DispatchBackendProtocolMessage@InspectorSession@ivm@@QEAAXV?$vector@GV?$allocator@G@std@@@std@@@Z 000000018000afd0 f   inspector.obj
 0001:0000a210       ??_GDispatchMessageA@?1??DispatchBackendProtocolMessage@InspectorSession@ivm@@QEAAXV?$vector@GV?$allocator@G@std@@@std@@@Z@UEAAPEAXI@Z 000000018000b210 f i inspector.obj
 0001:0000a210       ??_EDispatchMessageA@?1??DispatchBackendProtocolMessage@InspectorSession@ivm@@QEAAXV?$vector@GV?$allocator@G@std@@@std@@@Z@UEAAPEAXI@Z 000000018000b210 f i * CIL library *:* CIL module *
 0001:0000a2a0       ?lock@?$weak_ptr@VV8InspectorSession@v8_inspector@@@std@@QEBA?AV?$shared_ptr@VV8InspectorSession@v8_inspector@@@2@XZ 000000018000b2a0 f i inspector.obj
 0001:0000a2a0       ?lock@?$weak_ptr@VIsolateHolder@ivm@@@std@@QEBA?AV?$shared_ptr@VIsolateHolder@ivm@@@2@XZ 000000018000b2a0 f i isolate_handle.obj
 0001:0000a300       ??1?$vector@GV?$allocator@G@std@@@std@@QEAA@XZ 000000018000b300 f i inspector.obj
 0001:0000a340       ?erase@?$_Hash@V?$_Uset_traits@PEAVInspectorSession@ivm@@V?$_Uhash_compare@PEAVInspectorSession@ivm@@U?$hash@PEAVInspectorSession@ivm@@@std@@U?$equal_to@PEAVInspectorSession@ivm@@@4@@std@@V?$allocator@PEAVInspectorSession@ivm@@@4@$0A@@std@@@std@@QEAA_KAEBQEAVInspectorSession@ivm@@@Z 000000018000b340 f i inspector.obj
 0001:0000a410       ??0?$unordered_set@PEAVInspectorSession@ivm@@U?$hash@PEAVInspectorSession@ivm@@@std@@U?$equal_to@PEAVInspectorSession@ivm@@@4@V?$allocator@PEAVInspectorSession@ivm@@@4@@std@@QEAA@XZ 000000018000b410 f i inspector.obj
 0001:0000a4a0       ?equal_range@?$_Hash@V?$_Uset_traits@PEAVInspectorSession@ivm@@V?$_Uhash_compare@PEAVInspectorSession@ivm@@U?$hash@PEAVInspectorSession@ivm@@@std@@U?$equal_to@PEAVInspectorSession@ivm@@@4@@std@@V?$allocator@PEAVInspectorSession@ivm@@@4@$0A@@std@@@std@@QEAA?AU?$pair@V?$_List_const_iterator@V?$_List_val@U?$_List_simple_types@PEAVInspectorSession@ivm@@@std@@@std@@@std@@V12@@2@AEBQEAVInspectorSession@ivm@@@Z 000000018000b4a0 f i inspector.obj
 0001:0000a5c0       ?deallocate@?$_Wrap_alloc@V?$allocator@G@std@@@std@@QEAAXPEAG_K@Z 000000018000b5c0 f i inspector.obj
 0001:0000a630       ??$make_unique@UAddDefaultContext@?1???0InspectorAgent@ivm@@QEAA@AEAVIsolateEnvironment@3@@Z@AEAV23@@std@@YA?AV?$unique_ptr@UAddDefaultContext@?1???0InspectorAgent@ivm@@QEAA@AEAVIsolateEnvironment@3@@Z@U?$default_delete@UAddDefaultContext@?1???0InspectorAgent@ivm@@QEAA@AEAVIsolateEnvironment@3@@Z@@std@@@0@AEAVInspectorAgent@ivm@@@Z 000000018000b630 f i inspector.obj
 0001:0000a680       ??$make_unique@UDeleteSession@?4??Disconnect@InspectorSession@ivm@@QEAAXXZ@V?$shared_ptr@VV8InspectorSession@v8_inspector@@@std@@@std@@YA?AV?$unique_ptr@UDeleteSession@?4??Disconnect@InspectorSession@ivm@@QEAAXXZ@U?$default_delete@UDeleteSession@?4??Disconnect@InspectorSession@ivm@@QEAAXXZ@@std@@@0@$$QEAV?$shared_ptr@VV8InspectorSession@v8_inspector@@@0@@Z 000000018000b680 f i inspector.obj
 0001:0000a6e0       ??$make_unique@UDispatchMessageA@?1??DispatchBackendProtocolMessage@InspectorSession@ivm@@QEAAXV?$vector@GV?$allocator@G@std@@@std@@@Z@V56@AEAV?$shared_ptr@VV8InspectorSession@v8_inspector@@@6@@std@@YA?AV?$unique_ptr@UDispatchMessageA@?1??DispatchBackendProtocolMessage@InspectorSession@ivm@@QEAAXV?$vector@GV?$allocator@G@std@@@std@@@Z@U?$default_delete@UDispatchMessageA@?1??DispatchBackendProtocolMessage@InspectorSession@ivm@@QEAAXV?$vector@GV?$allocator@G@std@@@std@@@Z@@6@@0@$$QEAV?$vector@GV?$allocator@G@std@@@0@AEAV?$shared_ptr@VV8InspectorSession@v8_inspector@@@0@@Z 000000018000b6e0 f i inspector.obj
 0001:0000a760       ??$_Insert@PEAVtimer_thread_t@timer_t@ivm@@U_Nil@std@@@?$_Hash@V?$_Uset_traits@PEAVtimer_thread_t@timer_t@ivm@@V?$_Uhash_compare@PEAVtimer_thread_t@timer_t@ivm@@U?$hash@PEAVtimer_thread_t@timer_t@ivm@@@std@@U?$equal_to@PEAVtimer_thread_t@timer_t@ivm@@@5@@std@@V?$allocator@PEAVtimer_thread_t@timer_t@ivm@@@5@$0A@@std@@@std@@IEAA?AU?$pair@V?$_List_const_iterator@V?$_List_val@U?$_List_simple_types@PEAVtimer_thread_t@timer_t@ivm@@@std@@@std@@@std@@_N@1@$$QEAPEAVtimer_thread_t@timer_t@ivm@@U_Nil@1@@Z 000000018000b760 f i isolate.obj
 0001:0000a760       ??$_Insert@PEAVInspectorSession@ivm@@U_Nil@std@@@?$_Hash@V?$_Uset_traits@PEAVInspectorSession@ivm@@V?$_Uhash_compare@PEAVInspectorSession@ivm@@U?$hash@PEAVInspectorSession@ivm@@@std@@U?$equal_to@PEAVInspectorSession@ivm@@@4@@std@@V?$allocator@PEAVInspectorSession@ivm@@@4@$0A@@std@@@std@@IEAA?AU?$pair@V?$_List_const_iterator@V?$_List_val@U?$_List_simple_types@PEAVInspectorSession@ivm@@@std@@@std@@@std@@_N@1@$$QEAPEAVInspectorSession@ivm@@U_Nil@1@@Z 000000018000b760 f i inspector.obj
 0001:0000a980       ?_Destroy@?$_Ref_count_del@VExternalCopy@ivm@@U?$default_delete@VExternalCopy@ivm@@@std@@@std@@EEAAXXZ 000000018000b980 f i external_copy_handle.obj
 0001:0000a980       ?_Destroy@?$_Ref_count_del@VV8InspectorSession@v8_inspector@@U?$default_delete@VV8InspectorSession@v8_inspector@@@std@@@std@@EEAAXXZ 000000018000b980 f i inspector.obj
 0001:0000a9a0       ?_Get_deleter@?$_Ref_count_del@VV8InspectorSession@v8_inspector@@U?$default_delete@VV8InspectorSession@v8_inspector@@@std@@@std@@UEBAPEAXAEBVtype_info@@@Z 000000018000b9a0 f i inspector.obj
 0001:0000a9d0       ??_G?$_Ref_count_del@VV8InspectorSession@v8_inspector@@U?$default_delete@VV8InspectorSession@v8_inspector@@@std@@@std@@UEAAPEAXI@Z 000000018000b9d0 f i inspector.obj
 0001:0000a9d0       ??_E?$_Ref_count_obj@_N@std@@UEAAPEAXI@Z 000000018000b9d0 f i * CIL library *:* CIL module *
 0001:0000a9d0       ??_G?$_Ref_count_del@VExternalCopy@ivm@@U?$default_delete@VExternalCopy@ivm@@@std@@@std@@UEAAPEAXI@Z 000000018000b9d0 f i external_copy_handle.obj
 0001:0000a9d0       ??_G?$_Ref_count_obj@_N@std@@UEAAPEAXI@Z 000000018000b9d0 f i reference_handle.obj
 0001:0000a9d0       ??_E?$_Ref_count_del@VV8InspectorSession@v8_inspector@@U?$default_delete@VV8InspectorSession@v8_inspector@@@std@@@std@@UEAAPEAXI@Z 000000018000b9d0 f i * CIL library *:* CIL module *
 0001:0000a9d0       ??_E?$_Ref_count_del@VExternalCopy@ivm@@U?$default_delete@VExternalCopy@ivm@@@std@@@std@@UEAAPEAXI@Z 000000018000b9d0 f i * CIL library *:* CIL module *
 0001:0000aa00       sprintf_s                  000000018000ba00 f i stack_trace.obj
 0001:0000aa60       ??1_Locinfo@std@@QEAA@XZ   000000018000ba60 f i stack_trace.obj
 0001:0000ab00       ??_E_Facet_base@std@@UEAAPEAXI@Z 000000018000bb00 f i * CIL library *:* CIL module *
 0001:0000ab00       ??_G_Facet_base@std@@UEAAPEAXI@Z 000000018000bb00 f i stack_trace.obj
 0001:0000ab30       ?_Incref@facet@locale@std@@UEAAXXZ 000000018000bb30 f i stack_trace.obj
 0001:0000ab40       ?_Decref@facet@locale@std@@UEAAPEAV_Facet_base@3@XZ 000000018000bb40 f i stack_trace.obj
 0001:0000ab50       ??1facet@locale@std@@MEAA@XZ 000000018000bb50 f i stack_trace.obj
 0001:0000ab60       ??1locale@std@@QEAA@XZ     000000018000bb60 f i stack_trace.obj
 0001:0000ab90       ?_Getcat@?$ctype@D@std@@SA_KPEAPEBVfacet@locale@2@PEBV42@@Z 000000018000bb90 f i stack_trace.obj
 0001:0000acf0       ?do_tolower@?$ctype@D@std@@MEBADD@Z 000000018000bcf0 f i stack_trace.obj
 0001:0000ad00       ?do_tolower@?$ctype@D@std@@MEBAPEBDPEADPEBD@Z 000000018000bd00 f i stack_trace.obj
 0001:0000ad60       ?do_toupper@?$ctype@D@std@@MEBADD@Z 000000018000bd60 f i stack_trace.obj
 0001:0000ad70       ?do_toupper@?$ctype@D@std@@MEBAPEBDPEADPEBD@Z 000000018000bd70 f i stack_trace.obj
 0001:0000add0       ?do_widen@?$ctype@D@std@@MEBADD@Z 000000018000bdd0 f i stack_trace.obj
 0001:0000add0       ?do_narrow@?$ctype@D@std@@MEBADDD@Z 000000018000bdd0 f i stack_trace.obj
 0001:0000ade0       ?do_widen@?$ctype@D@std@@MEBAPEBDPEBD0PEAD@Z 000000018000bde0 f i stack_trace.obj
 0001:0000ae00       ?do_narrow@?$ctype@D@std@@MEBAPEBDPEBD0DPEAD@Z 000000018000be00 f i stack_trace.obj
 0001:0000ae20       ??_E?$ctype@D@std@@MEAAPEAXI@Z 000000018000be20 f i * CIL library *:* CIL module *
 0001:0000ae20       ??_G?$ctype@D@std@@MEAAPEAXI@Z 000000018000be20 f i stack_trace.obj
 0001:0000ae90       ?name@_Iostream_error_category@std@@UEBAPEBDXZ 000000018000be90 f i stack_trace.obj
 0001:0000aea0       ?message@_Iostream_error_category@std@@UEBA?AV?$basic_string@DU?$char_traits@D@std@@V?$allocator@D@2@@2@H@Z 000000018000bea0 f i stack_trace.obj
 0001:0000aef0       ?clear@ios_base@std@@QEAAXH_N@Z 000000018000bef0 f i stack_trace.obj
 0001:0000b380       ?getloc@ios_base@std@@QEBA?AVlocale@2@XZ 000000018000c380 f i stack_trace.obj
 0001:0000b3b0       ?_Init@ios_base@std@@IEAAXXZ 000000018000c3b0 f i stack_trace.obj
 0001:0000b430       ??_Eios_base@std@@UEAAPEAXI@Z 000000018000c430 f i * CIL library *:* CIL module *
 0001:0000b430       ??_Gios_base@std@@UEAAPEAXI@Z 000000018000c430 f i stack_trace.obj
 0001:0000b470       ?v8_string@ivm@@YA?AV?$Local@VString@v8@@@v8@@PEBD@Z 000000018000c470 f i stack_trace.obj
 0001:0000b4f0       ?CalleeName@ivm@@YA?AV?$basic_string@DU?$char_traits@D@std@@V?$allocator@D@2@@std@@AEBV?$FunctionCallbackInfo@VValue@v8@@@v8@@@Z 000000018000c4f0 f i stack_trace.obj
 0001:0000b6f0       ??1?$StringValueWrapper@VUtf8Value@String@v8@@@ivm@@QEAA@XZ 000000018000c6f0 f i stack_trace.obj
 0001:0000b700       ?PrivateConstructorError@ivm@@YAXAEBV?$FunctionCallbackInfo@VValue@v8@@@v8@@@Z 000000018000c700 f i stack_trace.obj
 0001:0000b830       ??0?$js_error_ctor@$1?TypeError@Exception@v8@@SA?AV?$Local@VValue@v8@@@3@V?$Local@VString@v8@@@3@@Z@ivm@@QEAA@AEBV01@@Z 000000018000c830 f i stack_trace.obj
 0001:0000b8a0       ?WeakCallback@ClassHandle@ivm@@CAXPEAV12@@Z 000000018000c8a0 f i stack_trace.obj
 0001:0000b8f0       ?Wrap@ClassHandle@ivm@@CAXV?$unique_ptr@VClassHandle@ivm@@U?$default_delete@VClassHandle@ivm@@@std@@@std@@V?$Local@VObject@v8@@@v8@@@Z 000000018000c8f0 f i stack_trace.obj
 0001:0000b9e0       ?PrivateConstructor@ClassHandle@ivm@@CAXAEBV?$FunctionCallbackInfo@VValue@v8@@@v8@@@Z 000000018000c9e0 f i stack_trace.obj
 0001:0000b9f0       ??1ClassHandle@ivm@@UEAA@XZ 000000018000c9f0 f i stack_trace.obj
 0001:0000ba40       ??_GLibraryHandle@ivm@@UEAAPEAXI@Z 000000018000ca40 f i isolate.obj
 0001:0000ba40       ??_GLibHandle@ivm@@UEAAPEAXI@Z 000000018000ca40 f i isolate.obj
 0001:0000ba40       ??_EClassHandle@ivm@@UEAAPEAXI@Z 000000018000ca40 f i * CIL library *:* CIL module *
 0001:0000ba40       ??_GClassHandle@ivm@@UEAAPEAXI@Z 000000018000ca40 f i stack_trace.obj
 0001:0000ba40       ??_ELibraryHandle@ivm@@UEAAPEAXI@Z 000000018000ca40 f i * CIL library *:* CIL module *
 0001:0000ba40       ??_ELibHandle@ivm@@UEAAPEAXI@Z 000000018000ca40 f i * CIL library *:* CIL module *
 0001:0000bab0       ?GetPrivateStackSymbol@ivm@@YA?AV?$Local@VPrivate@v8@@@v8@@XZ 000000018000cab0 f   stack_trace.obj
 0001:0000bbb0       ?RenderErrorStack@ivm@@YA?AV?$Local@VString@v8@@@v8@@V?$Local@VValue@v8@@@3@@Z 000000018000cbb0 f   stack_trace.obj
 0001:0000bf40       ?ErrorStackGetter@ivm@@YAXV?$Local@VName@v8@@@v8@@AEBV?$PropertyCallbackInfo@VValue@v8@@@3@@Z 000000018000cf40 f   stack_trace.obj
 0001:0000c190       ?AttachStackGetter@ivm@@YAXV?$Local@VObject@v8@@@v8@@V?$Local@VValue@v8@@@3@@Z 000000018000d190 f   stack_trace.obj
 0001:0000c2e0       ??_GStackTraceHolder@ivm@@UEAAPEAXI@Z 000000018000d2e0 f i stack_trace.obj
 0001:0000c2e0       ??_EStackTraceHolder@ivm@@UEAAPEAXI@Z 000000018000d2e0 f i * CIL library *:* CIL module *
 0001:0000c370       ?ChainStack@StackTraceHolder@ivm@@SAXV?$Local@VObject@v8@@@v8@@V?$Local@VStackTrace@v8@@@4@@Z 000000018000d370 f   stack_trace.obj
 0001:0000c630       ?RenderSingleStack@StackTraceHolder@ivm@@SA?AV?$basic_string@DU?$char_traits@D@std@@V?$allocator@D@2@@std@@V?$Local@VStackTrace@v8@@@v8@@@Z 000000018000d630 f   stack_trace.obj
 0001:0000c8f0       ??_D?$basic_stringstream@DU?$char_traits@D@std@@V?$allocator@D@2@@std@@QEAAXXZ 000000018000d8f0 f i stack_trace.obj
 0001:0000c920       ?AppendFileLocation@StackTraceHolder@ivm@@CAXPEAVIsolate@v8@@V?$Local@VStackFrame@v8@@@4@AEAV?$basic_stringstream@DU?$char_traits@D@std@@V?$allocator@D@2@@std@@@Z 000000018000d920 f   stack_trace.obj
 0001:0000ca20       ?Set@?$IsolateSpecific@VPrivate@v8@@@IsolateEnvironment@ivm@@QEAAXV?$Local@VPrivate@v8@@@v8@@@Z 000000018000da20 f i stack_trace.obj
 0001:0000cbb0       ?ConstructError@?$js_error_ctor@$1?TypeError@Exception@v8@@SA?AV?$Local@VValue@v8@@@3@V?$Local@VString@v8@@@3@@Z@ivm@@UEBA?AV?$Local@VValue@v8@@@v8@@XZ 000000018000dbb0 f i stack_trace.obj
 0001:0000cda0       ??0?$js_error_ctor@$1?TypeError@Exception@v8@@SA?AV?$Local@VValue@v8@@@3@V?$Local@VString@v8@@@3@@Z@ivm@@QEAA@V?$basic_string@DU?$char_traits@D@std@@V?$allocator@D@2@@std@@@Z 000000018000dda0 f i stack_trace.obj
 0001:0000ce20       ??1?$_Yarn@D@std@@QEAA@XZ  000000018000de20 f i stack_trace.obj
 0001:0000ce20       ??1?$_Yarn@_W@std@@QEAA@XZ 000000018000de20 f i stack_trace.obj
 0001:0000ce50       ?str@?$basic_stringstream@DU?$char_traits@D@std@@V?$allocator@D@2@@std@@QEBA?AV?$basic_string@DU?$char_traits@D@std@@V?$allocator@D@2@@2@XZ 000000018000de50 f i stack_trace.obj
 0001:0000ce80       ??1?$basic_stringstream@DU?$char_traits@D@std@@V?$allocator@D@2@@std@@UEAA@XZ 000000018000de80 f i stack_trace.obj
 0001:0000cfb0       ??0?$basic_stringstream@DU?$char_traits@D@std@@V?$allocator@D@2@@std@@QEAA@H@Z 000000018000dfb0 f i stack_trace.obj
 0001:0000d070       ?seekpos@?$basic_stringbuf@DU?$char_traits@D@std@@V?$allocator@D@2@@std@@MEAA?AV?$fpos@U_Mbstatet@@@2@V32@H@Z 000000018000e070 f i stack_trace.obj
 0001:0000d180       ?seekoff@?$basic_stringbuf@DU?$char_traits@D@std@@V?$allocator@D@2@@std@@MEAA?AV?$fpos@U_Mbstatet@@@2@_JHH@Z 000000018000e180 f i stack_trace.obj
 0001:0000d310       ?underflow@?$basic_stringbuf@DU?$char_traits@D@std@@V?$allocator@D@2@@std@@MEAAHXZ 000000018000e310 f i stack_trace.obj
 0001:0000d370       ?pbackfail@?$basic_stringbuf@DU?$char_traits@D@std@@V?$allocator@D@2@@std@@MEAAHH@Z 000000018000e370 f i stack_trace.obj
 0001:0000d3c0       ?overflow@?$basic_stringbuf@DU?$char_traits@D@std@@V?$allocator@D@2@@std@@MEAAHH@Z 000000018000e3c0 f i stack_trace.obj
 0001:0000d630       ??1?$basic_iostream@DU?$char_traits@D@std@@@std@@UEAA@XZ 000000018000e630 f i stack_trace.obj
 0001:0000d6b0       ??6?$basic_ostream@DU?$char_traits@D@std@@@std@@QEAAAEAV01@H@Z 000000018000e6b0 f i stack_trace.obj
 0001:0000d890       ??1?$basic_istream@DU?$char_traits@D@std@@@std@@UEAA@XZ 000000018000e890 f i stack_trace.obj
 0001:0000d8c0       ?seekpos@?$basic_streambuf@DU?$char_traits@D@std@@@std@@MEAA?AV?$fpos@U_Mbstatet@@@2@V32@H@Z 000000018000e8c0 f i stack_trace.obj
 0001:0000d8c0       ?seekoff@?$basic_streambuf@DU?$char_traits@D@std@@@std@@MEAA?AV?$fpos@U_Mbstatet@@@2@_JHH@Z 000000018000e8c0 f i stack_trace.obj
 0001:0000d8e0       ?xsputn@?$basic_streambuf@DU?$char_traits@D@std@@@std@@MEAA_JPEBD_J@Z 000000018000e8e0 f i stack_trace.obj
 0001:0000d9a0       ?xsgetn@?$basic_streambuf@DU?$char_traits@D@std@@@std@@MEAA_JPEAD_J@Z 000000018000e9a0 f i stack_trace.obj
 0001:0000daa0       ?uflow@?$basic_streambuf@DU?$char_traits@D@std@@@std@@MEAAHXZ 000000018000eaa0 f i stack_trace.obj
 0001:0000dae0       ?underflow@?$basic_streambuf@DU?$char_traits@D@std@@@std@@MEAAHXZ 000000018000eae0 f i stack_trace.obj
 0001:0000dae0       ?pbackfail@?$basic_streambuf@DU?$char_traits@D@std@@@std@@MEAAHH@Z 000000018000eae0 f i stack_trace.obj
 0001:0000dae0       ?overflow@?$basic_streambuf@DU?$char_traits@D@std@@@std@@MEAAHH@Z 000000018000eae0 f i stack_trace.obj
 0001:0000dae0       ?GetVirtualProcessorId@ExternalContextBase@details@Concurrency@@UEBAIXZ 000000018000eae0 f i libconcrt:ExternalContextBase.obj
 0001:0000daf0       ??1?$basic_streambuf@DU?$char_traits@D@std@@@std@@UEAA@XZ 000000018000eaf0 f i stack_trace.obj
 0001:0000db50       ??1?$basic_ios@DU?$char_traits@D@std@@@std@@UEAA@XZ 000000018000eb50 f i stack_trace.obj
 0001:0000db60       ??_E?$basic_stringstream@DU?$char_traits@D@std@@V?$allocator@D@2@@std@@UEAAPEAXI@Z 000000018000eb60 f i * CIL library *:* CIL module *
 0001:0000db60       ??_G?$basic_stringstream@DU?$char_traits@D@std@@V?$allocator@D@2@@std@@UEAAPEAXI@Z 000000018000eb60 f i stack_trace.obj
 0001:0000dbb0       ??_E?$basic_stringbuf@DU?$char_traits@D@std@@V?$allocator@D@2@@std@@UEAAPEAXI@Z 000000018000ebb0 f i * CIL library *:* CIL module *
 0001:0000dbb0       ??_G?$basic_stringbuf@DU?$char_traits@D@std@@V?$allocator@D@2@@std@@UEAAPEAXI@Z 000000018000ebb0 f i stack_trace.obj
 0001:0000dc40       ??_G?$basic_iostream@DU?$char_traits@D@std@@@std@@UEAAPEAXI@Z 000000018000ec40 f i stack_trace.obj
 0001:0000dc40       ??_E?$basic_iostream@DU?$char_traits@D@std@@@std@@UEAAPEAXI@Z 000000018000ec40 f i * CIL library *:* CIL module *
 0001:0000dc80       ??_E?$basic_ostream@DU?$char_traits@D@std@@@std@@UEAAPEAXI@Z 000000018000ec80 f i * CIL library *:* CIL module *
 0001:0000dc80       ??_G?$basic_ostream@DU?$char_traits@D@std@@@std@@UEAAPEAXI@Z 000000018000ec80 f i stack_trace.obj
 0001:0000dcf0       ??_E?$basic_istream@DU?$char_traits@D@std@@@std@@UEAAPEAXI@Z 000000018000ecf0 f i * CIL library *:* CIL module *
 0001:0000dcf0       ??_G?$basic_istream@DU?$char_traits@D@std@@@std@@UEAAPEAXI@Z 000000018000ecf0 f i stack_trace.obj
 0001:0000dd60       ??_E?$basic_streambuf@DU?$char_traits@D@std@@@std@@UEAAPEAXI@Z 000000018000ed60 f i * CIL library *:* CIL module *
 0001:0000dd60       ??_G?$basic_streambuf@DU?$char_traits@D@std@@@std@@UEAAPEAXI@Z 000000018000ed60 f i stack_trace.obj
 0001:0000dde0       ??_Glocale@std@@QEAAPEAXI@Z 000000018000ede0 f i stack_trace.obj
 0001:0000de40       ??_E?$basic_ios@DU?$char_traits@D@std@@@std@@UEAAPEAXI@Z 000000018000ee40 f i * CIL library *:* CIL module *
 0001:0000de40       ??_G?$basic_ios@DU?$char_traits@D@std@@@std@@UEAAPEAXI@Z 000000018000ee40 f i stack_trace.obj
 0001:0000de80       ??_D?$basic_iostream@DU?$char_traits@D@std@@@std@@QEAAXXZ 000000018000ee80 f i stack_trace.obj
 0001:0000df10       ??1sentry@?$basic_ostream@DU?$char_traits@D@std@@@std@@QEAA@XZ 000000018000ef10 f i stack_trace.obj
 0001:0000dfb0       ??0sentry@?$basic_ostream@DU?$char_traits@D@std@@@std@@QEAA@AEAV12@@Z 000000018000efb0 f i stack_trace.obj
 0001:0000e040       ?do_put@?$num_put@DV?$ostreambuf_iterator@DU?$char_traits@D@std@@@std@@@std@@MEBA?AV?$ostreambuf_iterator@DU?$char_traits@D@std@@@2@V32@AEAVios_base@2@DPEBX@Z 000000018000f040 f i stack_trace.obj
 0001:0000e0e0       ?do_put@?$num_put@DV?$ostreambuf_iterator@DU?$char_traits@D@std@@@std@@@std@@MEBA?AV?$ostreambuf_iterator@DU?$char_traits@D@std@@@2@V32@AEAVios_base@2@DO@Z 000000018000f0e0 f i stack_trace.obj
 0001:0000e360       ?do_put@?$num_put@DV?$ostreambuf_iterator@DU?$char_traits@D@std@@@std@@@std@@MEBA?AV?$ostreambuf_iterator@DU?$char_traits@D@std@@@2@V32@AEAVios_base@2@DN@Z 000000018000f360 f i stack_trace.obj
 0001:0000e5d0       ?do_put@?$num_put@DV?$ostreambuf_iterator@DU?$char_traits@D@std@@@std@@@std@@MEBA?AV?$ostreambuf_iterator@DU?$char_traits@D@std@@@2@V32@AEAVios_base@2@D_K@Z 000000018000f5d0 f i stack_trace.obj
 0001:0000e6d0       ?do_put@?$num_put@DV?$ostreambuf_iterator@DU?$char_traits@D@std@@@std@@@std@@MEBA?AV?$ostreambuf_iterator@DU?$char_traits@D@std@@@2@V32@AEAVios_base@2@D_J@Z 000000018000f6d0 f i stack_trace.obj
 0001:0000e7d0       ?do_put@?$num_put@DV?$ostreambuf_iterator@DU?$char_traits@D@std@@@std@@@std@@MEBA?AV?$ostreambuf_iterator@DU?$char_traits@D@std@@@2@V32@AEAVios_base@2@DK@Z 000000018000f7d0 f i stack_trace.obj
 0001:0000e8d0       ?do_put@?$num_put@DV?$ostreambuf_iterator@DU?$char_traits@D@std@@@std@@@std@@MEBA?AV?$ostreambuf_iterator@DU?$char_traits@D@std@@@2@V32@AEAVios_base@2@DJ@Z 000000018000f8d0 f i stack_trace.obj
 0001:0000e9d0       ?do_put@?$num_put@DV?$ostreambuf_iterator@DU?$char_traits@D@std@@@std@@@std@@MEBA?AV?$ostreambuf_iterator@DU?$char_traits@D@std@@@2@V32@AEAVios_base@2@D_N@Z 000000018000f9d0 f i stack_trace.obj
 0001:0000ed90       ?assign@?$basic_string@DU?$char_traits@D@std@@V?$allocator@D@2@@std@@QEAAAEAV12@_KD@Z 000000018000fd90 f i stack_trace.obj
 0001:0000ee90       ?_Tidy@?$basic_stringbuf@DU?$char_traits@D@std@@V?$allocator@D@2@@std@@IEAAXXZ 000000018000fe90 f i stack_trace.obj
 0001:0000ef50       ?str@?$basic_stringbuf@DU?$char_traits@D@std@@V?$allocator@D@2@@std@@QEBA?AV?$basic_string@DU?$char_traits@D@std@@V?$allocator@D@2@@2@XZ 000000018000ff50 f i stack_trace.obj
 0001:0000f0e0       ??0?$basic_iostream@DU?$char_traits@D@std@@@std@@QEAA@PEAV?$basic_streambuf@DU?$char_traits@D@std@@@1@@Z 00000001800100e0 f i stack_trace.obj
 0001:0000f190       ?_Pnavail@?$basic_streambuf@DU?$char_traits@D@std@@@std@@IEBA_JXZ 0000000180010190 f i stack_trace.obj
 0001:0000f1b0       ?_Gnavail@?$basic_streambuf@DU?$char_traits@D@std@@@std@@IEBA_JXZ 00000001800101b0 f i stack_trace.obj
 0001:0000f1d0       ??_E?$num_put@DV?$ostreambuf_iterator@DU?$char_traits@D@std@@@std@@@std@@MEAAPEAXI@Z 00000001800101d0 f i * CIL library *:* CIL module *
 0001:0000f1d0       ??_G?$num_put@DV?$ostreambuf_iterator@DU?$char_traits@D@std@@@std@@@std@@MEAAPEAXI@Z 00000001800101d0 f i stack_trace.obj
 0001:0000f200       ?do_truename@?$numpunct@D@std@@MEBA?AV?$basic_string@DU?$char_traits@D@std@@V?$allocator@D@2@@2@XZ 0000000180010200 f i stack_trace.obj
 0001:0000f250       ?do_falsename@?$numpunct@D@std@@MEBA?AV?$basic_string@DU?$char_traits@D@std@@V?$allocator@D@2@@2@XZ 0000000180010250 f i stack_trace.obj
 0001:0000f2a0       ?do_grouping@?$numpunct@D@std@@MEBA?AV?$basic_string@DU?$char_traits@D@std@@V?$allocator@D@2@@2@XZ 00000001800102a0 f i stack_trace.obj
 0001:0000f2f0       ?do_thousands_sep@?$numpunct@D@std@@MEBADXZ 00000001800102f0 f i stack_trace.obj
 0001:0000f300       ?do_decimal_point@?$numpunct@D@std@@MEBADXZ 0000000180010300 f i stack_trace.obj
 0001:0000f310       ?truename@?$numpunct@D@std@@QEBA?AV?$basic_string@DU?$char_traits@D@std@@V?$allocator@D@2@@2@XZ 0000000180010310 f i stack_trace.obj
 0001:0000f330       ?falsename@?$numpunct@D@std@@QEBA?AV?$basic_string@DU?$char_traits@D@std@@V?$allocator@D@2@@2@XZ 0000000180010330 f i stack_trace.obj
 0001:0000f350       ??1_Sentry_base@?$basic_ostream@DU?$char_traits@D@std@@@std@@QEAA@XZ 0000000180010350 f i stack_trace.obj
 0001:0000f390       ?_Iput@?$num_put@DV?$ostreambuf_iterator@DU?$char_traits@D@std@@@std@@@std@@AEBA?AV?$ostreambuf_iterator@DU?$char_traits@D@std@@@2@V32@AEAVios_base@2@DPEAD_K@Z 0000000180010390 f i stack_trace.obj
 0001:0000fa00       ?_Fput@?$num_put@DV?$ostreambuf_iterator@DU?$char_traits@D@std@@@std@@@std@@AEBA?AV?$ostreambuf_iterator@DU?$char_traits@D@std@@@2@V32@AEAVios_base@2@DPEBD_K@Z 0000000180010a00 f i stack_trace.obj
 0001:000101f0       ?_Reallocate@?$vector@V?$unique_ptr@V?$Eternal@VData@v8@@@v8@@U?$default_delete@V?$Eternal@VData@v8@@@v8@@@std@@@std@@V?$allocator@V?$unique_ptr@V?$Eternal@VData@v8@@@v8@@U?$default_delete@V?$Eternal@VData@v8@@@v8@@@std@@@std@@@2@@std@@IEAAX_K@Z 00000001800111f0 f i stack_trace.obj
 0001:00010320       ?append@?$basic_string@DU?$char_traits@D@std@@V?$allocator@D@2@@std@@QEAAAEAV12@_KD@Z 0000000180011320 f i stack_trace.obj
 0001:00010430       ??4?$basic_string@DU?$char_traits@D@std@@V?$allocator@D@2@@std@@QEAAAEAV01@$$QEAV01@@Z 0000000180011430 f i reference_handle.obj
 0001:00010430       ?assign@?$basic_string@DU?$char_traits@D@std@@V?$allocator@D@2@@std@@QEAAAEAV12@$$QEAV12@@Z 0000000180011430 f i stack_trace.obj
 0001:000104e0       ?flush@?$basic_ostream@DU?$char_traits@D@std@@@std@@QEAAAEAV12@XZ 00000001800114e0 f i stack_trace.obj
 0001:00010600       ??0?$basic_streambuf@DU?$char_traits@D@std@@@std@@IEAA@XZ 0000000180011600 f i stack_trace.obj
 0001:000106b0       ??_G?$numpunct@D@std@@MEAAPEAXI@Z 00000001800116b0 f i stack_trace.obj
 0001:000106b0       ??_E?$numpunct@D@std@@MEAAPEAXI@Z 00000001800116b0 f i * CIL library *:* CIL module *
 0001:00010710       ?grouping@?$numpunct@D@std@@QEBA?AV?$basic_string@DU?$char_traits@D@std@@V?$allocator@D@2@@2@XZ 0000000180011710 f i stack_trace.obj
 0001:00010730       ?insert@?$basic_string@DU?$char_traits@D@std@@V?$allocator@D@2@@std@@QEAAAEAV12@_K0D@Z 0000000180011730 f i stack_trace.obj
 0001:000108a0       ?init@?$basic_ios@DU?$char_traits@D@std@@@std@@IEAAXPEAV?$basic_streambuf@DU?$char_traits@D@std@@@2@_N@Z 00000001800118a0 f i stack_trace.obj
 0001:00010950       ??$use_facet@V?$ctype@D@std@@@std@@YAAEBV?$ctype@D@0@AEBVlocale@0@@Z 0000000180011950 f i stack_trace.obj
 0001:00010a80       ??$_Immortalize@V_Iostream_error_category@std@@@std@@YAAEAV_Iostream_error_category@0@XZ 0000000180011a80 f i stack_trace.obj
 0001:00010b00       ??$?HDU?$char_traits@D@std@@V?$allocator@D@1@@std@@YA?AV?$basic_string@DU?$char_traits@D@std@@V?$allocator@D@2@@0@$$QEAV10@PEBD@Z 0000000180011b00 f i stack_trace.obj
 0001:00010b70       ??$Unwrap@VStackTraceHolder@ivm@@@ClassHandle@ivm@@SAPEAVStackTraceHolder@1@V?$Local@VObject@v8@@@v8@@@Z 0000000180011b70 f i stack_trace.obj
 0001:00010c40       ??$RunCallback@V<lambda_ceb9c93de3c15c28291bc56080e78dc5>@@$$CBV?$PropertyCallbackInfo@VValue@v8@@@v8@@@FunctorRunners@ivm@@YAXAEBV?$PropertyCallbackInfo@VValue@v8@@@v8@@V<lambda_ceb9c93de3c15c28291bc56080e78dc5>@@@Z 0000000180011c40 f i stack_trace.obj
 0001:00010cb0       ??$Unmaybe@_N@ivm@@YA_NV?$Maybe@_N@v8@@@Z 0000000180011cb0 f i stack_trace.obj
 0001:00010cf0       ??$MakeClass@$$V@ClassHandle@ivm@@KA?AV?$Local@VFunctionTemplate@v8@@@v8@@PEBDUCtorFunction@01@@Z 0000000180011cf0 f i stack_trace.obj
 0001:00010e30       ??$NewInstance@VStackTraceHolder@ivm@@AEAV?$Local@VStackTrace@v8@@@v8@@@ClassHandle@ivm@@SA?AV?$Local@VObject@v8@@@v8@@AEAV?$Local@VStackTrace@v8@@@3@@Z 0000000180011e30 f i stack_trace.obj
 0001:00010f10       ??$?6U?$char_traits@D@std@@@std@@YAAEAV?$basic_ostream@DU?$char_traits@D@std@@@0@AEAV10@PEBD@Z 0000000180011f10 f i stack_trace.obj
 0001:000111a0       ??$make_unique@V?$Eternal@VData@v8@@@v8@@$$V@std@@YA?AV?$unique_ptr@V?$Eternal@VData@v8@@@v8@@U?$default_delete@V?$Eternal@VData@v8@@@v8@@@std@@@0@XZ 00000001800121a0 f i stack_trace.obj
 0001:000111e0       ??$make_unique@V?$Eternal@VData@v8@@@v8@@AEAPEAVIsolate@2@AEAV?$Local@VPrivate@v8@@@2@@std@@YA?AV?$unique_ptr@V?$Eternal@VData@v8@@@v8@@U?$default_delete@V?$Eternal@VData@v8@@@v8@@@std@@@0@AEAPEAVIsolate@v8@@AEAV?$Local@VPrivate@v8@@@3@@Z 00000001800121e0 f i stack_trace.obj
 0001:000111e0       ??$make_unique@V?$Eternal@VData@v8@@@v8@@AEAPEAVIsolate@2@AEAV?$Local@VFunctionTemplate@v8@@@2@@std@@YA?AV?$unique_ptr@V?$Eternal@VData@v8@@@v8@@U?$default_delete@V?$Eternal@VData@v8@@@v8@@@std@@@0@AEAPEAVIsolate@v8@@AEAV?$Local@VFunctionTemplate@v8@@@3@@Z 00000001800121e0 f i stack_trace.obj
 0001:00011260       ??$use_facet@V?$num_put@DV?$ostreambuf_iterator@DU?$char_traits@D@std@@@std@@@std@@@std@@YAAEBV?$num_put@DV?$ostreambuf_iterator@DU?$char_traits@D@std@@@std@@@0@AEBVlocale@0@@Z 0000000180012260 f i stack_trace.obj
 0001:00011390       ??$use_facet@V?$numpunct@D@std@@@std@@YAAEBV?$numpunct@D@0@AEBVlocale@0@@Z 0000000180012390 f i stack_trace.obj
 0001:000114c0       ?_Getcat@?$numpunct@D@std@@SA_KPEAPEBVfacet@locale@2@PEBV42@@Z 00000001800124c0 f i stack_trace.obj
 0001:00011600       ?_Getcat@?$num_put@DV?$ostreambuf_iterator@DU?$char_traits@D@std@@@std@@@std@@SA_KPEAPEBVfacet@locale@2@PEBV42@@Z 0000000180012600 f i stack_trace.obj
 0001:00011740       ?_Reserve@?$vector@V?$unique_ptr@V?$Eternal@VData@v8@@@v8@@U?$default_delete@V?$Eternal@VData@v8@@@v8@@@std@@@std@@V?$allocator@V?$unique_ptr@V?$Eternal@VData@v8@@@v8@@U?$default_delete@V?$Eternal@VData@v8@@@v8@@@std@@@std@@@2@@std@@IEAAX_K@Z 0000000180012740 f i stack_trace.obj
 0001:000117d0       ?_Init@?$numpunct@D@std@@IEAAXAEBV_Locinfo@2@_N@Z 00000001800127d0 f i stack_trace.obj
 0001:00011950       ??$WeakCallback@VClassHandle@ivm@@$1?012@CAXPEAV12@@Z@ClassHandle@ivm@@CAXAEBV?$WeakCallbackInfo@VClassHandle@ivm@@@v8@@@Z 0000000180012950 f i stack_trace.obj
 0001:000119a0       ??$GetFunctionTemplate@VStackTraceHolder@ivm@@@ClassHandle@ivm@@SA?AV?$Local@VFunctionTemplate@v8@@@v8@@XZ 00000001800129a0 f i stack_trace.obj
 0001:00011ac0       ??$make_unique@VStackTraceHolder@ivm@@AEAV?$Local@VStackTrace@v8@@@v8@@@std@@YA?AV?$unique_ptr@VStackTraceHolder@ivm@@U?$default_delete@VStackTraceHolder@ivm@@@std@@@0@AEAV?$Local@VStackTrace@v8@@@v8@@@Z 0000000180012ac0 f i stack_trace.obj
 0001:00011b50       ?Set@?$IsolateSpecific@VFunctionTemplate@v8@@@IsolateEnvironment@ivm@@QEAAXV?$Local@VFunctionTemplate@v8@@@v8@@@Z 0000000180012b50 f i stack_trace.obj
 0001:00011cd4       ??_E?$basic_ostream@DU?$char_traits@D@std@@@std@@$4PPPPPPPM@A@EAAPEAXI@Z 0000000180012cd4 f i stack_trace.obj
 0001:00011ce0       ??_E?$basic_stringstream@DU?$char_traits@D@std@@V?$allocator@D@2@@std@@$4PPPPPPPM@A@EAAPEAXI@Z 0000000180012ce0 f i stack_trace.obj
 0001:00011cec       ??_E?$basic_istream@DU?$char_traits@D@std@@@std@@$4PPPPPPPM@A@EAAPEAXI@Z 0000000180012cec f i stack_trace.obj
 0001:00011cf8       ??_E?$basic_iostream@DU?$char_traits@D@std@@@std@@$4PPPPPPPM@A@EAAPEAXI@Z 0000000180012cf8 f i stack_trace.obj
 0001:00011d10       ?GetCurrentHolder@IsolateEnvironment@ivm@@SA?AV?$shared_ptr@VIsolateHolder@ivm@@@std@@XZ 0000000180012d10 f i three_phase_task.obj
 0001:00011d70       ??0CalleeInfo@ThreePhaseTask@ivm@@QEAA@V?$Local@VResolver@Promise@v8@@@v8@@V?$Local@VContext@v8@@@4@V?$Local@VStackTrace@v8@@@4@@Z 0000000180012d70 f   three_phase_task.obj
 0001:00011ea0       ??_GPhase2Runner@ThreePhaseTask@ivm@@UEAAPEAXI@Z 0000000180012ea0 f i three_phase_task.obj
 0001:00011ea0       ??_EPhase2Runner@ThreePhaseTask@ivm@@UEAAPEAXI@Z 0000000180012ea0 f i * CIL library *:* CIL module *
 0001:00011ee0       ??1Phase2Runner@ThreePhaseTask@ivm@@UEAA@XZ 0000000180012ee0 f   three_phase_task.obj
 0001:000122e0       ??_EPhase3Success@?1??Run@Phase2Runner@ThreePhaseTask@ivm@@UEAAXXZ@UEAAPEAXI@Z 00000001800132e0 f i * CIL library *:* CIL module *
 0001:000122e0       ??_GPhase3Success@?1??Run@Phase2Runner@ThreePhaseTask@ivm@@UEAAXXZ@UEAAPEAXI@Z 00000001800132e0 f i three_phase_task.obj
 0001:000122e0       ??_GPhase3Orphan@?4???1Phase2Runner@ThreePhaseTask@ivm@@UEAA@XZ@UEAAPEAXI@Z 00000001800132e0 f i three_phase_task.obj
 0001:000122e0       ??_EPhase3Orphan@?4???1Phase2Runner@ThreePhaseTask@ivm@@UEAA@XZ@UEAAPEAXI@Z 00000001800132e0 f i * CIL library *:* CIL module *
 0001:00012330       ??1?$unique_ptr@VCallbackScope@node@@U?$default_delete@VCallbackScope@node@@@std@@@std@@QEAA@XZ 0000000180013330 f i three_phase_task.obj
 0001:00012330       ??1CallbackScope@ivm@@QEAA@XZ 0000000180013330 f i three_phase_task.obj
 0001:00012360       ?Run@Phase2Runner@ThreePhaseTask@ivm@@UEAAXXZ 0000000180013360 f   three_phase_task.obj
 0001:00012cf0       ??_GPhase3Failure@?1??Run@Phase2Runner@ThreePhaseTask@ivm@@UEAAXXZ@UEAAPEAXI@Z 0000000180013cf0 f i three_phase_task.obj
 0001:00012cf0       ??_EPhase3Failure@?1??Run@Phase2Runner@ThreePhaseTask@ivm@@UEAAXXZ@UEAAPEAXI@Z 0000000180013cf0 f i * CIL library *:* CIL module *
 0001:00012d50       ??_GPhase2RunnerIgnored@ThreePhaseTask@ivm@@UEAAPEAXI@Z 0000000180013d50 f i three_phase_task.obj
 0001:00012d50       ??_GTaskHolder@PlatformDelegate@ivm@@UEAAPEAXI@Z 0000000180013d50 f i isolate.obj
 0001:00012d50       ??_ETaskHolder@PlatformDelegate@ivm@@UEAAPEAXI@Z 0000000180013d50 f i * CIL library *:* CIL module *
 0001:00012d50       ??_EPhase2RunnerIgnored@ThreePhaseTask@ivm@@UEAAPEAXI@Z 0000000180013d50 f i * CIL library *:* CIL module *
 0001:00012da0       ?Run@Phase2RunnerIgnored@ThreePhaseTask@ivm@@UEAAXXZ 0000000180013da0 f   three_phase_task.obj
 0001:00012e10       ?RunSync@ThreePhaseTask@ivm@@AEAA?AV?$Local@VValue@v8@@@v8@@AEAVIsolateHolder@2@_N@Z 0000000180013e10 f   three_phase_task.obj
 0001:000137b0       ??_EAsyncRunner@?CB@??RunSync@ThreePhaseTask@ivm@@AEAA?AV?$Local@VValue@v8@@@v8@@AEAVIsolateHolder@3@_N@Z@UEAAPEAXI@Z 00000001800147b0 f i * CIL library *:* CIL module *
 0001:000137b0       ??_GAsyncRunner@?CB@??RunSync@ThreePhaseTask@ivm@@AEAA?AV?$Local@VValue@v8@@@v8@@AEAVIsolateHolder@3@_N@Z@UEAAPEAXI@Z 00000001800147b0 f i three_phase_task.obj
 0001:000137f0       ??1?$unique_ptr@UCalleeInfo@ThreePhaseTask@ivm@@U?$default_delete@UCalleeInfo@ThreePhaseTask@ivm@@@std@@@std@@QEAA@XZ 00000001800147f0 f i three_phase_task.obj
 0001:00013870       ??1?$RemoteTuple@VResolver@Promise@v8@@VContext@3@VStackTrace@3@@ivm@@QEAA@XZ 0000000180014870 f i three_phase_task.obj
 0001:00013950       ??0?$RemoteTuple@VResolver@Promise@v8@@VContext@3@VStackTrace@3@@ivm@@QEAA@V?$Local@VResolver@Promise@v8@@@v8@@V?$Local@VContext@v8@@@3@V?$Local@VStackTrace@v8@@@3@@Z 0000000180014950 f i three_phase_task.obj
 0001:00013a80       ?Run@DisposalTask@?$RemoteTuple@VResolver@Promise@v8@@VContext@3@VStackTrace@3@@ivm@@UEAAXXZ 0000000180014a80 f i three_phase_task.obj
 0001:00013b10       ??1?$unique_ptr@V?$Persistent@VStackTrace@v8@@V?$NonCopyablePersistentTraits@VStackTrace@v8@@@2@@v8@@U?$default_delete@V?$Persistent@VStackTrace@v8@@V?$NonCopyablePersistentTraits@VStackTrace@v8@@@2@@v8@@@std@@@std@@QEAA@XZ 0000000180014b10 f i three_phase_task.obj
 0001:00013b10       ??1?$unique_ptr@V?$Persistent@VFunction@v8@@V?$NonCopyablePersistentTraits@VFunction@v8@@@2@@v8@@U?$default_delete@V?$Persistent@VFunction@v8@@V?$NonCopyablePersistentTraits@VFunction@v8@@@2@@v8@@@std@@@std@@QEAA@XZ 0000000180014b10 f i module_handle.obj
 0001:00013b10       ??1?$unique_ptr@V?$Persistent@VContext@v8@@V?$NonCopyablePersistentTraits@VContext@v8@@@2@@v8@@U?$default_delete@V?$Persistent@VContext@v8@@V?$NonCopyablePersistentTraits@VContext@v8@@@2@@v8@@@std@@@std@@QEAA@XZ 0000000180014b10 f i three_phase_task.obj
 0001:00013b40       ??$make_unique@VCallbackScope@node@@PEAVIsolate@v8@@AEAV?$Local@VObject@v8@@@4@AEAUasync_context@2@@std@@YA?AV?$unique_ptr@VCallbackScope@node@@U?$default_delete@VCallbackScope@node@@@std@@@0@$$QEAPEAVIsolate@v8@@AEAV?$Local@VObject@v8@@@3@AEAUasync_context@node@@@Z 0000000180014b40 f i three_phase_task.obj
 0001:00013bc0       ??$make_unique@UPhase3Orphan@?4???1Phase2Runner@ThreePhaseTask@ivm@@UEAA@XZ@V?$unique_ptr@VThreePhaseTask@ivm@@U?$default_delete@VThreePhaseTask@ivm@@@std@@@std@@V?$unique_ptr@UCalleeInfo@ThreePhaseTask@ivm@@U?$default_delete@UCalleeInfo@ThreePhaseTask@ivm@@@std@@@6@@std@@YA?AV?$unique_ptr@UPhase3Orphan@?4???1Phase2Runner@ThreePhaseTask@ivm@@UEAA@XZ@U?$default_delete@UPhase3Orphan@?4???1Phase2Runner@ThreePhaseTask@ivm@@UEAA@XZ@@std@@@0@$$QEAV?$unique_ptr@VThreePhaseTask@ivm@@U?$default_delete@VThreePhaseTask@ivm@@@std@@@0@$$QEAV?$unique_ptr@UCalleeInfo@ThreePhaseTask@ivm@@U?$default_delete@UCalleeInfo@ThreePhaseTask@ivm@@@std@@@0@@Z 0000000180014bc0 f i three_phase_task.obj
 0001:00013c40       ??$RunCatchValue@V<lambda_8b0473e2c686c88193c37f6a0c8c5abd>@@V<lambda_f40128af00ba6b8e8680eaa10c03210e>@@@FunctorRunners@ivm@@YAXV<lambda_8b0473e2c686c88193c37f6a0c8c5abd>@@V<lambda_f40128af00ba6b8e8680eaa10c03210e>@@@Z 0000000180014c40 f i three_phase_task.obj
 0001:00013ca0       ??$make_unique@UPhase3Success@?1??Run@Phase2Runner@ThreePhaseTask@ivm@@UEAAXXZ@V?$unique_ptr@VThreePhaseTask@ivm@@U?$default_delete@VThreePhaseTask@ivm@@@std@@@std@@V?$unique_ptr@UCalleeInfo@ThreePhaseTask@ivm@@U?$default_delete@UCalleeInfo@ThreePhaseTask@ivm@@@std@@@7@@std@@YA?AV?$unique_ptr@UPhase3Success@?1??Run@Phase2Runner@ThreePhaseTask@ivm@@UEAAXXZ@U?$default_delete@UPhase3Success@?1??Run@Phase2Runner@ThreePhaseTask@ivm@@UEAAXXZ@@std@@@0@$$QEAV?$unique_ptr@VThreePhaseTask@ivm@@U?$default_delete@VThreePhaseTask@ivm@@@std@@@0@$$QEAV?$unique_ptr@UCalleeInfo@ThreePhaseTask@ivm@@U?$default_delete@UCalleeInfo@ThreePhaseTask@ivm@@@std@@@0@@Z 0000000180014ca0 f i three_phase_task.obj
 0001:00013d20       ??$make_unique@UPhase3Failure@?1??Run@Phase2Runner@ThreePhaseTask@ivm@@UEAAXXZ@V?$unique_ptr@VThreePhaseTask@ivm@@U?$default_delete@VThreePhaseTask@ivm@@@std@@@std@@V?$unique_ptr@UCalleeInfo@ThreePhaseTask@ivm@@U?$default_delete@UCalleeInfo@ThreePhaseTask@ivm@@@std@@@7@V?$unique_ptr@VExternalCopy@ivm@@U?$default_delete@VExternalCopy@ivm@@@std@@@7@@std@@YA?AV?$unique_ptr@UPhase3Failure@?1??Run@Phase2Runner@ThreePhaseTask@ivm@@UEAAXXZ@U?$default_delete@UPhase3Failure@?1??Run@Phase2Runner@ThreePhaseTask@ivm@@UEAAXXZ@@std@@@0@$$QEAV?$unique_ptr@VThreePhaseTask@ivm@@U?$default_delete@VThreePhaseTask@ivm@@@std@@@0@$$QEAV?$unique_ptr@UCalleeInfo@ThreePhaseTask@ivm@@U?$default_delete@UCalleeInfo@ThreePhaseTask@ivm@@@std@@@0@$$QEAV?$unique_ptr@VExternalCopy@ivm@@U?$default_delete@VExternalCopy@ivm@@@std@@@0@@Z 0000000180014d20 f i three_phase_task.obj
 0001:00013da0       ??$RunCatchExternal@V<lambda_b98bc568195e2f234e14ef3b04199443>@@V<lambda_77adb06030b83dfca493057fecedcaf1>@@@FunctorRunners@ivm@@YAXV?$Local@VContext@v8@@@v8@@V<lambda_b98bc568195e2f234e14ef3b04199443>@@V<lambda_77adb06030b83dfca493057fecedcaf1>@@@Z 0000000180014da0 f i three_phase_task.obj
 0001:00013e20       ??$RunCatchExternal@V<lambda_4a203573906eade5056f5e987c121f77>@@V<lambda_3272decab19269252656450aad7dee65>@@@FunctorRunners@ivm@@YAXV?$Local@VContext@v8@@@v8@@V<lambda_4a203573906eade5056f5e987c121f77>@@V<lambda_3272decab19269252656450aad7dee65>@@@Z 0000000180014e20 f i three_phase_task.obj
 0001:00013eb0       ??$make_unique@VExternalCopyError@ivm@@W4ErrorType@12@AEAY0BE@$$CBD@std@@YA?AV?$unique_ptr@VExternalCopyError@ivm@@U?$default_delete@VExternalCopyError@ivm@@@std@@@0@$$QEAW4ErrorType@ExternalCopyError@ivm@@AEAY0BE@$$CBD@Z 0000000180014eb0 f i three_phase_task.obj
 0001:00013f50       ??$RunCatchExternal@V<lambda_12b5085fd4d0552c8590ba40a8371372>@@V<lambda_0d5990140fcd63f41ed82f691f246672>@@@FunctorRunners@ivm@@YAXV?$Local@VContext@v8@@@v8@@V<lambda_12b5085fd4d0552c8590ba40a8371372>@@V<lambda_0d5990140fcd63f41ed82f691f246672>@@@Z 0000000180014f50 f i three_phase_task.obj
 0001:00014010       ??$make_unique@UAsyncRunner@?CB@??RunSync@ThreePhaseTask@ivm@@AEAA?AV?$Local@VValue@v8@@@v8@@AEAVIsolateHolder@4@_N@Z@AEAV34@AEAVAsyncWait@Scheduler@IsolateEnvironment@4@AEA_NAEAV?$unique_ptr@VExternalCopy@ivm@@U?$default_delete@VExternalCopy@ivm@@@std@@@std@@@std@@YA?AV?$unique_ptr@UAsyncRunner@?CB@??RunSync@ThreePhaseTask@ivm@@AEAA?AV?$Local@VValue@v8@@@v8@@AEAVIsolateHolder@4@_N@Z@U?$default_delete@UAsyncRunner@?CB@??RunSync@ThreePhaseTask@ivm@@AEAA?AV?$Local@VValue@v8@@@v8@@AEAVIsolateHolder@4@_N@Z@@std@@@0@AEAVThreePhaseTask@ivm@@AEAVAsyncWait@Scheduler@IsolateEnvironment@3@AEA_NAEAV?$unique_ptr@VExternalCopy@ivm@@U?$default_delete@VExternalCopy@ivm@@@std@@@0@@Z 0000000180015010 f i three_phase_task.obj
 0001:00014090       ??$make_unique@UDisposalTask@?$RemoteTuple@VResolver@Promise@v8@@VContext@3@VStackTrace@3@@ivm@@V?$tuple@V?$unique_ptr@V?$Persistent@VResolver@Promise@v8@@V?$NonCopyablePersistentTraits@VResolver@Promise@v8@@@3@@v8@@U?$default_delete@V?$Persistent@VResolver@Promise@v8@@V?$NonCopyablePersistentTraits@VResolver@Promise@v8@@@3@@v8@@@std@@@std@@V?$unique_ptr@V?$Persistent@VContext@v8@@V?$NonCopyablePersistentTraits@VContext@v8@@@2@@v8@@U?$default_delete@V?$Persistent@VContext@v8@@V?$NonCopyablePersistentTraits@VContext@v8@@@2@@v8@@@std@@@2@V?$unique_ptr@V?$Persistent@VStackTrace@v8@@V?$NonCopyablePersistentTraits@VStackTrace@v8@@@2@@v8@@U?$default_delete@V?$Persistent@VStackTrace@v8@@V?$NonCopyablePersistentTraits@VStackTrace@v8@@@2@@v8@@@std@@@2@@std@@@std@@YA?AV?$unique_ptr@UDisposalTask@?$RemoteTuple@VResolver@Promise@v8@@VContext@3@VStackTrace@3@@ivm@@U?$default_delete@UDisposalTask@?$RemoteTuple@VResolver@Promise@v8@@VContext@3@VStackTrace@3@@ivm@@@std@@@0@$$QEAV?$tuple@V?$unique_ptr@V?$Persistent@VResolver@Promise@v8@@V?$NonCopyablePersistentTraits@VResolver@Promise@v8@@@3@@v8@@U?$default_delete@V?$Persistent@VResolver@Promise@v8@@V?$NonCopyablePersistentTraits@VResolver@Promise@v8@@@3@@v8@@@std@@@std@@V?$unique_ptr@V?$Persistent@VContext@v8@@V?$NonCopyablePersistentTraits@VContext@v8@@@2@@v8@@U?$default_delete@V?$Persistent@VContext@v8@@V?$NonCopyablePersistentTraits@VContext@v8@@@2@@v8@@@std@@@2@V?$unique_ptr@V?$Persistent@VStackTrace@v8@@V?$NonCopyablePersistentTraits@VStackTrace@v8@@@2@@v8@@U?$default_delete@V?$Persistent@VStackTrace@v8@@V?$NonCopyablePersistentTraits@VStackTrace@v8@@@2@@v8@@@std@@@2@@0@@Z 0000000180015090 f i three_phase_task.obj
 0001:00014100       ??$make_unique@V?$Persistent@VUnboundScript@v8@@V?$NonCopyablePersistentTraits@VUnboundScript@v8@@@2@@v8@@PEAVIsolate@2@V?$Local@VUnboundScript@v8@@@2@@std@@YA?AV?$unique_ptr@V?$Persistent@VUnboundScript@v8@@V?$NonCopyablePersistentTraits@VUnboundScript@v8@@@2@@v8@@U?$default_delete@V?$Persistent@VUnboundScript@v8@@V?$NonCopyablePersistentTraits@VUnboundScript@v8@@@2@@v8@@@std@@@0@$$QEAPEAVIsolate@v8@@$$QEAV?$Local@VUnboundScript@v8@@@3@@Z 0000000180015100 f i isolate_handle.obj
 0001:00014100       ??$make_unique@V?$Persistent@VStackTrace@v8@@V?$NonCopyablePersistentTraits@VStackTrace@v8@@@2@@v8@@PEAVIsolate@2@V?$Local@VStackTrace@v8@@@2@@std@@YA?AV?$unique_ptr@V?$Persistent@VStackTrace@v8@@V?$NonCopyablePersistentTraits@VStackTrace@v8@@@2@@v8@@U?$default_delete@V?$Persistent@VStackTrace@v8@@V?$NonCopyablePersistentTraits@VStackTrace@v8@@@2@@v8@@@std@@@0@$$QEAPEAVIsolate@v8@@$$QEAV?$Local@VStackTrace@v8@@@3@@Z 0000000180015100 f i three_phase_task.obj
 0001:00014100       ??$make_unique@V?$Persistent@VFunction@v8@@V?$NonCopyablePersistentTraits@VFunction@v8@@@2@@v8@@PEAVIsolate@2@V?$Local@VFunction@v8@@@2@@std@@YA?AV?$unique_ptr@V?$Persistent@VFunction@v8@@V?$NonCopyablePersistentTraits@VFunction@v8@@@2@@v8@@U?$default_delete@V?$Persistent@VFunction@v8@@V?$NonCopyablePersistentTraits@VFunction@v8@@@2@@v8@@@std@@@0@$$QEAPEAVIsolate@v8@@$$QEAV?$Local@VFunction@v8@@@3@@Z 0000000180015100 f i module_handle.obj
 0001:00014100       ??$make_unique@V?$Persistent@VObject@v8@@V?$NonCopyablePersistentTraits@VObject@v8@@@2@@v8@@PEAVIsolate@2@V?$Local@VObject@v8@@@2@@std@@YA?AV?$unique_ptr@V?$Persistent@VObject@v8@@V?$NonCopyablePersistentTraits@VObject@v8@@@2@@v8@@U?$default_delete@V?$Persistent@VObject@v8@@V?$NonCopyablePersistentTraits@VObject@v8@@@2@@v8@@@std@@@0@$$QEAPEAVIsolate@v8@@$$QEAV?$Local@VObject@v8@@@3@@Z 0000000180015100 f i context_handle.obj
 0001:00014100       ??$make_unique@V?$Persistent@VModule@v8@@V?$NonCopyablePersistentTraits@VModule@v8@@@2@@v8@@PEAVIsolate@2@V?$Local@VModule@v8@@@2@@std@@YA?AV?$unique_ptr@V?$Persistent@VModule@v8@@V?$NonCopyablePersistentTraits@VModule@v8@@@2@@v8@@U?$default_delete@V?$Persistent@VModule@v8@@V?$NonCopyablePersistentTraits@VModule@v8@@@2@@v8@@@std@@@0@$$QEAPEAVIsolate@v8@@$$QEAV?$Local@VModule@v8@@@3@@Z 0000000180015100 f i module_handle.obj
 0001:00014100       ??$make_unique@V?$Persistent@VValue@v8@@V?$NonCopyablePersistentTraits@VValue@v8@@@2@@v8@@PEAVIsolate@2@V?$Local@VValue@v8@@@2@@std@@YA?AV?$unique_ptr@V?$Persistent@VValue@v8@@V?$NonCopyablePersistentTraits@VValue@v8@@@2@@v8@@U?$default_delete@V?$Persistent@VValue@v8@@V?$NonCopyablePersistentTraits@VValue@v8@@@2@@v8@@@std@@@0@$$QEAPEAVIsolate@v8@@$$QEAV?$Local@VValue@v8@@@3@@Z 0000000180015100 f i isolate_handle.obj
 0001:00014100       ??$make_unique@V?$Persistent@VContext@v8@@V?$NonCopyablePersistentTraits@VContext@v8@@@2@@v8@@PEAVIsolate@2@V?$Local@VContext@v8@@@2@@std@@YA?AV?$unique_ptr@V?$Persistent@VContext@v8@@V?$NonCopyablePersistentTraits@VContext@v8@@@2@@v8@@U?$default_delete@V?$Persistent@VContext@v8@@V?$NonCopyablePersistentTraits@VContext@v8@@@2@@v8@@@std@@@0@$$QEAPEAVIsolate@v8@@$$QEAV?$Local@VContext@v8@@@3@@Z 0000000180015100 f i three_phase_task.obj
 0001:00014100       ??$make_unique@V?$Persistent@VResolver@Promise@v8@@V?$NonCopyablePersistentTraits@VResolver@Promise@v8@@@3@@v8@@PEAVIsolate@2@V?$Local@VResolver@Promise@v8@@@2@@std@@YA?AV?$unique_ptr@V?$Persistent@VResolver@Promise@v8@@V?$NonCopyablePersistentTraits@VResolver@Promise@v8@@@3@@v8@@U?$default_delete@V?$Persistent@VResolver@Promise@v8@@V?$NonCopyablePersistentTraits@VResolver@Promise@v8@@@3@@v8@@@std@@@0@$$QEAPEAVIsolate@v8@@$$QEAV?$Local@VResolver@Promise@v8@@@3@@Z 0000000180015100 f i three_phase_task.obj
 0001:00014170       ?GetStackTrace@?$js_error_ctor@$1?Error@Exception@v8@@SA?AV?$Local@VValue@v8@@@3@V?$Local@VString@v8@@@3@@Z@ivm@@QEBA?AV?$basic_string@DU?$char_traits@D@std@@V?$allocator@D@2@@std@@XZ 0000000180015170 f i three_phase_task.obj
 0001:00014170       ?GetStackTrace@?$js_error_ctor@$1?RangeError@Exception@v8@@SA?AV?$Local@VValue@v8@@@3@V?$Local@VString@v8@@@3@@Z@ivm@@QEBA?AV?$basic_string@DU?$char_traits@D@std@@V?$allocator@D@2@@std@@XZ 0000000180015170 f i three_phase_task.obj
 0001:00014170       ?GetStackTrace@?$js_error_ctor@$1?TypeError@Exception@v8@@SA?AV?$Local@VValue@v8@@@3@V?$Local@VString@v8@@@3@@Z@ivm@@QEBA?AV?$basic_string@DU?$char_traits@D@std@@V?$allocator@D@2@@std@@XZ 0000000180015170 f i three_phase_task.obj
 0001:000141b0       ??_GDisposalTask@?$RemoteTuple@VResolver@Promise@v8@@VContext@3@VStackTrace@3@@ivm@@UEAAPEAXI@Z 00000001800151b0 f i three_phase_task.obj
 0001:000141b0       ??_EDisposalTask@?$RemoteTuple@VResolver@Promise@v8@@VContext@3@VStackTrace@3@@ivm@@UEAAPEAXI@Z 00000001800151b0 f i * CIL library *:* CIL module *
 0001:00014230       ??$make_unique@VExternalCopyError@ivm@@W4ErrorType@12@PEBDV?$basic_string@DU?$char_traits@D@std@@V?$allocator@D@2@@std@@@std@@YA?AV?$unique_ptr@VExternalCopyError@ivm@@U?$default_delete@VExternalCopyError@ivm@@@std@@@0@$$QEAW4ErrorType@ExternalCopyError@ivm@@$$QEAPEBD$$QEAV?$basic_string@DU?$char_traits@D@std@@V?$allocator@D@2@@0@@Z 0000000180015230 f i three_phase_task.obj
 0001:000142d0       ??$make_unique@VExternalCopyError@ivm@@W4ErrorType@12@PEBD@std@@YA?AV?$unique_ptr@VExternalCopyError@ivm@@U?$default_delete@VExternalCopyError@ivm@@@std@@@0@$$QEAW4ErrorType@ExternalCopyError@ivm@@$$QEAPEBD@Z 00000001800152d0 f i three_phase_task.obj
 0001:00014370       ??$make_unique@VExternalCopyError@ivm@@W4ErrorType@12@AEAY0GM@$$CBD@std@@YA?AV?$unique_ptr@VExternalCopyError@ivm@@U?$default_delete@VExternalCopyError@ivm@@@std@@@0@$$QEAW4ErrorType@ExternalCopyError@ivm@@AEAY0GM@$$CBD@Z 0000000180015370 f i three_phase_task.obj
 0001:00014410       ?to_string@std@@YA?AV?$basic_string@DU?$char_traits@D@std@@V?$allocator@D@2@@1@H@Z 0000000180015410 f i context_handle.obj
 0001:00014430       ?CalleeName@ivm@@YA?AV?$basic_string@DU?$char_traits@D@std@@V?$allocator@D@2@@std@@AEBV?$PropertyCallbackInfo@VValue@v8@@@v8@@@Z 0000000180015430 f i context_handle.obj
 0001:00014430       ?CalleeName@ivm@@YA?AV?$basic_string@DU?$char_traits@D@std@@V?$allocator@D@2@@std@@AEBV?$PropertyCallbackInfo@X@v8@@@Z 0000000180015430 f i context_handle.obj
 0001:00014630       ??_Gparam_incorrect@ivm@@UEAAPEAXI@Z 0000000180015630 f i context_handle.obj
 0001:00014630       ??_Eparam_incorrect@ivm@@UEAAPEAXI@Z 0000000180015630 f i * CIL library *:* CIL module *
 0001:00014660       ??0param_required@ivm@@QEAA@AEBU01@@Z 0000000180015660 f i context_handle.obj
 0001:00014680       ??0param_incorrect@ivm@@QEAA@AEBU01@@Z 0000000180015680 f i context_handle.obj
 0001:000146b0       ??0ContextHandleTransferable@ContextHandle@ivm@@QEAA@V?$shared_ptr@V?$RemoteHandle@VContext@v8@@@ivm@@@std@@V?$shared_ptr@V?$RemoteHandle@VValue@v8@@@ivm@@@4@@Z 00000001800156b0 f   context_handle.obj
 0001:00014790       ??_EDereferenceHandleTransferable@DereferenceHandle@ivm@@UEAAPEAXI@Z 0000000180015790 f i * CIL library *:* CIL module *
 0001:00014790       ??_GContextHandleTransferable@ContextHandle@ivm@@UEAAPEAXI@Z 0000000180015790 f i context_handle.obj
 0001:00014790       ??_GDereferenceHandleTransferable@DereferenceHandle@ivm@@UEAAPEAXI@Z 0000000180015790 f i reference_handle.obj
 0001:00014790       ??_EScriptHandleTransferable@ScriptHandle@ivm@@UEAAPEAXI@Z 0000000180015790 f i * CIL library *:* CIL module *
 0001:00014790       ??_GScriptHandleTransferable@ScriptHandle@ivm@@UEAAPEAXI@Z 0000000180015790 f i script_handle.obj
 0001:00014790       ??_EContextHandleTransferable@ContextHandle@ivm@@UEAAPEAXI@Z 0000000180015790 f i * CIL library *:* CIL module *
 0001:000147d0       ??1ContextHandleTransferable@ContextHandle@ivm@@UEAA@XZ 00000001800157d0 f i context_handle.obj
 0001:000147d0       ??1ScriptHandleTransferable@ScriptHandle@ivm@@UEAA@XZ 00000001800157d0 f i script_handle.obj
 0001:000147d0       ??1DereferenceHandleTransferable@DereferenceHandle@ivm@@UEAA@XZ 00000001800157d0 f i reference_handle.obj
 0001:00014870       ?TransferIn@ContextHandleTransferable@ContextHandle@ivm@@UEAA?AV?$Local@VValue@v8@@@v8@@XZ 0000000180015870 f   context_handle.obj
 0001:000148a0       ??0ContextHandle@ivm@@QEAA@V?$shared_ptr@V?$RemoteHandle@VContext@v8@@@ivm@@@std@@V?$shared_ptr@V?$RemoteHandle@VValue@v8@@@ivm@@@3@@Z 00000001800158a0 f   context_handle.obj
 0001:00014980       ??_GContextHandle@ivm@@UEAAPEAXI@Z 0000000180015980 f i context_handle.obj
 0001:00014980       ??_EContextHandle@ivm@@UEAAPEAXI@Z 0000000180015980 f i * CIL library *:* CIL module *
 0001:000149c0       ??1ContextHandle@ivm@@UEAA@XZ 00000001800159c0 f i context_handle.obj
 0001:00014ab0       ??1TransferableHandle@ivm@@UEAA@XZ 0000000180015ab0 f i context_handle.obj
 0001:00014b00       ?Definition@ContextHandle@ivm@@SA?AV?$Local@VFunctionTemplate@v8@@@v8@@XZ 0000000180015b00 f   context_handle.obj
 0001:00014be0       ?TransferOut@ContextHandle@ivm@@UEAA?AV?$unique_ptr@VTransferable@ivm@@U?$default_delete@VTransferable@ivm@@@std@@@std@@XZ 0000000180015be0 f   context_handle.obj
 0001:00014c40       ?CheckDisposed@ContextHandle@ivm@@QEAAXXZ 0000000180015c40 f   context_handle.obj
 0001:00014d70       ?GlobalReference@ContextHandle@ivm@@QEAA?AV?$Local@VValue@v8@@@v8@@XZ 0000000180015d70 f   context_handle.obj
 0001:00014e20       ?GlobalGetter@ContextHandle@ivm@@QEAA?AV?$Local@VValue@v8@@@v8@@XZ 0000000180015e20 f   context_handle.obj
 0001:00015060       ?GlobalSetter@ContextHandle@ivm@@QEAAXV?$Local@VValue@v8@@@v8@@@Z 0000000180016060 f   context_handle.obj
 0001:00015170       ?Release@ContextHandle@ivm@@QEAA?AV?$Local@VValue@v8@@@v8@@XZ 0000000180016170 f   context_handle.obj
 0001:000152b0       ?GetSharedIsolateHolder@?$RemoteHandle@VModule@v8@@@ivm@@QEAA?AV?$shared_ptr@VIsolateHolder@ivm@@@std@@XZ 00000001800162b0 f i module_handle.obj
 0001:000152b0       ?GetSharedIsolateHolder@?$RemoteHandle@VValue@v8@@@ivm@@QEAA?AV?$shared_ptr@VIsolateHolder@ivm@@@std@@XZ 00000001800162b0 f i context_handle.obj
 0001:000152d0       ?GetSharedIsolateHolder@?$RemoteTuple@VValue@v8@@@ivm@@QEAA?AV?$shared_ptr@VIsolateHolder@ivm@@@std@@XZ 00000001800162d0 f i context_handle.obj
 0001:000152d0       ?GetSharedIsolateHolder@?$RemoteTuple@VModule@v8@@@ivm@@QEAA?AV?$shared_ptr@VIsolateHolder@ivm@@@std@@XZ 00000001800162d0 f i module_handle.obj
 0001:00015310       ??1?$RemoteHandle@VObject@v8@@@ivm@@QEAA@XZ 0000000180016310 f i context_handle.obj
 0001:00015320       ??1?$RemoteTuple@VObject@v8@@@ivm@@QEAA@XZ 0000000180016320 f i context_handle.obj
 0001:000153e0       ?Run@DisposalTask@?$RemoteTuple@VModule@v8@@@ivm@@UEAAXXZ 00000001800163e0 f i module_handle.obj
 0001:000153e0       ?Run@DisposalTask@?$RemoteTuple@VUnboundScript@v8@@@ivm@@UEAAXXZ 00000001800163e0 f i isolate_handle.obj
 0001:000153e0       ?Run@DisposalTask@?$RemoteTuple@VValue@v8@@@ivm@@UEAAXXZ 00000001800163e0 f i isolate_handle.obj
 0001:000153e0       ?Run@DisposalTask@?$RemoteTuple@VContext@v8@@@ivm@@UEAAXXZ 00000001800163e0 f i isolate_handle.obj
 0001:000153e0       ?Run@DisposalTask@?$RemoteTuple@VFunction@v8@@@ivm@@UEAAXXZ 00000001800163e0 f i module_handle.obj
 0001:000153e0       ?Run@DisposalTask@?$RemoteTuple@VObject@v8@@@ivm@@UEAAXXZ 00000001800163e0 f i context_handle.obj
 0001:00015430       ??$_Integral_to_string@DH@std@@YA?AV?$basic_string@DU?$char_traits@D@std@@V?$allocator@D@2@@0@H@Z 0000000180016430 f i context_handle.obj
 0001:00015510       ??$NewInstance@VContextHandle@ivm@@AEAV?$shared_ptr@V?$RemoteHandle@VContext@v8@@@ivm@@@std@@AEAV?$shared_ptr@V?$RemoteHandle@VValue@v8@@@ivm@@@4@@ClassHandle@ivm@@SA?AV?$Local@VObject@v8@@@v8@@AEAV?$shared_ptr@V?$RemoteHandle@VContext@v8@@@ivm@@@std@@AEAV?$shared_ptr@V?$RemoteHandle@VValue@v8@@@ivm@@@5@@Z 0000000180016510 f i context_handle.obj
 0001:00015610       ??$MakeClass@PEBDU?$pair@P6AXAEBV?$FunctionCallbackInfo@VValue@v8@@@v8@@@ZH@std@@PEBDU?$pair@P6AXV?$Local@VString@v8@@@v8@@AEBV?$PropertyCallbackInfo@VValue@v8@@@2@@ZP6AX0V?$Local@VValue@v8@@@2@AEBV?$PropertyCallbackInfo@X@2@@Z@2@PEBDU12@@ClassHandle@ivm@@KA?AV?$Local@VFunctionTemplate@v8@@@v8@@PEBDUCtorFunction@01@0U?$pair@P6AXAEBV?$FunctionCallbackInfo@VValue@v8@@@v8@@@ZH@std@@0U?$pair@P6AXV?$Local@VString@v8@@@v8@@AEBV?$PropertyCallbackInfo@VValue@v8@@@2@@ZP6AX0V?$Local@VValue@v8@@@2@AEBV?$PropertyCallbackInfo@X@2@@Z@6@02@Z 0000000180016610 f i context_handle.obj
 0001:00015920       ??$make_unique@VContextHandleTransferable@ContextHandle@ivm@@AEAV?$shared_ptr@V?$RemoteHandle@VContext@v8@@@ivm@@@std@@AEAV?$shared_ptr@V?$RemoteHandle@VValue@v8@@@ivm@@@5@@std@@YA?AV?$unique_ptr@VContextHandleTransferable@ContextHandle@ivm@@U?$default_delete@VContextHandleTransferable@ContextHandle@ivm@@@std@@@0@AEAV?$shared_ptr@V?$RemoteHandle@VContext@v8@@@ivm@@@0@AEAV?$shared_ptr@V?$RemoteHandle@VValue@v8@@@ivm@@@0@@Z 0000000180016920 f i context_handle.obj
 0001:000159d0       ??$NewInstance@VReferenceHandle@ivm@@V?$shared_ptr@VIsolateHolder@ivm@@@std@@AEAV?$shared_ptr@V?$RemoteHandle@VValue@v8@@@ivm@@@4@AEAV?$shared_ptr@V?$RemoteHandle@VContext@v8@@@ivm@@@4@W4TypeOf@12@@ClassHandle@ivm@@SA?AV?$Local@VObject@v8@@@v8@@$$QEAV?$shared_ptr@VIsolateHolder@ivm@@@std@@AEAV?$shared_ptr@V?$RemoteHandle@VValue@v8@@@ivm@@@5@AEAV?$shared_ptr@V?$RemoteHandle@VContext@v8@@@ivm@@@5@$$QEAW4TypeOf@ReferenceHandle@1@@Z 00000001800169d0 f i context_handle.obj
 0001:00015ae0       ??$make_unique@V?$RemoteHandle@VObject@v8@@@ivm@@AEAV?$Local@VObject@v8@@@v8@@@std@@YA?AV?$unique_ptr@V?$RemoteHandle@VObject@v8@@@ivm@@U?$default_delete@V?$RemoteHandle@VObject@v8@@@ivm@@@std@@@0@AEAV?$Local@VObject@v8@@@v8@@@Z 0000000180016ae0 f i context_handle.obj
 0001:00015b40       ??$Unwrap@VReferenceHandle@ivm@@@ClassHandle@ivm@@SAPEAVReferenceHandle@1@V?$Local@VObject@v8@@@v8@@@Z 0000000180016b40 f i context_handle.obj
 0001:00015c10       ??$make_unique@UDisposalTask@?$RemoteTuple@VObject@v8@@@ivm@@V?$tuple@V?$unique_ptr@V?$Persistent@VObject@v8@@V?$NonCopyablePersistentTraits@VObject@v8@@@2@@v8@@U?$default_delete@V?$Persistent@VObject@v8@@V?$NonCopyablePersistentTraits@VObject@v8@@@2@@v8@@@std@@@std@@@std@@@std@@YA?AV?$unique_ptr@UDisposalTask@?$RemoteTuple@VObject@v8@@@ivm@@U?$default_delete@UDisposalTask@?$RemoteTuple@VObject@v8@@@ivm@@@std@@@0@$$QEAV?$tuple@V?$unique_ptr@V?$Persistent@VObject@v8@@V?$NonCopyablePersistentTraits@VObject@v8@@@2@@v8@@U?$default_delete@V?$Persistent@VObject@v8@@V?$NonCopyablePersistentTraits@VObject@v8@@@2@@v8@@@std@@@std@@@0@@Z 0000000180016c10 f i context_handle.obj
 0001:00015c60       ??_EDisposalTask@?$RemoteTuple@VValue@v8@@@ivm@@UEAAPEAXI@Z 0000000180016c60 f i * CIL library *:* CIL module *
 0001:00015c60       ??_GDisposalTask@?$RemoteTuple@VModule@v8@@@ivm@@UEAAPEAXI@Z 0000000180016c60 f i module_handle.obj
 0001:00015c60       ??_EDisposalTask@?$RemoteTuple@VContext@v8@@@ivm@@UEAAPEAXI@Z 0000000180016c60 f i * CIL library *:* CIL module *
 0001:00015c60       ??_GDisposalTask@?$RemoteTuple@VContext@v8@@@ivm@@UEAAPEAXI@Z 0000000180016c60 f i isolate_handle.obj
 0001:00015c60       ??_EDisposalTask@?$RemoteTuple@VUnboundScript@v8@@@ivm@@UEAAPEAXI@Z 0000000180016c60 f i * CIL library *:* CIL module *
 0001:00015c60       ??_EDisposalTask@?$RemoteTuple@VModule@v8@@@ivm@@UEAAPEAXI@Z 0000000180016c60 f i * CIL library *:* CIL module *
 0001:00015c60       ??_EDisposalTask@?$RemoteTuple@VFunction@v8@@@ivm@@UEAAPEAXI@Z 0000000180016c60 f i * CIL library *:* CIL module *
 0001:00015c60       ??_EDisposalTask@?$RemoteTuple@VObject@v8@@@ivm@@UEAAPEAXI@Z 0000000180016c60 f i * CIL library *:* CIL module *
 0001:00015c60       ??_GDisposalTask@?$RemoteTuple@VObject@v8@@@ivm@@UEAAPEAXI@Z 0000000180016c60 f i context_handle.obj
 0001:00015c60       ??_GDisposalTask@?$RemoteTuple@VFunction@v8@@@ivm@@UEAAPEAXI@Z 0000000180016c60 f i module_handle.obj
 0001:00015c60       ??_GDisposalTask@?$RemoteTuple@VUnboundScript@v8@@@ivm@@UEAAPEAXI@Z 0000000180016c60 f i isolate_handle.obj
 0001:00015c60       ??_GDisposalTask@?$RemoteTuple@VValue@v8@@@ivm@@UEAAPEAXI@Z 0000000180016c60 f i isolate_handle.obj
 0001:00015cb0       ??0?$RemoteTuple@VObject@v8@@@ivm@@QEAA@V?$Local@VObject@v8@@@v8@@@Z 0000000180016cb0 f i context_handle.obj
 0001:00015cb0       ??0?$RemoteTuple@VModule@v8@@@ivm@@QEAA@V?$Local@VModule@v8@@@v8@@@Z 0000000180016cb0 f i module_handle.obj
 0001:00015cb0       ??0?$RemoteTuple@VContext@v8@@@ivm@@QEAA@V?$Local@VContext@v8@@@v8@@@Z 0000000180016cb0 f i isolate_handle.obj
 0001:00015cb0       ??0?$RemoteTuple@VValue@v8@@@ivm@@QEAA@V?$Local@VValue@v8@@@v8@@@Z 0000000180016cb0 f i isolate_handle.obj
 0001:00015cb0       ??0?$RemoteTuple@VUnboundScript@v8@@@ivm@@QEAA@V?$Local@VUnboundScript@v8@@@v8@@@Z 0000000180016cb0 f i isolate_handle.obj
 0001:00015cb0       ??0?$RemoteTuple@VFunction@v8@@@ivm@@QEAA@V?$Local@VFunction@v8@@@v8@@@Z 0000000180016cb0 f i module_handle.obj
 0001:00015d50       ??$GetFunctionTemplate@VContextHandle@ivm@@@ClassHandle@ivm@@SA?AV?$Local@VFunctionTemplate@v8@@@v8@@XZ 0000000180016d50 f i context_handle.obj
 0001:00015e50       ??$make_unique@VContextHandle@ivm@@AEAV?$shared_ptr@V?$RemoteHandle@VContext@v8@@@ivm@@@std@@AEAV?$shared_ptr@V?$RemoteHandle@VValue@v8@@@ivm@@@4@@std@@YA?AV?$unique_ptr@VContextHandle@ivm@@U?$default_delete@VContextHandle@ivm@@@std@@@0@AEAV?$shared_ptr@V?$RemoteHandle@VContext@v8@@@ivm@@@0@AEAV?$shared_ptr@V?$RemoteHandle@VValue@v8@@@ivm@@@0@@Z 0000000180016e50 f i context_handle.obj
 0001:00015f00       ??$Invoke@$1?GlobalReference@ContextHandle@ivm@@QEAA?AV?$Local@VValue@v8@@@v8@@XZ@?$MethodCast@P8ContextHandle@ivm@@EAA?AV?$Local@VValue@v8@@@v8@@XZ@ClassHandle@ivm@@SA?AV?$Local@VValue@v8@@@v8@@PEAVContextHandle@2@@Z 0000000180016f00 f i context_handle.obj
 0001:00015f30       ??$ParameterizeEntry@$0?0P6A?AV?$Local@VValue@v8@@@v8@@PEAVContextHandle@ivm@@@Z$1??$Invoke@$1?GlobalReference@ContextHandle@ivm@@QEAA?AV?$Local@VValue@v8@@@v8@@XZ@?$MethodCast@P8ContextHandle@ivm@@EAA?AV?$Local@VValue@v8@@@v8@@XZ@ClassHandle@4@SA?AV12@0@Z@ClassHandle@ivm@@CAXAEBV?$FunctionCallbackInfo@VValue@v8@@@v8@@@Z 0000000180016f30 f i context_handle.obj
 0001:00015f40       ??$Invoke@$1?GlobalGetter@ContextHandle@ivm@@QEAA?AV?$Local@VValue@v8@@@v8@@XZ@?$MethodCast@P8ContextHandle@ivm@@EAA?AV?$Local@VValue@v8@@@v8@@XZ@ClassHandle@ivm@@SA?AV?$Local@VValue@v8@@@v8@@PEAVContextHandle@2@@Z 0000000180016f40 f i context_handle.obj
 0001:00015f70       ??$ParameterizeGetterEntry@P6A?AV?$Local@VValue@v8@@@v8@@PEAVContextHandle@ivm@@@Z$1??$Invoke@$1?GlobalGetter@ContextHandle@ivm@@QEAA?AV?$Local@VValue@v8@@@v8@@XZ@?$MethodCast@P8ContextHandle@ivm@@EAA?AV?$Local@VValue@v8@@@v8@@XZ@ClassHandle@4@SA?AV12@0@Z@ClassHandle@ivm@@CAXV?$Local@VString@v8@@@v8@@AEBV?$PropertyCallbackInfo@VValue@v8@@@3@@Z 0000000180016f70 f i context_handle.obj
 0001:00015f90       ??$Invoke@$1?GlobalSetter@ContextHandle@ivm@@QEAAXV?$Local@VValue@v8@@@v8@@@Z@?$MethodCast@P8ContextHandle@ivm@@EAAXV?$Local@VValue@v8@@@v8@@@Z@ClassHandle@ivm@@SAXPEAVContextHandle@2@V?$Local@VValue@v8@@@v8@@@Z 0000000180016f90 f i context_handle.obj
 0001:00015fa0       ??$ParameterizeSetterEntry@P6AXPEAVContextHandle@ivm@@V?$Local@VValue@v8@@@v8@@@Z$1??$Invoke@$1?GlobalSetter@ContextHandle@ivm@@QEAAXV?$Local@VValue@v8@@@v8@@@Z@?$MethodCast@P8ContextHandle@ivm@@EAAXV?$Local@VValue@v8@@@v8@@@Z@ClassHandle@2@SAX01@Z@ClassHandle@ivm@@CAXV?$Local@VString@v8@@@v8@@V?$Local@VValue@v8@@@3@AEBV?$PropertyCallbackInfo@X@3@@Z 0000000180016fa0 f i context_handle.obj
 0001:00015fe0       ??$Invoke@$1?Release@ContextHandle@ivm@@QEAA?AV?$Local@VValue@v8@@@v8@@XZ@?$MethodCast@P8ContextHandle@ivm@@EAA?AV?$Local@VValue@v8@@@v8@@XZ@ClassHandle@ivm@@SA?AV?$Local@VValue@v8@@@v8@@PEAVContextHandle@2@@Z 0000000180016fe0 f i context_handle.obj
 0001:00016010       ??$ParameterizeEntry@$0?0P6A?AV?$Local@VValue@v8@@@v8@@PEAVContextHandle@ivm@@@Z$1??$Invoke@$1?Release@ContextHandle@ivm@@QEAA?AV?$Local@VValue@v8@@@v8@@XZ@?$MethodCast@P8ContextHandle@ivm@@EAA?AV?$Local@VValue@v8@@@v8@@XZ@ClassHandle@4@SA?AV12@0@Z@ClassHandle@ivm@@CAXAEBV?$FunctionCallbackInfo@VValue@v8@@@v8@@@Z 0000000180017010 f i context_handle.obj
 0001:00016020       ??$GetFunctionTemplate@VTransferableHandle@ivm@@@ClassHandle@ivm@@SA?AV?$Local@VFunctionTemplate@v8@@@v8@@XZ 0000000180017020 f i context_handle.obj
 0001:00016140       ??$GetFunctionTemplate@VReferenceHandle@ivm@@@ClassHandle@ivm@@SA?AV?$Local@VFunctionTemplate@v8@@@v8@@XZ 0000000180017140 f i context_handle.obj
 0001:00016240       ??$make_unique@VReferenceHandle@ivm@@V?$shared_ptr@VIsolateHolder@ivm@@@std@@AEAV?$shared_ptr@V?$RemoteHandle@VValue@v8@@@ivm@@@4@AEAV?$shared_ptr@V?$RemoteHandle@VContext@v8@@@ivm@@@4@W4TypeOf@12@@std@@YA?AV?$unique_ptr@VReferenceHandle@ivm@@U?$default_delete@VReferenceHandle@ivm@@@std@@@0@$$QEAV?$shared_ptr@VIsolateHolder@ivm@@@0@AEAV?$shared_ptr@V?$RemoteHandle@VValue@v8@@@ivm@@@0@AEAV?$shared_ptr@V?$RemoteHandle@VContext@v8@@@ivm@@@0@$$QEAW4TypeOf@ReferenceHandle@ivm@@@Z 0000000180017240 f i context_handle.obj
 0001:00016330       ??$RunCallback@V<lambda_fea823a42cc9af56613d417bcc5ca866>@@$$CBV?$FunctionCallbackInfo@VValue@v8@@@v8@@@FunctorRunners@ivm@@YAXAEBV?$FunctionCallbackInfo@VValue@v8@@@v8@@V<lambda_fea823a42cc9af56613d417bcc5ca866>@@@Z 0000000180017330 f i context_handle.obj
 0001:000163a0       ??$RunCallback@V<lambda_26129db8176489d8c79fe2e4b96bdfea>@@$$CBV?$PropertyCallbackInfo@VValue@v8@@@v8@@@FunctorRunners@ivm@@YAXAEBV?$PropertyCallbackInfo@VValue@v8@@@v8@@V<lambda_26129db8176489d8c79fe2e4b96bdfea>@@@Z 00000001800173a0 f i context_handle.obj
 0001:00016410       ??$RunCallback@V<lambda_972bcdff23e037e740af593a3323651d>@@$$CBV?$PropertyCallbackInfo@X@v8@@@FunctorRunners@ivm@@YAXAEBV?$PropertyCallbackInfo@X@v8@@V<lambda_972bcdff23e037e740af593a3323651d>@@@Z 0000000180017410 f i context_handle.obj
 0001:000164f0       ??$RunCallback@V<lambda_a3e9405eba24839db5daebdb3fdb0c53>@@$$CBV?$FunctionCallbackInfo@VValue@v8@@@v8@@@FunctorRunners@ivm@@YAXAEBV?$FunctionCallbackInfo@VValue@v8@@@v8@@V<lambda_a3e9405eba24839db5daebdb3fdb0c53>@@@Z 00000001800174f0 f i context_handle.obj
 0001:00016560       ?Invoke@?$ConvertParamInvoke@U?$ConvertParam@PEAVContextHandle@ivm@@@ivm@@$0?0$0A@@ivm@@SAPEAVContextHandle@2@AEBV?$FunctionCallbackInfo@VValue@v8@@@v8@@@Z 0000000180017560 f i context_handle.obj
 0001:000165b0       ?Invoke@?$ConvertParamInvoke@U?$ConvertParam@PEAVContextHandle@ivm@@@ivm@@$0?0$0A@@ivm@@SAPEAVContextHandle@2@AEBV?$PropertyCallbackInfo@VValue@v8@@@v8@@@Z 00000001800175b0 f i context_handle.obj
 0001:00016600       ?Invoke@?$ConvertParamInvoke@U?$ConvertParam@PEAVContextHandle@ivm@@@ivm@@$0?0$00@ivm@@SAPEAVContextHandle@2@U?$pair@PEAV?$Local@VValue@v8@@@v8@@PEBV?$PropertyCallbackInfo@X@2@@std@@@Z 0000000180017600 f i context_handle.obj
 0001:00016660       ?Convert@?$ConvertParam@PEAVContextHandle@ivm@@@ivm@@SAPEAVContextHandle@2@V?$Local@VValue@v8@@@v8@@@Z 0000000180017660 f i context_handle.obj
 0001:000167a0       ??$?HDU?$char_traits@D@std@@V?$allocator@D@1@@std@@YA?AV?$basic_string@DU?$char_traits@D@std@@V?$allocator@D@2@@0@$$QEAV10@0@Z 00000001800177a0 f i context_handle.obj
 0001:00016820       ?Invoke@?$ConvertParamInvoke@U?$ConvertParam@V?$Local@VValue@v8@@@v8@@@ivm@@$0A@$00@ivm@@SA?AV?$Local@VValue@v8@@@v8@@U?$pair@PEAV?$Local@VValue@v8@@@v8@@PEBV?$PropertyCallbackInfo@X@2@@std@@@Z 0000000180017820 f i context_handle.obj
 0001:00016890       ?insert@?$basic_string@DU?$char_traits@D@std@@V?$allocator@D@2@@std@@QEAAAEAV12@_KAEBV12@00@Z 0000000180017890 f i context_handle.obj
 0001:00016a00       ?Copy@ExternalCopy@ivm@@SA?AV?$unique_ptr@VExternalCopy@ivm@@U?$default_delete@VExternalCopy@ivm@@@std@@@std@@AEBV?$Local@VValue@v8@@@v8@@_NAEBV?$vector@V?$Local@VValue@v8@@@v8@@V?$allocator@V?$Local@VValue@v8@@@v8@@@std@@@4@@Z 0000000180017a00 f   external_copy.obj
 0001:00017340       ??1ExternalCopySerializerDelegate@ivm@@UEAA@XZ 0000000180018340 f i external_copy.obj
 0001:00017350       ??0?$js_error_ctor@$1?RangeError@Exception@v8@@SA?AV?$Local@VValue@v8@@@3@V?$Local@VString@v8@@@3@@Z@ivm@@QEAA@AEBV01@@Z 0000000180018350 f i external_copy.obj
 0001:000173c0       ?CopyIfPrimitive@ExternalCopy@ivm@@SA?AV?$unique_ptr@VExternalCopy@ivm@@U?$default_delete@VExternalCopy@ivm@@@std@@@std@@AEBV?$Local@VValue@v8@@@v8@@@Z 00000001800183c0 f   external_copy.obj
 0001:00017560       ?CopyIfPrimitiveOrError@ExternalCopy@ivm@@SA?AV?$unique_ptr@VExternalCopy@ivm@@U?$default_delete@VExternalCopy@ivm@@@std@@@std@@AEBV?$Local@VValue@v8@@@v8@@@Z 0000000180018560 f   external_copy.obj
 0001:00017ba0       ??_EExternalCopy@ivm@@UEAAPEAXI@Z 0000000180018ba0 f i * CIL library *:* CIL module *
 0001:00017ba0       ??_EExternalCopyUndefined@ivm@@UEAAPEAXI@Z 0000000180018ba0 f i * CIL library *:* CIL module *
 0001:00017ba0       ??_GExternalCopyNull@ivm@@UEAAPEAXI@Z 0000000180018ba0 f i external_copy.obj
 0001:00017ba0       ??_GExternalCopyUndefined@ivm@@UEAAPEAXI@Z 0000000180018ba0 f i external_copy.obj
 0001:00017ba0       ??_GExternalCopy@ivm@@UEAAPEAXI@Z 0000000180018ba0 f i external_copy.obj
 0001:00017ba0       ??_EExternalCopyNull@ivm@@UEAAPEAXI@Z 0000000180018ba0 f i * CIL library *:* CIL module *
 0001:00017be0       ??1ExternalCopyBytes@ivm@@UEAA@XZ 0000000180018be0 f   external_copy.obj
 0001:00017be0       ??1ExternalCopy@ivm@@UEAA@XZ 0000000180018be0 f   external_copy.obj
 0001:00017c00       ?CopyIntoCheckHeap@ExternalCopy@ivm@@QEAA?AV?$Local@VValue@v8@@@v8@@_N@Z 0000000180018c00 f   external_copy.obj
 0001:00017cc0       ?TransferIn@ExternalCopy@ivm@@UEAA?AV?$Local@VValue@v8@@@v8@@XZ 0000000180018cc0 f   external_copy.obj
 0001:00017ce0       ??0ExternalString@ExternalCopyString@ivm@@QEAA@V?$shared_ptr@V?$vector@DV?$allocator@D@std@@@std@@@std@@@Z 0000000180018ce0 f   external_copy.obj
 0001:00017da0       ??_EExternalString@ExternalCopyString@ivm@@UEAAPEAXI@Z 0000000180018da0 f i * CIL library *:* CIL module *
 0001:00017da0       ??_GExternalString@ExternalCopyString@ivm@@UEAAPEAXI@Z 0000000180018da0 f i external_copy.obj
 0001:00017de0       ??1ExternalString@ExternalCopyString@ivm@@UEAA@XZ 0000000180018de0 f   external_copy.obj
 0001:00017e90       ?data@ExternalStringOneByte@ExternalCopyString@ivm@@UEBAPEBDXZ 0000000180018e90 f   external_copy.obj
 0001:00017e90       ?data@ExternalString@ExternalCopyString@ivm@@UEBAPEBGXZ 0000000180018e90 f   external_copy.obj
 0001:00017ea0       ?length@ExternalString@ExternalCopyString@ivm@@UEBA_KXZ 0000000180018ea0 f   external_copy.obj
 0001:00017ec0       ??0ExternalStringOneByte@ExternalCopyString@ivm@@QEAA@V?$shared_ptr@V?$vector@DV?$allocator@D@std@@@std@@@std@@@Z 0000000180018ec0 f   external_copy.obj
 0001:00017f80       ??_GExternalStringOneByte@ExternalCopyString@ivm@@UEAAPEAXI@Z 0000000180018f80 f i external_copy.obj
 0001:00017f80       ??_EExternalStringOneByte@ExternalCopyString@ivm@@UEAAPEAXI@Z 0000000180018f80 f i * CIL library *:* CIL module *
 0001:00017fc0       ??1ExternalStringOneByte@ExternalCopyString@ivm@@UEAA@XZ 0000000180018fc0 f   external_copy.obj
 0001:00018070       ?length@ExternalStringOneByte@ExternalCopyString@ivm@@UEBA_KXZ 0000000180019070 f   external_copy.obj
 0001:00018080       ??0ExternalCopyString@ivm@@QEAA@V?$Local@VString@v8@@@v8@@@Z 0000000180019080 f   external_copy.obj
 0001:00018240       ??_GExternalCopyString@ivm@@UEAAPEAXI@Z 0000000180019240 f i external_copy.obj
 0001:00018240       ??_EExternalCopyString@ivm@@UEAAPEAXI@Z 0000000180019240 f i * CIL library *:* CIL module *
 0001:00018280       ??1ExternalCopyString@ivm@@UEAA@XZ 0000000180019280 f i external_copy.obj
 0001:00018300       ?CopyInto@ExternalCopyString@ivm@@UEAA?AV?$Local@VValue@v8@@@v8@@_N@Z 0000000180019300 f   external_copy.obj
 0001:00018530       ?WorstCaseHeapSize@ExternalCopyString@ivm@@UEBAIXZ 0000000180019530 f   external_copy.obj
 0001:00018540       ??0ExternalCopySerialized@ivm@@QEAA@U?$pair@PEAE_K@std@@V?$vector@V?$unique_ptr@VTransferable@ivm@@U?$default_delete@VTransferable@ivm@@@std@@@std@@V?$allocator@V?$unique_ptr@VTransferable@ivm@@U?$default_delete@VTransferable@ivm@@@std@@@std@@@2@@3@V?$vector@V?$unique_ptr@VExternalCopyArrayBuffer@ivm@@U?$default_delete@VExternalCopyArrayBuffer@ivm@@@std@@@std@@V?$allocator@V?$unique_ptr@VExternalCopyArrayBuffer@ivm@@U?$default_delete@VExternalCopyArrayBuffer@ivm@@@std@@@std@@@2@@3@V?$vector@V?$unique_ptr@VExternalCopySharedArrayBuffer@ivm@@U?$default_delete@VExternalCopySharedArrayBuffer@ivm@@@std@@@std@@V?$allocator@V?$unique_ptr@VExternalCopySharedArrayBuffer@ivm@@U?$default_delete@VExternalCopySharedArrayBuffer@ivm@@@std@@@std@@@2@@3@@Z 0000000180019540 f   external_copy.obj
 0001:00018660       ??_EExternalCopySerialized@ivm@@UEAAPEAXI@Z 0000000180019660 f i * CIL library *:* CIL module *
 0001:00018660       ??_GExternalCopySerialized@ivm@@UEAAPEAXI@Z 0000000180019660 f i external_copy.obj
 0001:000186f0       ?CopyInto@ExternalCopySerialized@ivm@@UEAA?AV?$Local@VValue@v8@@@v8@@_N@Z 00000001800196f0 f   external_copy.obj
 0001:00018be0       ??1ExternalCopyDeserializerDelegate@ivm@@UEAA@XZ 0000000180019be0 f i external_copy.obj
 0001:00018bf0       ?WorstCaseHeapSize@ExternalCopySerialized@ivm@@UEBAIXZ 0000000180019bf0 f   external_copy.obj
 0001:00018c00       ??_EExternalCopyError@ivm@@UEAAPEAXI@Z 0000000180019c00 f i * CIL library *:* CIL module *
 0001:00018c00       ??_GExternalCopyError@ivm@@UEAAPEAXI@Z 0000000180019c00 f i external_copy.obj
 0001:00018c80       ??0ExternalCopyError@ivm@@QEAA@W4ErrorType@01@PEBDV?$basic_string@DU?$char_traits@D@std@@V?$allocator@D@2@@std@@@Z 0000000180019c80 f   external_copy.obj
 0001:00018d90       ?CopyInto@ExternalCopyError@ivm@@UEAA?AV?$Local@VValue@v8@@@v8@@_N@Z 0000000180019d90 f   external_copy.obj
 0001:00018f30       ?WorstCaseHeapSize@ExternalCopyError@ivm@@UEBAIXZ 0000000180019f30 f   external_copy.obj
 0001:00018f70       ?CopyInto@ExternalCopyNull@ivm@@UEAA?AV?$Local@VValue@v8@@@v8@@_N@Z 0000000180019f70 f   external_copy.obj
 0001:00018f90       ?WorstCaseHeapSize@ExternalCopyUndefined@ivm@@UEBAIXZ 0000000180019f90 f   external_copy.obj
 0001:00018f90       ?WorstCaseHeapSize@ExternalCopyNull@ivm@@UEBAIXZ 0000000180019f90 f   external_copy.obj
 0001:00018fa0       ?CopyInto@ExternalCopyUndefined@ivm@@UEAA?AV?$Local@VValue@v8@@@v8@@_N@Z 0000000180019fa0 f   external_copy.obj
 0001:00018fc0       ??_G?$ExternalCopyTemplate@VUint32@v8@@I@ivm@@UEAAPEAXI@Z 0000000180019fc0 f i external_copy.obj
 0001:00018fc0       ??_E?$ExternalCopyTemplate@VInt32@v8@@H@ivm@@UEAAPEAXI@Z 0000000180019fc0 f i * CIL library *:* CIL module *
 0001:00018fc0       ??_E?$ExternalCopyTemplate@VBoolean@v8@@_N@ivm@@UEAAPEAXI@Z 0000000180019fc0 f i * CIL library *:* CIL module *
 0001:00018fc0       ??_G?$ExternalCopyTemplate@VNumber@v8@@N@ivm@@UEAAPEAXI@Z 0000000180019fc0 f i external_copy.obj
 0001:00018fc0       ??_GExternalCopyDate@ivm@@UEAAPEAXI@Z 0000000180019fc0 f i external_copy.obj
 0001:00018fc0       ??_E?$ExternalCopyTemplate@VUint32@v8@@I@ivm@@UEAAPEAXI@Z 0000000180019fc0 f i * CIL library *:* CIL module *
 0001:00018fc0       ??_EExternalCopyDate@ivm@@UEAAPEAXI@Z 0000000180019fc0 f i * CIL library *:* CIL module *
 0001:00018fc0       ??_E?$ExternalCopyTemplate@VNumber@v8@@N@ivm@@UEAAPEAXI@Z 0000000180019fc0 f i * CIL library *:* CIL module *
 0001:00018fc0       ??_G?$ExternalCopyTemplate@VBoolean@v8@@_N@ivm@@UEAAPEAXI@Z 0000000180019fc0 f i external_copy.obj
 0001:00018fc0       ??_G?$ExternalCopyTemplate@VInt32@v8@@H@ivm@@UEAAPEAXI@Z 0000000180019fc0 f i external_copy.obj
 0001:00019000       ?CopyInto@ExternalCopyDate@ivm@@UEAA?AV?$Local@VValue@v8@@@v8@@_N@Z 000000018001a000 f   external_copy.obj
 0001:00019090       ?WorstCaseHeapSize@ExternalCopyDate@ivm@@UEBAIXZ 000000018001a090 f   external_copy.obj
 0001:000190a0       ??0Holder@ExternalCopyBytes@ivm@@QEAA@AEBV?$Local@VObject@v8@@@v8@@V?$shared_ptr@X@std@@_K@Z 000000018001a0a0 f   external_copy.obj
 0001:000191d0       ??1Holder@ExternalCopyBytes@ivm@@QEAA@XZ 000000018001a1d0 f   external_copy.obj
 0001:00019270       ?WeakCallbackV8@Holder@ExternalCopyBytes@ivm@@SAXAEBV?$WeakCallbackInfo@X@v8@@@Z 000000018001a270 f   external_copy.obj
 0001:000192d0       ?WeakCallback@Holder@ExternalCopyBytes@ivm@@SAXPEAX@Z 000000018001a2d0 f   external_copy.obj
 0001:00019330       ??0ExternalCopyArrayBuffer@ivm@@QEAA@PEBX_K@Z 000000018001a330 f   external_copy.obj
 0001:00019410       ??_GExternalCopyArrayBuffer@ivm@@UEAAPEAXI@Z 000000018001a410 f i external_copy.obj
 0001:00019410       ??_EExternalCopyArrayBuffer@ivm@@UEAAPEAXI@Z 000000018001a410 f i * CIL library *:* CIL module *
 0001:00019410       ??_EExternalCopySharedArrayBuffer@ivm@@UEAAPEAXI@Z 000000018001a410 f i * CIL library *:* CIL module *
 0001:00019410       ??_GExternalCopySharedArrayBuffer@ivm@@UEAAPEAXI@Z 000000018001a410 f i external_copy.obj
 0001:00019450       ??1ExternalCopySharedArrayBuffer@ivm@@UEAA@XZ 000000018001a450 f i external_copy.obj
 0001:00019450       ??1ExternalCopyArrayBuffer@ivm@@UEAA@XZ 000000018001a450 f i external_copy.obj
 0001:000194d0       ??0ExternalCopyArrayBuffer@ivm@@QEAA@V?$shared_ptr@X@std@@_K@Z 000000018001a4d0 f   external_copy.obj
 0001:00019580       ??0ExternalCopyArrayBuffer@ivm@@QEAA@AEBV?$Local@VArrayBuffer@v8@@@v8@@@Z 000000018001a580 f   external_copy.obj
 0001:00019680       ?Transfer@ExternalCopyArrayBuffer@ivm@@SA?AV?$unique_ptr@VExternalCopyArrayBuffer@ivm@@U?$default_delete@VExternalCopyArrayBuffer@ivm@@@std@@@std@@AEBV?$Local@VArrayBuffer@v8@@@v8@@@Z 000000018001a680 f   external_copy.obj
 0001:00019ad0       ?CopyInto@ExternalCopyArrayBuffer@ivm@@UEAA?AV?$Local@VValue@v8@@@v8@@_N@Z 000000018001aad0 f   external_copy.obj
 0001:00019fd0       ?WorstCaseHeapSize@ExternalCopyArrayBuffer@ivm@@UEBAIXZ 000000018001afd0 f   external_copy.obj
 0001:00019fd0       ?WorstCaseHeapSize@ExternalCopySharedArrayBuffer@ivm@@UEBAIXZ 000000018001afd0 f   external_copy.obj
 0001:00019fe0       ?GetSharedPointer@ExternalCopySharedArrayBuffer@ivm@@QEBA?AV?$shared_ptr@X@std@@XZ 000000018001afe0 f   external_copy.obj
 0001:00019fe0       ?GetSharedPointer@ExternalCopyArrayBuffer@ivm@@QEBA?AV?$shared_ptr@X@std@@XZ 000000018001afe0 f   external_copy.obj
 0001:0001a160       ??0ExternalCopySharedArrayBuffer@ivm@@QEAA@AEBV?$Local@VSharedArrayBuffer@v8@@@v8@@@Z 000000018001b160 f   external_copy.obj
 0001:0001a5d0       ?CopyInto@ExternalCopySharedArrayBuffer@ivm@@UEAA?AV?$Local@VValue@v8@@@v8@@_N@Z 000000018001b5d0 f   external_copy.obj
 0001:0001a6c0       ??_EExternalCopyArrayBufferView@ivm@@UEAAPEAXI@Z 000000018001b6c0 f i * CIL library *:* CIL module *
 0001:0001a6c0       ??_GExternalCopyArrayBufferView@ivm@@UEAAPEAXI@Z 000000018001b6c0 f i external_copy.obj
 0001:0001a730       ?CopyInto@ExternalCopyArrayBufferView@ivm@@UEAA?AV?$Local@VValue@v8@@@v8@@_N@Z 000000018001b730 f   external_copy.obj
 0001:0001a790       ?WorstCaseHeapSize@ExternalCopyArrayBufferView@ivm@@UEBAIXZ 000000018001b790 f   external_copy.obj
 0001:0001a7b0       ?WorstCaseHeapSize@?$ExternalCopyTemplate@VNumber@v8@@N@ivm@@UEBAIXZ 000000018001b7b0 f i external_copy.obj
 0001:0001a7b0       ?WorstCaseHeapSize@?$ExternalCopyTemplate@VUint32@v8@@I@ivm@@UEBAIXZ 000000018001b7b0 f i external_copy.obj
 0001:0001a7b0       ?WorstCaseHeapSize@?$ExternalCopyTemplate@VInt32@v8@@H@ivm@@UEBAIXZ 000000018001b7b0 f i external_copy.obj
 0001:0001a7b0       ?WorstCaseHeapSize@?$ExternalCopyTemplate@VBoolean@v8@@_N@ivm@@UEBAIXZ 000000018001b7b0 f i external_copy.obj
 0001:0001a7c0       ?CopyInto@?$ExternalCopyTemplate@VNumber@v8@@N@ivm@@UEAA?AV?$Local@VValue@v8@@@v8@@_N@Z 000000018001b7c0 f i external_copy.obj
 0001:0001a800       ?CopyInto@?$ExternalCopyTemplate@VUint32@v8@@I@ivm@@UEAA?AV?$Local@VValue@v8@@@v8@@_N@Z 000000018001b800 f i external_copy.obj
 0001:0001a800       ?CopyInto@?$ExternalCopyTemplate@VInt32@v8@@H@ivm@@UEAA?AV?$Local@VValue@v8@@@v8@@_N@Z 000000018001b800 f i external_copy.obj
 0001:0001a840       ?CopyInto@?$ExternalCopyTemplate@VBoolean@v8@@_N@ivm@@UEAA?AV?$Local@VValue@v8@@@v8@@_N@Z 000000018001b840 f i external_copy.obj
 0001:0001a890       ??1?$vector@V?$unique_ptr@VExternalCopyArrayBuffer@ivm@@U?$default_delete@VExternalCopyArrayBuffer@ivm@@@std@@@std@@V?$allocator@V?$unique_ptr@VExternalCopyArrayBuffer@ivm@@U?$default_delete@VExternalCopyArrayBuffer@ivm@@@std@@@std@@@2@@std@@QEAA@XZ 000000018001b890 f i external_copy.obj
 0001:0001a890       ??1?$vector@V?$unique_ptr@VExternalCopySharedArrayBuffer@ivm@@U?$default_delete@VExternalCopySharedArrayBuffer@ivm@@@std@@@std@@V?$allocator@V?$unique_ptr@VExternalCopySharedArrayBuffer@ivm@@U?$default_delete@VExternalCopySharedArrayBuffer@ivm@@@std@@@std@@@2@@std@@QEAA@XZ 000000018001b890 f i external_copy.obj
 0001:0001a890       ??1?$vector@V?$unique_ptr@VTransferable@ivm@@U?$default_delete@VTransferable@ivm@@@std@@@std@@V?$allocator@V?$unique_ptr@VTransferable@ivm@@U?$default_delete@VTransferable@ivm@@@std@@@std@@@2@@std@@QEAA@XZ 000000018001b890 f i external_copy.obj
 0001:0001a900       ?ConstructError@?$js_error_ctor@$1?RangeError@Exception@v8@@SA?AV?$Local@VValue@v8@@@3@V?$Local@VString@v8@@@3@@Z@ivm@@UEBA?AV?$Local@VValue@v8@@@v8@@XZ 000000018001b900 f i external_copy.obj
 0001:0001aaf0       ??4?$shared_ptr@X@std@@QEAAAEAV01@AEBV01@@Z 000000018001baf0 f i external_copy.obj
 0001:0001aaf0       ??4?$shared_ptr@VIsolateHolder@ivm@@@std@@QEAAAEAV01@AEBV01@@Z 000000018001baf0 f i isolate.obj
 0001:0001ab80       ?_Reallocate@?$vector@V?$unique_ptr@VExternalCopyArrayBuffer@ivm@@U?$default_delete@VExternalCopyArrayBuffer@ivm@@@std@@@std@@V?$allocator@V?$unique_ptr@VExternalCopyArrayBuffer@ivm@@U?$default_delete@VExternalCopyArrayBuffer@ivm@@@std@@@std@@@2@@std@@IEAAX_K@Z 000000018001bb80 f i external_copy.obj
 0001:0001ab80       ?_Reallocate@?$vector@V?$unique_ptr@VExternalCopySharedArrayBuffer@ivm@@U?$default_delete@VExternalCopySharedArrayBuffer@ivm@@@std@@@std@@V?$allocator@V?$unique_ptr@VExternalCopySharedArrayBuffer@ivm@@U?$default_delete@VExternalCopySharedArrayBuffer@ivm@@@std@@@std@@@2@@std@@IEAAX_K@Z 000000018001bb80 f i nortti:external_copy_nortti.obj
 0001:0001ab80       ?_Reallocate@?$vector@V?$unique_ptr@VTransferable@ivm@@U?$default_delete@VTransferable@ivm@@@std@@@std@@V?$allocator@V?$unique_ptr@VTransferable@ivm@@U?$default_delete@VTransferable@ivm@@@std@@@std@@@2@@std@@IEAAX_K@Z 000000018001bb80 f i reference_handle.obj
 0001:0001acb0       ??$make_unique@VExternalCopyDate@ivm@@AEBV?$Local@VValue@v8@@@v8@@@std@@YA?AV?$unique_ptr@VExternalCopyDate@ivm@@U?$default_delete@VExternalCopyDate@ivm@@@std@@@0@AEBV?$Local@VValue@v8@@@v8@@@Z 000000018001bcb0 f i external_copy.obj
 0001:0001ad50       ??$make_unique@VExternalCopyArrayBuffer@ivm@@AEAV?$Local@VArrayBuffer@v8@@@v8@@@std@@YA?AV?$unique_ptr@VExternalCopyArrayBuffer@ivm@@U?$default_delete@VExternalCopyArrayBuffer@ivm@@@std@@@0@AEAV?$Local@VArrayBuffer@v8@@@v8@@@Z 000000018001bd50 f i external_copy.obj
 0001:0001adb0       ??$make_unique@VExternalCopySharedArrayBuffer@ivm@@AEAV?$Local@VSharedArrayBuffer@v8@@@v8@@@std@@YA?AV?$unique_ptr@VExternalCopySharedArrayBuffer@ivm@@U?$default_delete@VExternalCopySharedArrayBuffer@ivm@@@std@@@0@AEAV?$Local@VSharedArrayBuffer@v8@@@v8@@@Z 000000018001bdb0 f i external_copy.obj
 0001:0001adb0       ??$make_unique@VExternalCopySharedArrayBuffer@ivm@@V?$Local@VSharedArrayBuffer@v8@@@v8@@@std@@YA?AV?$unique_ptr@VExternalCopySharedArrayBuffer@ivm@@U?$default_delete@VExternalCopySharedArrayBuffer@ivm@@@std@@@0@$$QEAV?$Local@VSharedArrayBuffer@v8@@@v8@@@Z 000000018001bdb0 f i external_copy.obj
 0001:0001ae10       ??$make_unique@VExternalCopyArrayBufferView@ivm@@V?$unique_ptr@VExternalCopyArrayBuffer@ivm@@U?$default_delete@VExternalCopyArrayBuffer@ivm@@@std@@@std@@AEAW4ViewType@12@@std@@YA?AV?$unique_ptr@VExternalCopyArrayBufferView@ivm@@U?$default_delete@VExternalCopyArrayBufferView@ivm@@@std@@@0@$$QEAV?$unique_ptr@VExternalCopyArrayBuffer@ivm@@U?$default_delete@VExternalCopyArrayBuffer@ivm@@@std@@@0@AEAW4ViewType@ExternalCopyArrayBufferView@ivm@@@Z 000000018001be10 f i external_copy.obj
 0001:0001ae10       ??$make_unique@VExternalCopyArrayBufferView@ivm@@V?$unique_ptr@VExternalCopySharedArrayBuffer@ivm@@U?$default_delete@VExternalCopySharedArrayBuffer@ivm@@@std@@@std@@AEAW4ViewType@12@@std@@YA?AV?$unique_ptr@VExternalCopyArrayBufferView@ivm@@U?$default_delete@VExternalCopyArrayBufferView@ivm@@@std@@@0@$$QEAV?$unique_ptr@VExternalCopySharedArrayBuffer@ivm@@U?$default_delete@VExternalCopySharedArrayBuffer@ivm@@@std@@@0@AEAW4ViewType@ExternalCopyArrayBufferView@ivm@@@Z 000000018001be10 f i external_copy.obj
 0001:0001aea0       ??$make_unique@VExternalCopySerialized@ivm@@U?$pair@PEAE_K@std@@V?$vector@V?$unique_ptr@VTransferable@ivm@@U?$default_delete@VTransferable@ivm@@@std@@@std@@V?$allocator@V?$unique_ptr@VTransferable@ivm@@U?$default_delete@VTransferable@ivm@@@std@@@std@@@2@@4@V?$vector@V?$unique_ptr@VExternalCopyArrayBuffer@ivm@@U?$default_delete@VExternalCopyArrayBuffer@ivm@@@std@@@std@@V?$allocator@V?$unique_ptr@VExternalCopyArrayBuffer@ivm@@U?$default_delete@VExternalCopyArrayBuffer@ivm@@@std@@@std@@@2@@4@V?$vector@V?$unique_ptr@VExternalCopySharedArrayBuffer@ivm@@U?$default_delete@VExternalCopySharedArrayBuffer@ivm@@@std@@@std@@V?$allocator@V?$unique_ptr@VExternalCopySharedArrayBuffer@ivm@@U?$default_delete@VExternalCopySharedArrayBuffer@ivm@@@std@@@std@@@2@@4@@std@@YA?AV?$unique_ptr@VExternalCopySerialized@ivm@@U?$default_delete@VExternalCopySerialized@ivm@@@std@@@0@$$QEAU?$pair@PEAE_K@0@$$QEAV?$vector@V?$unique_ptr@VTransferable@ivm@@U?$default_delete@VTransferable@ivm@@@std@@@std@@V?$allocator@V?$unique_ptr@VTransferable@ivm@@U?$default_delete@VTransferable@ivm@@@std@@@std@@@2@@0@$$QEAV?$vector@V?$unique_ptr@VExternalCopyArrayBuffer@ivm@@U?$default_delete@VExternalCopyArrayBuffer@ivm@@@std@@@std@@V?$allocator@V?$unique_ptr@VExternalCopyArrayBuffer@ivm@@U?$default_delete@VExternalCopyArrayBuffer@ivm@@@std@@@std@@@2@@0@$$QEAV?$vector@V?$unique_ptr@VExternalCopySharedArrayBuffer@ivm@@U?$default_delete@VExternalCopySharedArrayBuffer@ivm@@@std@@@std@@V?$allocator@V?$unique_ptr@VExternalCopySharedArrayBuffer@ivm@@U?$default_delete@VExternalCopySharedArrayBuffer@ivm@@@std@@@std@@@2@@0@@Z 000000018001bea0 f i external_copy.obj
 0001:0001afb0       ??$make_unique@V?$ExternalCopyTemplate@VBoolean@v8@@_N@ivm@@AEBV?$Local@VValue@v8@@@v8@@@std@@YA?AV?$unique_ptr@V?$ExternalCopyTemplate@VBoolean@v8@@_N@ivm@@U?$default_delete@V?$ExternalCopyTemplate@VBoolean@v8@@_N@ivm@@@std@@@0@AEBV?$Local@VValue@v8@@@v8@@@Z 000000018001bfb0 f i external_copy.obj
 0001:0001b030       ??$make_unique@V?$ExternalCopyTemplate@VUint32@v8@@I@ivm@@AEBV?$Local@VValue@v8@@@v8@@@std@@YA?AV?$unique_ptr@V?$ExternalCopyTemplate@VUint32@v8@@I@ivm@@U?$default_delete@V?$ExternalCopyTemplate@VUint32@v8@@I@ivm@@@std@@@0@AEBV?$Local@VValue@v8@@@v8@@@Z 000000018001c030 f i external_copy.obj
 0001:0001b0b0       ??$make_unique@V?$ExternalCopyTemplate@VInt32@v8@@H@ivm@@AEBV?$Local@VValue@v8@@@v8@@@std@@YA?AV?$unique_ptr@V?$ExternalCopyTemplate@VInt32@v8@@H@ivm@@U?$default_delete@V?$ExternalCopyTemplate@VInt32@v8@@H@ivm@@@std@@@0@AEBV?$Local@VValue@v8@@@v8@@@Z 000000018001c0b0 f i external_copy.obj
 0001:0001b130       ??$make_unique@V?$ExternalCopyTemplate@VNumber@v8@@N@ivm@@AEBV?$Local@VValue@v8@@@v8@@@std@@YA?AV?$unique_ptr@V?$ExternalCopyTemplate@VNumber@v8@@N@ivm@@U?$default_delete@V?$ExternalCopyTemplate@VNumber@v8@@N@ivm@@@std@@@0@AEBV?$Local@VValue@v8@@@v8@@@Z 000000018001c130 f i external_copy.obj
 0001:0001b1b0       ??$make_unique@VExternalCopyString@ivm@@V?$Local@VString@v8@@@v8@@@std@@YA?AV?$unique_ptr@VExternalCopyString@ivm@@U?$default_delete@VExternalCopyString@ivm@@@std@@@0@$$QEAV?$Local@VString@v8@@@v8@@@Z 000000018001c1b0 f i external_copy.obj
 0001:0001b1b0       ??$make_unique@VExternalCopyString@ivm@@AEBV?$Local@VString@v8@@@v8@@@std@@YA?AV?$unique_ptr@VExternalCopyString@ivm@@U?$default_delete@VExternalCopyString@ivm@@@std@@@0@AEBV?$Local@VString@v8@@@v8@@@Z 000000018001c1b0 f i isolate_handle.obj
 0001:0001b210       ??$make_unique@VExternalCopyNull@ivm@@$$V@std@@YA?AV?$unique_ptr@VExternalCopyNull@ivm@@U?$default_delete@VExternalCopyNull@ivm@@@std@@@0@XZ 000000018001c210 f i external_copy.obj
 0001:0001b250       ??$make_unique@VExternalCopyUndefined@ivm@@$$V@std@@YA?AV?$unique_ptr@VExternalCopyUndefined@ivm@@U?$default_delete@VExternalCopyUndefined@ivm@@@std@@@0@XZ 000000018001c250 f i external_copy.obj
 0001:0001b290       ??$make_unique@VExternalCopyString@ivm@@AEAY00$$CBD@std@@YA?AV?$unique_ptr@VExternalCopyString@ivm@@U?$default_delete@VExternalCopyString@ivm@@@std@@@0@AEAY00$$CBD@Z 000000018001c290 f i external_copy.obj
 0001:0001b320       ??$make_unique@VExternalCopyError@ivm@@AEAW4ErrorType@12@V?$unique_ptr@VExternalCopyString@ivm@@U?$default_delete@VExternalCopyString@ivm@@@std@@@std@@V45@@std@@YA?AV?$unique_ptr@VExternalCopyError@ivm@@U?$default_delete@VExternalCopyError@ivm@@@std@@@0@AEAW4ErrorType@ExternalCopyError@ivm@@$$QEAV?$unique_ptr@VExternalCopyString@ivm@@U?$default_delete@VExternalCopyString@ivm@@@std@@@0@1@Z 000000018001c320 f i external_copy.obj
 0001:0001b3a0       ??$make_shared@V?$vector@DV?$allocator@D@std@@@std@@H@std@@YA?AV?$shared_ptr@V?$vector@DV?$allocator@D@std@@@std@@@0@$$QEAH@Z 000000018001c3a0 f i external_copy.obj
 0001:0001b460       ??$make_shared@V?$vector@DV?$allocator@D@std@@@std@@AEAPEBDPEBD@std@@YA?AV?$shared_ptr@V?$vector@DV?$allocator@D@std@@@std@@@0@AEAPEBD$$QEAPEBD@Z 000000018001c460 f i external_copy.obj
 0001:0001b550       ??$make_shared@V?$vector@DV?$allocator@D@std@@@std@@V?$_String_const_iterator@V?$_String_val@U?$_Simple_types@D@std@@@std@@@2@V32@@std@@YA?AV?$shared_ptr@V?$vector@DV?$allocator@D@std@@@std@@@0@$$QEAV?$_String_const_iterator@V?$_String_val@U?$_Simple_types@D@std@@@std@@@0@0@Z 000000018001c550 f i external_copy.obj
 0001:0001b640       ??$make_unique@VExternalCopyString@ivm@@AEAPEBD@std@@YA?AV?$unique_ptr@VExternalCopyString@ivm@@U?$default_delete@VExternalCopyString@ivm@@@std@@@0@AEAPEBD@Z 000000018001c640 f i external_copy.obj
 0001:0001b6e0       ??$make_unique@VExternalCopyString@ivm@@V?$basic_string@DU?$char_traits@D@std@@V?$allocator@D@2@@std@@@std@@YA?AV?$unique_ptr@VExternalCopyString@ivm@@U?$default_delete@VExternalCopyString@ivm@@@std@@@0@$$QEAV?$basic_string@DU?$char_traits@D@std@@V?$allocator@D@2@@0@@Z 000000018001c6e0 f i external_copy.obj
 0001:0001b780       ??$make_unique@VExternalCopyArrayBuffer@ivm@@V?$shared_ptr@X@std@@AEA_K@std@@YA?AV?$unique_ptr@VExternalCopyArrayBuffer@ivm@@U?$default_delete@VExternalCopyArrayBuffer@ivm@@@std@@@0@$$QEAV?$shared_ptr@X@0@AEA_K@Z 000000018001c780 f i external_copy.obj
 0001:0001b800       ??$atomic_store@X@std@@YAXPEAV?$shared_ptr@X@0@V10@@Z 000000018001c800 f i external_copy.obj
 0001:0001b8d0       ??$NewTypedArrayView@VArrayBuffer@v8@@@ivm@@YA?AV?$Local@VValue@v8@@@v8@@V?$Local@VArrayBuffer@v8@@@2@W4ViewType@ExternalCopyArrayBufferView@0@@Z 000000018001c8d0 f i external_copy.obj
 0001:0001ba80       ??$NewTypedArrayView@VSharedArrayBuffer@v8@@@ivm@@YA?AV?$Local@VValue@v8@@@v8@@V?$Local@VSharedArrayBuffer@v8@@@2@W4ViewType@ExternalCopyArrayBufferView@0@@Z 000000018001ca80 f i external_copy.obj
 0001:0001bc30       ?_Destroy@?$_Ref_count_obj@V?$vector@DV?$allocator@D@std@@@std@@@std@@EEAAXXZ 000000018001cc30 f i external_copy.obj
 0001:0001bc40       ?_Reserve@?$vector@V?$unique_ptr@VTransferable@ivm@@U?$default_delete@VTransferable@ivm@@@std@@@std@@V?$allocator@V?$unique_ptr@VTransferable@ivm@@U?$default_delete@VTransferable@ivm@@@std@@@std@@@2@@std@@IEAAX_K@Z 000000018001cc40 f i reference_handle.obj
 0001:0001bc40       ?_Reserve@?$vector@V?$unique_ptr@VExternalCopySharedArrayBuffer@ivm@@U?$default_delete@VExternalCopySharedArrayBuffer@ivm@@@std@@@std@@V?$allocator@V?$unique_ptr@VExternalCopySharedArrayBuffer@ivm@@U?$default_delete@VExternalCopySharedArrayBuffer@ivm@@@std@@@std@@@2@@std@@IEAAX_K@Z 000000018001cc40 f i nortti:external_copy_nortti.obj
 0001:0001bc40       ?_Reserve@?$vector@V?$unique_ptr@VExternalCopyArrayBuffer@ivm@@U?$default_delete@VExternalCopyArrayBuffer@ivm@@@std@@@std@@V?$allocator@V?$unique_ptr@VExternalCopyArrayBuffer@ivm@@U?$default_delete@VExternalCopyArrayBuffer@ivm@@@std@@@std@@@2@@std@@IEAAX_K@Z 000000018001cc40 f i external_copy.obj
 0001:0001bcd0       ?_Tidy@?$vector@DV?$allocator@D@std@@@std@@IEAAXXZ 000000018001ccd0 f i external_copy.obj
 0001:0001bd40       ??_E?$_Ref_count_obj@V?$RemoteHandle@VUnboundScript@v8@@@ivm@@@std@@UEAAPEAXI@Z 000000018001cd40 f i * CIL library *:* CIL module *
 0001:0001bd40       ??_G?$_Ref_count_obj@V?$vector@DV?$allocator@D@std@@@std@@@std@@UEAAPEAXI@Z 000000018001cd40 f i external_copy.obj
 0001:0001bd40       ??_E?$_Ref_count_obj@V?$RemoteHandle@VValue@v8@@@ivm@@@std@@UEAAPEAXI@Z 000000018001cd40 f i * CIL library *:* CIL module *
 0001:0001bd40       ??_G?$_Ref_count_obj@V?$RemoteHandle@VContext@v8@@@ivm@@@std@@UEAAPEAXI@Z 000000018001cd40 f i reference_handle.obj
 0001:0001bd40       ??_E?$_Ref_count_obj@VNativeModule@NativeModuleHandle@ivm@@@std@@UEAAPEAXI@Z 000000018001cd40 f i * CIL library *:* CIL module *
 0001:0001bd40       ??_G?$_Ref_count_obj@V?$RemoteHandle@VUnboundScript@v8@@@ivm@@@std@@UEAAPEAXI@Z 000000018001cd40 f i isolate_handle.obj
 0001:0001bd40       ??_E?$_Ref_count_obj@V?$vector@DV?$allocator@D@std@@@std@@@std@@UEAAPEAXI@Z 000000018001cd40 f i * CIL library *:* CIL module *
 0001:0001bd40       ??_E?$_Ref_count_obj@V?$RemoteHandle@VContext@v8@@@ivm@@@std@@UEAAPEAXI@Z 000000018001cd40 f i * CIL library *:* CIL module *
 0001:0001bd40       ??_G?$_Ref_count_obj@VNativeModule@NativeModuleHandle@ivm@@@std@@UEAAPEAXI@Z 000000018001cd40 f i native_module_handle.obj
 0001:0001bd40       ??_G?$_Ref_count_obj@V?$RemoteHandle@VFunction@v8@@@ivm@@@std@@UEAAPEAXI@Z 000000018001cd40 f i session_handle.obj
 0001:0001bd40       ??_G?$_Ref_count_obj@V?$RemoteHandle@VValue@v8@@@ivm@@@std@@UEAAPEAXI@Z 000000018001cd40 f i isolate_handle.obj
 0001:0001bd40       ??_E?$_Ref_count_obj@V?$RemoteHandle@VFunction@v8@@@ivm@@@std@@UEAAPEAXI@Z 000000018001cd40 f i * CIL library *:* CIL module *
 0001:0001bd70       ?_Destroy@?$_Ref_count_del@XP6AXPEAX@Z@std@@EEAAXXZ 000000018001cd70 f i external_copy.obj
 0001:0001bd80       ?_Get_deleter@?$_Ref_count_del@XP6AXPEAX@Z@std@@UEBAPEAXAEBVtype_info@@@Z 000000018001cd80 f i external_copy.obj
 0001:0001bdb0       ??_G?$_Ref_count_del@XP6AXPEAX@Z@std@@UEAAPEAXI@Z 000000018001cdb0 f i external_copy.obj
 0001:0001bdb0       ??_G?$_Ref_count_obj@VIsolateHolder@ivm@@@std@@UEAAPEAXI@Z 000000018001cdb0 f i isolate.obj
 0001:0001bdb0       ??_E?$_Ref_count_obj@VIsolateHolder@ivm@@@std@@UEAAPEAXI@Z 000000018001cdb0 f i * CIL library *:* CIL module *
 0001:0001bdb0       ??_E?$_Ref_count_del@XP6AXPEAX@Z@std@@UEAAPEAXI@Z 000000018001cdb0 f i * CIL library *:* CIL module *
 0001:0001bde0       ?_Buy@?$vector@DV?$allocator@D@std@@@std@@IEAA_N_K@Z 000000018001cde0 f i external_copy.obj
 0001:0001be60       ?IsOptionSet@ivm@@YA_NAEBV?$Local@VContext@v8@@@v8@@AEBV?$Local@VObject@v8@@@3@PEBD@Z 000000018001ce60 f i external_copy_handle.obj
 0001:0001bf70       ?RequireConstructorCall@ivm@@YAXAEBV?$FunctionCallbackInfo@VValue@v8@@@v8@@@Z 000000018001cf70 f i external_copy_handle.obj
 0001:0001c0f0       ?Convert@?$ConvertParam@V?$MaybeLocal@VObject@v8@@@v8@@@ivm@@SA?AV?$MaybeLocal@VObject@v8@@@v8@@AEBV?$Local@VValue@v8@@@4@@Z 000000018001d0f0 f i external_copy_handle.obj
 0001:0001c1a0       ?TransferIn@ExternalCopyTransferable@ExternalCopyHandle@ivm@@UEAA?AV?$Local@VValue@v8@@@v8@@XZ 000000018001d1a0 f   external_copy_handle.obj
 0001:0001c1d0       ??0ExternalCopyHandle@ivm@@QEAA@V?$shared_ptr@VExternalCopy@ivm@@@std@@@Z 000000018001d1d0 f   external_copy_handle.obj
 0001:0001c2a0       ??_EExternalCopyHandle@ivm@@UEAAPEAXI@Z 000000018001d2a0 f i * CIL library *:* CIL module *
 0001:0001c2a0       ??_GExternalCopyHandle@ivm@@UEAAPEAXI@Z 000000018001d2a0 f i external_copy_handle.obj
 0001:0001c2e0       ??1ExternalCopyHandle@ivm@@UEAA@XZ 000000018001d2e0 f   external_copy_handle.obj
 0001:0001c3c0       ?Definition@ExternalCopyHandle@ivm@@SA?AV?$Local@VFunctionTemplate@v8@@@v8@@XZ 000000018001d3c0 f   external_copy_handle.obj
 0001:0001c4f0       ?TransferOut@ExternalCopyHandle@ivm@@UEAA?AV?$unique_ptr@VTransferable@ivm@@U?$default_delete@VTransferable@ivm@@@std@@@std@@XZ 000000018001d4f0 f   external_copy_handle.obj
 0001:0001c540       ?New@ExternalCopyHandle@ivm@@SA?AV?$unique_ptr@VExternalCopyHandle@ivm@@U?$default_delete@VExternalCopyHandle@ivm@@@std@@@std@@V?$Local@VValue@v8@@@v8@@V?$MaybeLocal@VObject@v8@@@6@@Z 000000018001d540 f   external_copy_handle.obj
 0001:0001ca60       ?CheckDisposed@ExternalCopyHandle@ivm@@AEAAXXZ 000000018001da60 f   external_copy_handle.obj
 0001:0001cb90       ?TotalExternalSizeGetter@ExternalCopyHandle@ivm@@SA?AV?$Local@VValue@v8@@@v8@@XZ 000000018001db90 f   external_copy_handle.obj
 0001:0001cbf0       ?Copy@ExternalCopyHandle@ivm@@QEAA?AV?$Local@VValue@v8@@@v8@@V?$MaybeLocal@VObject@v8@@@4@@Z 000000018001dbf0 f   external_copy_handle.obj
 0001:0001cd10       ?Release@ExternalCopyHandle@ivm@@QEAA?AV?$Local@VValue@v8@@@v8@@XZ 000000018001dd10 f   external_copy_handle.obj
 0001:0001cdd0       ??0ExternalCopyIntoTransferable@ExternalCopyIntoHandle@ivm@@QEAA@V?$shared_ptr@VExternalCopy@ivm@@@std@@_N@Z 000000018001ddd0 f   external_copy_handle.obj
 0001:0001ce60       ??_GExternalCopyIntoTransferable@ExternalCopyIntoHandle@ivm@@UEAAPEAXI@Z 000000018001de60 f i external_copy_handle.obj
 0001:0001ce60       ??_EExternalCopyIntoTransferable@ExternalCopyIntoHandle@ivm@@UEAAPEAXI@Z 000000018001de60 f i * CIL library *:* CIL module *
 0001:0001cef0       ?TransferIn@ExternalCopyIntoTransferable@ExternalCopyIntoHandle@ivm@@UEAA?AV?$Local@VValue@v8@@@v8@@XZ 000000018001def0 f   external_copy_handle.obj
 0001:0001cf10       ??0ExternalCopyIntoHandle@ivm@@QEAA@V?$shared_ptr@VExternalCopy@ivm@@@std@@_N@Z 000000018001df10 f   external_copy_handle.obj
 0001:0001cfa0       ??_EExternalCopyIntoHandle@ivm@@UEAAPEAXI@Z 000000018001dfa0 f i * CIL library *:* CIL module *
 0001:0001cfa0       ??_GExternalCopyIntoHandle@ivm@@UEAAPEAXI@Z 000000018001dfa0 f i external_copy_handle.obj
 0001:0001cfe0       ??1SessionHandle@ivm@@UEAA@XZ 000000018001dfe0 f i session_handle.obj
 0001:0001cfe0       ??1ModuleHandle@ivm@@UEAA@XZ 000000018001dfe0 f i module_handle.obj
 0001:0001cfe0       ??1ExternalCopyIntoHandle@ivm@@UEAA@XZ 000000018001dfe0 f i external_copy_handle.obj
 0001:0001cfe0       ??1IsolateHandle@ivm@@UEAA@XZ 000000018001dfe0 f i isolate_handle.obj
 0001:0001cfe0       ??1NativeModuleHandle@ivm@@UEAA@XZ 000000018001dfe0 f i native_module_handle.obj
 0001:0001d080       ?TransferOut@ExternalCopyIntoHandle@ivm@@UEAA?AV?$unique_ptr@VTransferable@ivm@@U?$default_delete@VTransferable@ivm@@@std@@@std@@XZ 000000018001e080 f   external_copy_handle.obj
 0001:0001d1f0       ??$NewInstance@VExternalCopyHandle@ivm@@AEAV?$shared_ptr@VExternalCopyArrayBuffer@ivm@@@std@@@ClassHandle@ivm@@SA?AV?$Local@VObject@v8@@@v8@@AEAV?$shared_ptr@VExternalCopyArrayBuffer@ivm@@@std@@@Z 000000018001e1f0 f i isolate_handle.obj
 0001:0001d1f0       ??$NewInstance@VExternalCopyHandle@ivm@@AEAV?$shared_ptr@VExternalCopy@ivm@@@std@@@ClassHandle@ivm@@SA?AV?$Local@VObject@v8@@@v8@@AEAV?$shared_ptr@VExternalCopy@ivm@@@std@@@Z 000000018001e1f0 f i external_copy_handle.obj
 0001:0001d2d0       ??$MakeClass@PEBDU?$pair@P6AXAEBV?$FunctionCallbackInfo@VValue@v8@@@v8@@@ZP6AX0@Z@std@@PEBDU?$pair@P6AXAEBV?$FunctionCallbackInfo@VValue@v8@@@v8@@@ZH@2@PEBDU32@PEBDU32@PEBDU32@@ClassHandle@ivm@@KA?AV?$Local@VFunctionTemplate@v8@@@v8@@PEBDUCtorFunction@01@0U?$pair@P6AXAEBV?$FunctionCallbackInfo@VValue@v8@@@v8@@@ZP6AX0@Z@std@@0U?$pair@P6AXAEBV?$FunctionCallbackInfo@VValue@v8@@@v8@@@ZH@6@030303@Z 000000018001e2d0 f i external_copy_handle.obj
 0001:0001d790       ??$make_unique@VExternalCopyTransferable@ExternalCopyHandle@ivm@@AEAV?$shared_ptr@VExternalCopy@ivm@@@std@@@std@@YA?AV?$unique_ptr@VExternalCopyTransferable@ExternalCopyHandle@ivm@@U?$default_delete@VExternalCopyTransferable@ExternalCopyHandle@ivm@@@std@@@0@AEAV?$shared_ptr@VExternalCopy@ivm@@@0@@Z 000000018001e790 f i external_copy_handle.obj
 0001:0001d820       ??$make_unique@VExternalCopyHandle@ivm@@V?$shared_ptr@VExternalCopy@ivm@@@std@@@std@@YA?AV?$unique_ptr@VExternalCopyHandle@ivm@@U?$default_delete@VExternalCopyHandle@ivm@@@std@@@0@$$QEAV?$shared_ptr@VExternalCopy@ivm@@@0@@Z 000000018001e820 f i external_copy_handle.obj
 0001:0001d820       ??$make_unique@VExternalCopyHandle@ivm@@V?$shared_ptr@VExternalCopyArrayBuffer@ivm@@@std@@@std@@YA?AV?$unique_ptr@VExternalCopyHandle@ivm@@U?$default_delete@VExternalCopyHandle@ivm@@@std@@@0@$$QEAV?$shared_ptr@VExternalCopyArrayBuffer@ivm@@@0@@Z 000000018001e820 f i isolate_handle.obj
 0001:0001d8a0       ??$NewInstance@VExternalCopyIntoHandle@ivm@@AEAV?$shared_ptr@VExternalCopy@ivm@@@std@@AEA_N@ClassHandle@ivm@@SA?AV?$Local@VObject@v8@@@v8@@AEAV?$shared_ptr@VExternalCopy@ivm@@@std@@AEA_N@Z 000000018001e8a0 f i external_copy_handle.obj
 0001:0001d9a0       ??$make_unique@VExternalCopyIntoTransferable@ExternalCopyIntoHandle@ivm@@V?$shared_ptr@VExternalCopy@ivm@@@std@@AEA_N@std@@YA?AV?$unique_ptr@VExternalCopyIntoTransferable@ExternalCopyIntoHandle@ivm@@U?$default_delete@VExternalCopyIntoTransferable@ExternalCopyIntoHandle@ivm@@@std@@@0@$$QEAV?$shared_ptr@VExternalCopy@ivm@@@0@AEA_N@Z 000000018001e9a0 f i external_copy_handle.obj
 0001:0001da20       ??$GetFunctionTemplate@VExternalCopyHandle@ivm@@@ClassHandle@ivm@@SA?AV?$Local@VFunctionTemplate@v8@@@v8@@XZ 000000018001ea20 f i external_copy_handle.obj
 0001:0001db20       ??$make_unique@VExternalCopyHandle@ivm@@AEAV?$shared_ptr@VExternalCopy@ivm@@@std@@@std@@YA?AV?$unique_ptr@VExternalCopyHandle@ivm@@U?$default_delete@VExternalCopyHandle@ivm@@@std@@@0@AEAV?$shared_ptr@VExternalCopy@ivm@@@0@@Z 000000018001eb20 f i external_copy_handle.obj
 0001:0001db20       ??$make_unique@VExternalCopyHandle@ivm@@AEAV?$shared_ptr@VExternalCopyArrayBuffer@ivm@@@std@@@std@@YA?AV?$unique_ptr@VExternalCopyHandle@ivm@@U?$default_delete@VExternalCopyHandle@ivm@@@std@@@0@AEAV?$shared_ptr@VExternalCopyArrayBuffer@ivm@@@0@@Z 000000018001eb20 f i isolate_handle.obj
 0001:0001dbb0       ??$ParameterizeCtorEntry@P6A?AV?$unique_ptr@VExternalCopyHandle@ivm@@U?$default_delete@VExternalCopyHandle@ivm@@@std@@@std@@V?$Local@VValue@v8@@@v8@@V?$MaybeLocal@VObject@v8@@@4@@Z$1?New@ExternalCopyHandle@ivm@@SA?AV12@01@Z@ClassHandle@ivm@@CAXAEBV?$FunctionCallbackInfo@VValue@v8@@@v8@@@Z 000000018001ebb0 f i external_copy_handle.obj
 0001:0001dbc0       ??$ParameterizeEntry@$0A@P6A?AV?$Local@VValue@v8@@@v8@@XZ$1?TotalExternalSizeGetter@ExternalCopyHandle@ivm@@SA?AV12@XZ@ClassHandle@ivm@@CAXAEBV?$FunctionCallbackInfo@VValue@v8@@@v8@@@Z 000000018001ebc0 f i external_copy_handle.obj
 0001:0001dbd0       ??$Invoke@$1?Copy@ExternalCopyHandle@ivm@@QEAA?AV?$Local@VValue@v8@@@v8@@V?$MaybeLocal@VObject@v8@@@5@@Z@?$MethodCast@P8ExternalCopyHandle@ivm@@EAA?AV?$Local@VValue@v8@@@v8@@V?$MaybeLocal@VObject@v8@@@4@@Z@ClassHandle@ivm@@SA?AV?$Local@VValue@v8@@@v8@@PEAVExternalCopyHandle@2@V?$MaybeLocal@VObject@v8@@@4@@Z 000000018001ebd0 f i external_copy_handle.obj
 0001:0001dc00       ??$ParameterizeEntry@$0?0P6A?AV?$Local@VValue@v8@@@v8@@PEAVExternalCopyHandle@ivm@@V?$MaybeLocal@VObject@v8@@@2@@Z$1??$Invoke@$1?Copy@ExternalCopyHandle@ivm@@QEAA?AV?$Local@VValue@v8@@@v8@@V?$MaybeLocal@VObject@v8@@@5@@Z@?$MethodCast@P8ExternalCopyHandle@ivm@@EAA?AV?$Local@VValue@v8@@@v8@@V?$MaybeLocal@VObject@v8@@@4@@Z@ClassHandle@4@SA?AV12@01@Z@ClassHandle@ivm@@CAXAEBV?$FunctionCallbackInfo@VValue@v8@@@v8@@@Z 000000018001ec00 f i external_copy_handle.obj
 0001:0001dc10       ??$Invoke@$1?CopyInto@ExternalCopyHandle@ivm@@QEAA?AV?$Local@VValue@v8@@@v8@@V?$MaybeLocal@VObject@v8@@@5@@Z@?$MethodCast@P8ExternalCopyHandle@ivm@@EAA?AV?$Local@VValue@v8@@@v8@@V?$MaybeLocal@VObject@v8@@@4@@Z@ClassHandle@ivm@@SA?AV?$Local@VValue@v8@@@v8@@PEAVExternalCopyHandle@2@V?$MaybeLocal@VObject@v8@@@4@@Z 000000018001ec10 f i external_copy_handle.obj
 0001:0001dcd0       ??$ParameterizeEntry@$0?0P6A?AV?$Local@VValue@v8@@@v8@@PEAVExternalCopyHandle@ivm@@V?$MaybeLocal@VObject@v8@@@2@@Z$1??$Invoke@$1?CopyInto@ExternalCopyHandle@ivm@@QEAA?AV?$Local@VValue@v8@@@v8@@V?$MaybeLocal@VObject@v8@@@5@@Z@?$MethodCast@P8ExternalCopyHandle@ivm@@EAA?AV?$Local@VValue@v8@@@v8@@V?$MaybeLocal@VObject@v8@@@4@@Z@ClassHandle@4@SA?AV12@01@Z@ClassHandle@ivm@@CAXAEBV?$FunctionCallbackInfo@VValue@v8@@@v8@@@Z 000000018001ecd0 f i external_copy_handle.obj
 0001:0001dce0       ??$Invoke@$1?Dispose@ExternalCopyHandle@ivm@@QEAA?AV?$Local@VValue@v8@@@v8@@XZ@?$MethodCast@P8ExternalCopyHandle@ivm@@EAA?AV?$Local@VValue@v8@@@v8@@XZ@ClassHandle@ivm@@SA?AV?$Local@VValue@v8@@@v8@@PEAVExternalCopyHandle@2@@Z 000000018001ece0 f i external_copy_handle.obj
 0001:0001dd10       ??$ParameterizeEntry@$0?0P6A?AV?$Local@VValue@v8@@@v8@@PEAVExternalCopyHandle@ivm@@@Z$1??$Invoke@$1?Dispose@ExternalCopyHandle@ivm@@QEAA?AV?$Local@VValue@v8@@@v8@@XZ@?$MethodCast@P8ExternalCopyHandle@ivm@@EAA?AV?$Local@VValue@v8@@@v8@@XZ@ClassHandle@4@SA?AV12@0@Z@ClassHandle@ivm@@CAXAEBV?$FunctionCallbackInfo@VValue@v8@@@v8@@@Z 000000018001ed10 f i external_copy_handle.obj
 0001:0001dd20       ??$Invoke@$1?Release@ExternalCopyHandle@ivm@@QEAA?AV?$Local@VValue@v8@@@v8@@XZ@?$MethodCast@P8ExternalCopyHandle@ivm@@EAA?AV?$Local@VValue@v8@@@v8@@XZ@ClassHandle@ivm@@SA?AV?$Local@VValue@v8@@@v8@@PEAVExternalCopyHandle@2@@Z 000000018001ed20 f i external_copy_handle.obj
 0001:0001dd50       ??$ParameterizeEntry@$0?0P6A?AV?$Local@VValue@v8@@@v8@@PEAVExternalCopyHandle@ivm@@@Z$1??$Invoke@$1?Release@ExternalCopyHandle@ivm@@QEAA?AV?$Local@VValue@v8@@@v8@@XZ@?$MethodCast@P8ExternalCopyHandle@ivm@@EAA?AV?$Local@VValue@v8@@@v8@@XZ@ClassHandle@4@SA?AV12@0@Z@ClassHandle@ivm@@CAXAEBV?$FunctionCallbackInfo@VValue@v8@@@v8@@@Z 000000018001ed50 f i external_copy_handle.obj
 0001:0001dd60       ??$GetFunctionTemplate@VExternalCopyIntoHandle@ivm@@@ClassHandle@ivm@@SA?AV?$Local@VFunctionTemplate@v8@@@v8@@XZ 000000018001ed60 f i external_copy_handle.obj
 0001:0001dea0       ??$make_unique@VExternalCopyIntoHandle@ivm@@AEAV?$shared_ptr@VExternalCopy@ivm@@@std@@AEA_N@std@@YA?AV?$unique_ptr@VExternalCopyIntoHandle@ivm@@U?$default_delete@VExternalCopyIntoHandle@ivm@@@std@@@0@AEAV?$shared_ptr@VExternalCopy@ivm@@@0@AEA_N@Z 000000018001eea0 f i external_copy_handle.obj
 0001:0001df30       ?_Get_deleter@?$_Ref_count_del@VExternalCopy@ivm@@U?$default_delete@VExternalCopy@ivm@@@std@@@std@@UEBAPEAXAEBVtype_info@@@Z 000000018001ef30 f i external_copy_handle.obj
 0001:0001df60       ??$ParameterizeHelperCtorStart@$0A@VExternalCopyHandle@ivm@@V?$Local@VValue@v8@@@v8@@V?$MaybeLocal@VObject@v8@@@4@@ClassHandle@ivm@@CA?AV?$Local@VValue@v8@@@v8@@AEBV?$FunctionCallbackInfo@VValue@v8@@@3@P6A?AV?$unique_ptr@VExternalCopyHandle@ivm@@U?$default_delete@VExternalCopyHandle@ivm@@@std@@@std@@V23@V?$MaybeLocal@VObject@v8@@@3@@Z@Z 000000018001ef60 f i external_copy_handle.obj
 0001:0001dff0       ??$RunCallback@V<lambda_58e9ffc98148cb7ab47fd48ae016b1bc>@@$$CBV?$FunctionCallbackInfo@VValue@v8@@@v8@@@FunctorRunners@ivm@@YAXAEBV?$FunctionCallbackInfo@VValue@v8@@@v8@@V<lambda_58e9ffc98148cb7ab47fd48ae016b1bc>@@@Z 000000018001eff0 f i external_copy_handle.obj
 0001:0001e060       ??$RunCallback@V<lambda_df815a9faf869a6be7e7a2f111c46ed6>@@$$CBV?$FunctionCallbackInfo@VValue@v8@@@v8@@@FunctorRunners@ivm@@YAXAEBV?$FunctionCallbackInfo@VValue@v8@@@v8@@V<lambda_df815a9faf869a6be7e7a2f111c46ed6>@@@Z 000000018001f060 f i external_copy_handle.obj
 0001:0001e0c0       ??$RunCallback@V<lambda_b90d1d89401c0125364acc2ad59e609c>@@$$CBV?$FunctionCallbackInfo@VValue@v8@@@v8@@@FunctorRunners@ivm@@YAXAEBV?$FunctionCallbackInfo@VValue@v8@@@v8@@V<lambda_b90d1d89401c0125364acc2ad59e609c>@@@Z 000000018001f0c0 f i external_copy_handle.obj
 0001:0001e160       ??$RunCallback@V<lambda_e3908d3c20ce212f7bce7bd1faf818fe>@@$$CBV?$FunctionCallbackInfo@VValue@v8@@@v8@@@FunctorRunners@ivm@@YAXAEBV?$FunctionCallbackInfo@VValue@v8@@@v8@@V<lambda_e3908d3c20ce212f7bce7bd1faf818fe>@@@Z 000000018001f160 f i external_copy_handle.obj
 0001:0001e200       ??$RunCallback@V<lambda_a23b602f7e8d340b653123d087cf622c>@@$$CBV?$FunctionCallbackInfo@VValue@v8@@@v8@@@FunctorRunners@ivm@@YAXAEBV?$FunctionCallbackInfo@VValue@v8@@@v8@@V<lambda_a23b602f7e8d340b653123d087cf622c>@@@Z 000000018001f200 f i external_copy_handle.obj
 0001:0001e270       ??$RunCallback@V<lambda_b4b2ebd90c9ee05ec6fc6bf253a529e0>@@$$CBV?$FunctionCallbackInfo@VValue@v8@@@v8@@@FunctorRunners@ivm@@YAXAEBV?$FunctionCallbackInfo@VValue@v8@@@v8@@V<lambda_b4b2ebd90c9ee05ec6fc6bf253a529e0>@@@Z 000000018001f270 f i external_copy_handle.obj
 0001:0001e2e0       ??$ParameterizeHelper@AEBV?$FunctionCallbackInfo@VValue@v8@@@v8@@$0A@P6A?AV?$unique_ptr@VExternalCopyHandle@ivm@@U?$default_delete@VExternalCopyHandle@ivm@@@std@@@std@@V?$Local@VValue@v8@@@2@V?$MaybeLocal@VObject@v8@@@2@@ZV34@V?$tuple@$$V@4@V52@V62@@ClassHandle@ivm@@CA?AV?$unique_ptr@VExternalCopyHandle@ivm@@U?$default_delete@VExternalCopyHandle@ivm@@@std@@@std@@P6A?AV23@V?$Local@VValue@v8@@@v8@@V?$MaybeLocal@VObject@v8@@@5@@ZV?$tuple@$$V@3@AEBV?$FunctionCallbackInfo@VValue@v8@@@5@@Z 000000018001f2e0 f i external_copy_handle.obj
 0001:0001e330       ?Invoke@?$ConvertParamInvoke@U?$ConvertParam@V?$Local@VValue@v8@@@v8@@@ivm@@$0A@$01@ivm@@SA?AV?$Local@VValue@v8@@@v8@@AEBV?$FunctionCallbackInfo@VValue@v8@@@4@@Z 000000018001f330 f i external_copy_handle.obj
 0001:0001e3f0       ?Invoke@?$ConvertParamInvoke@U?$ConvertParam@PEAVExternalCopyHandle@ivm@@@ivm@@$0?0$00@ivm@@SAPEAVExternalCopyHandle@2@AEBV?$FunctionCallbackInfo@VValue@v8@@@v8@@@Z 000000018001f3f0 f i external_copy_handle.obj
 0001:0001e440       ?Invoke@?$ConvertParamInvoke@U?$ConvertParam@PEAVExternalCopyHandle@ivm@@@ivm@@$0?0$0A@@ivm@@SAPEAVExternalCopyHandle@2@AEBV?$FunctionCallbackInfo@VValue@v8@@@v8@@@Z 000000018001f440 f i external_copy_handle.obj
 0001:0001e490       ?Convert@?$ConvertParam@PEAVExternalCopyHandle@ivm@@@ivm@@SAPEAVExternalCopyHandle@2@V?$Local@VValue@v8@@@v8@@@Z 000000018001f490 f i external_copy_handle.obj
 0001:0001e5d0       ??$ParameterizeHelper@AEBV?$FunctionCallbackInfo@VValue@v8@@@v8@@$0A@P6A?AV?$unique_ptr@VExternalCopyHandle@ivm@@U?$default_delete@VExternalCopyHandle@ivm@@@std@@@std@@V?$Local@VValue@v8@@@2@V?$MaybeLocal@VObject@v8@@@2@@ZV34@V?$tuple@V?$Local@VValue@v8@@@v8@@@4@V62@$$V@ClassHandle@ivm@@CA?AV?$unique_ptr@VExternalCopyHandle@ivm@@U?$default_delete@VExternalCopyHandle@ivm@@@std@@@std@@P6A?AV23@V?$Local@VValue@v8@@@v8@@V?$MaybeLocal@VObject@v8@@@5@@ZV?$tuple@V?$Local@VValue@v8@@@v8@@@3@AEBV?$FunctionCallbackInfo@VValue@v8@@@5@@Z 000000018001f5d0 f i external_copy_handle.obj
 0001:0001e630       ?Invoke@?$ConvertParamInvoke@U?$ConvertParam@V?$MaybeLocal@VObject@v8@@@v8@@@ivm@@$00$01@ivm@@SA?AV?$MaybeLocal@VObject@v8@@@v8@@AEBV?$FunctionCallbackInfo@VValue@v8@@@4@@Z 000000018001f630 f i external_copy_handle.obj
 0001:0001e6d0       ?Invoke@?$ConvertParamInvoke@U?$ConvertParam@V?$MaybeLocal@VObject@v8@@@v8@@@ivm@@$0A@$00@ivm@@SA?AV?$MaybeLocal@VObject@v8@@@v8@@AEBV?$FunctionCallbackInfo@VValue@v8@@@4@@Z 000000018001f6d0 f i external_copy_handle.obj
 0001:0001e760       ??$ParameterizeHelper@AEBV?$FunctionCallbackInfo@VValue@v8@@@v8@@$0A@P6A?AV?$unique_ptr@VExternalCopyHandle@ivm@@U?$default_delete@VExternalCopyHandle@ivm@@@std@@@std@@V?$Local@VValue@v8@@@2@V?$MaybeLocal@VObject@v8@@@2@@ZV34@V?$tuple@V?$Local@VValue@v8@@@v8@@V?$MaybeLocal@VObject@v8@@@2@@4@@ClassHandle@ivm@@CA?AV?$unique_ptr@VExternalCopyHandle@ivm@@U?$default_delete@VExternalCopyHandle@ivm@@@std@@@std@@P6A?AV23@V?$Local@VValue@v8@@@v8@@V?$MaybeLocal@VObject@v8@@@5@@ZV?$tuple@V?$Local@VValue@v8@@@v8@@V?$MaybeLocal@VObject@v8@@@2@@3@AEBV?$FunctionCallbackInfo@VValue@v8@@@5@@Z 000000018001f760 f i external_copy_handle.obj
 0001:0001e7b0       ??$apply_from_tuple@AEAP6A?AV?$unique_ptr@VExternalCopyHandle@ivm@@U?$default_delete@VExternalCopyHandle@ivm@@@std@@@std@@V?$Local@VValue@v8@@@v8@@V?$MaybeLocal@VObject@v8@@@4@@ZV34@V54@@@YA?AV?$unique_ptr@VExternalCopyHandle@ivm@@U?$default_delete@VExternalCopyHandle@ivm@@@std@@@std@@AEAP6A?AV01@V?$Local@VValue@v8@@@v8@@V?$MaybeLocal@VObject@v8@@@3@@ZV?$tuple@V?$Local@VValue@v8@@@v8@@V?$MaybeLocal@VObject@v8@@@2@@1@@Z 000000018001f7b0 f i external_copy_handle.obj
 0001:0001e7d0       ??$apply_tuple_impl@AEAP6A?AV?$unique_ptr@VExternalCopyHandle@ivm@@U?$default_delete@VExternalCopyHandle@ivm@@@std@@@std@@V?$Local@VValue@v8@@@v8@@V?$MaybeLocal@VObject@v8@@@4@@ZV?$tuple@V?$Local@VValue@v8@@@v8@@V?$MaybeLocal@VObject@v8@@@2@@2@$0A@$00@@YA?AV?$unique_ptr@VExternalCopyHandle@ivm@@U?$default_delete@VExternalCopyHandle@ivm@@@std@@@std@@AEAP6A?AV01@V?$Local@VValue@v8@@@v8@@V?$MaybeLocal@VObject@v8@@@3@@Z$$QEAV?$tuple@V?$Local@VValue@v8@@@v8@@V?$MaybeLocal@VObject@v8@@@2@@1@U?$integer_sequence@_K$0A@$00@1@@Z 000000018001f7d0 f i external_copy_handle.obj
 0001:0001e830       ??0timer_data_t@timer_t@ivm@@QEAA@V?$time_point@Usteady_clock@chrono@std@@V?$duration@_JU?$ratio@$00$0DLJKMKAA@@std@@@23@@chrono@std@@V?$function@$$A6AXPEAX@Z@5@@Z 000000018001f830 f i isolate.obj
 0001:0001e8e0       ?run@timer_data_t@timer_t@ivm@@QEAAXAEAV?$unique_lock@Vmutex@std@@@std@@PEAPEAU123@@Z 000000018001f8e0 f i isolate.obj
 0001:0001e990       ??0timer_thread_t@timer_t@ivm@@QEAA@V?$shared_ptr@Utimer_data_t@timer_t@ivm@@@std@@@Z 000000018001f990 f i isolate.obj
 0001:0001eac0       ?entry@timer_thread_t@timer_t@ivm@@QEAAXXZ 000000018001fac0 f i isolate.obj
 0001:0001f570       ?run_and_terminate@timer_thread_t@timer_t@ivm@@QEAAXAEAV?$unique_lock@Vmutex@std@@@std@@AEAUtimer_data_t@23@PEAPEAU623@@Z 0000000180020570 f i isolate.obj
 0001:0001f6f0       ?global_mutex@timer_t@ivm@@CAAEAVmutex@std@@XZ 00000001800206f0 f i isolate.obj
 0001:0001f770       ?global_cv@timer_t@ivm@@CAAEAVcondition_variable@std@@XZ 0000000180020770 f i isolate.obj
 0001:0001f7f0       ?thread_list@timer_t@ivm@@CAAEAV?$unordered_set@PEAVtimer_thread_t@timer_t@ivm@@U?$hash@PEAVtimer_thread_t@timer_t@ivm@@@std@@U?$equal_to@PEAVtimer_thread_t@timer_t@ivm@@@5@V?$allocator@PEAVtimer_thread_t@timer_t@ivm@@@5@@std@@XZ 00000001800207f0 f i isolate.obj
 0001:0001f860       ?start_or_join_timer@timer_t@ivm@@CAXV?$shared_ptr@Utimer_data_t@timer_t@ivm@@@std@@@Z 0000000180020860 f i isolate.obj
 0001:0001fa20       ?wait_detached@timer_t@ivm@@SAXIV?$function@$$A6AXPEAX@Z@std@@@Z 0000000180020a20 f i isolate.obj
 0001:0001fad0       ?chain@timer_t@ivm@@SAXPEAX@Z 0000000180020ad0 f i isolate.obj
 0001:0001fb50       ??1?$priority_queue@V?$shared_ptr@Utimer_data_t@timer_t@ivm@@@std@@V?$deque@V?$shared_ptr@Utimer_data_t@timer_t@ivm@@@std@@V?$allocator@V?$shared_ptr@Utimer_data_t@timer_t@ivm@@@std@@@2@@2@Ucmp@timer_data_t@timer_t@ivm@@@std@@QEAA@XZ 0000000180020b50 f i isolate.obj
 0001:0001fb80       ?Run@TaskHolder@PlatformDelegate@ivm@@UEAAXXZ 0000000180020b80 f i isolate.obj
 0001:0001fb90       ?DelegateInstance@PlatformDelegate@ivm@@SAAEAV12@XZ 0000000180020b90 f i isolate.obj
 0001:0001fc40       ?CallOnBackgroundThread@PlatformDelegate@ivm@@UEAAXPEAVTask@v8@@W4ExpectedRuntime@Platform@4@@Z 0000000180020c40 f i isolate.obj
 0001:0001fc50       ?CallOnForegroundThread@PlatformDelegate@ivm@@UEAAXPEAVIsolate@v8@@PEAVTask@4@@Z 0000000180020c50 f i isolate.obj
 0001:0001fe10       ?CallDelayedOnForegroundThread@PlatformDelegate@ivm@@UEAAXPEAVIsolate@v8@@PEAVTask@4@N@Z 0000000180020e10 f i isolate.obj
 0001:00020020       ?CallIdleOnForegroundThread@PlatformDelegate@ivm@@UEAAXPEAVIsolate@v8@@PEAVIdleTask@4@@Z 0000000180021020 f i isolate.obj
 0001:00020050       ?IdleTasksEnabled@PlatformDelegate@ivm@@UEAA_NPEAVIsolate@v8@@@Z 0000000180021050 f i isolate.obj
 0001:00020070       ?CurrentClockTimeMillis@PlatformDelegate@ivm@@UEAANXZ 0000000180021070 f i isolate.obj
 0001:00020080       ?MonotonicallyIncreasingTime@PlatformDelegate@ivm@@UEAANXZ 0000000180021080 f i isolate.obj
 0001:00020090       ?GetTracingController@PlatformDelegate@ivm@@UEAAPEAVTracingController@v8@@XZ 0000000180021090 f i isolate.obj
 0001:000200a0       ??_EPlatformDelegate@ivm@@UEAAPEAXI@Z 00000001800210a0 f i * CIL library *:* CIL module *
 0001:000200a0       ??_GPlatformDelegate@ivm@@UEAAPEAXI@Z 00000001800210a0 f i isolate.obj
 0001:000200d0       ?TransferIn@LibraryHandleTransferable@LibraryHandle@ivm@@UEAA?AV?$Local@VValue@v8@@@v8@@XZ 00000001800210d0 f i isolate.obj
 0001:00020100       ?Definition@LibraryHandle@ivm@@SA?AV?$Local@VFunctionTemplate@v8@@@v8@@XZ 0000000180021100 f i isolate.obj
 0001:00020200       ?TransferOut@LibraryHandle@ivm@@UEAA?AV?$unique_ptr@VTransferable@ivm@@U?$default_delete@VTransferable@ivm@@@std@@@std@@XZ 0000000180021200 f i isolate.obj
 0001:00020250       ?Get@LibraryHandle@ivm@@SA?AV?$Local@VObject@v8@@@v8@@XZ 0000000180021250 f i isolate.obj
 0001:00020360       init                       0000000180021360 f   isolate.obj
 0001:00020570       ??1?$_Hash@V?$_Uset_traits@PEAVtimer_thread_t@timer_t@ivm@@V?$_Uhash_compare@PEAVtimer_thread_t@timer_t@ivm@@U?$hash@PEAVtimer_thread_t@timer_t@ivm@@@std@@U?$equal_to@PEAVtimer_thread_t@timer_t@ivm@@@5@@std@@V?$allocator@PEAVtimer_thread_t@timer_t@ivm@@@5@$0A@@std@@@std@@QEAA@XZ 0000000180021570 f i isolate.obj
 0001:00020600       ??1?$vector@V?$shared_ptr@Utimer_data_t@timer_t@ivm@@@std@@V?$allocator@V?$shared_ptr@Utimer_data_t@timer_t@ivm@@@std@@@2@@std@@QEAA@XZ 0000000180021600 f i isolate.obj
 0001:00020640       ??0?$unordered_set@PEAVtimer_thread_t@timer_t@ivm@@U?$hash@PEAVtimer_thread_t@timer_t@ivm@@@std@@U?$equal_to@PEAVtimer_thread_t@timer_t@ivm@@@5@V?$allocator@PEAVtimer_thread_t@timer_t@ivm@@@5@@std@@QEAA@XZ 0000000180021640 f i isolate.obj
 0001:000206f0       ??0?$function@$$A6AXPEAX@Z@std@@QEAA@$$QEAV01@@Z 00000001800216f0 f i isolate.obj
 0001:00020770       ??1?$_Func_class@XPEAX@std@@QEAA@XZ 0000000180021770 f i isolate.obj
 0001:00020770       ??1?$function@$$A6AXPEAX@Z@std@@QEAA@XZ 0000000180021770 f i isolate.obj
 0001:000207a0       ??1?$_Deque_alloc@U?$_Deque_base_types@V?$shared_ptr@Utimer_data_t@timer_t@ivm@@@std@@V?$allocator@V?$shared_ptr@Utimer_data_t@timer_t@ivm@@@std@@@2@@std@@@std@@QEAA@XZ 00000001800217a0 f i isolate.obj
 0001:000207c0       ?_Tidy@?$deque@V?$shared_ptr@Utimer_data_t@timer_t@ivm@@@std@@V?$allocator@V?$shared_ptr@Utimer_data_t@timer_t@ivm@@@std@@@2@@std@@IEAAXXZ 00000001800217c0 f i isolate.obj
 0001:00020900       ?pop_back@?$deque@V?$shared_ptr@Utimer_data_t@timer_t@ivm@@@std@@V?$allocator@V?$shared_ptr@Utimer_data_t@timer_t@ivm@@@std@@@2@@std@@QEAAXXZ 0000000180021900 f i isolate.obj
 0001:00020990       ?end@?$deque@V?$shared_ptr@Utimer_data_t@timer_t@ivm@@@std@@V?$allocator@V?$shared_ptr@Utimer_data_t@timer_t@ivm@@@std@@@2@@std@@QEAA?AV?$_Deque_iterator@V?$_Deque_val@U?$_Deque_simple_types@V?$shared_ptr@Utimer_data_t@timer_t@ivm@@@std@@@std@@@std@@@2@XZ 0000000180021990 f i isolate.obj
 0001:000209b0       ?push_back@?$deque@V?$shared_ptr@Utimer_data_t@timer_t@ivm@@@std@@V?$allocator@V?$shared_ptr@Utimer_data_t@timer_t@ivm@@@std@@@2@@std@@QEAAX$$QEAV?$shared_ptr@Utimer_data_t@timer_t@ivm@@@2@@Z 00000001800219b0 f i isolate.obj
 0001:00020a60       ?_Growmap@?$deque@V?$shared_ptr@Utimer_data_t@timer_t@ivm@@@std@@V?$allocator@V?$shared_ptr@Utimer_data_t@timer_t@ivm@@@std@@@2@@std@@IEAAX_K@Z 0000000180021a60 f i isolate.obj
 0001:00020c80       ??$sleep_until@Usteady_clock@chrono@std@@V?$duration@_JU?$ratio@$00$0DLJKMKAA@@std@@@23@@this_thread@std@@YAXAEBV?$time_point@Usteady_clock@chrono@std@@V?$duration@_JU?$ratio@$00$0DLJKMKAA@@std@@@23@@chrono@1@@Z 0000000180021c80 f i isolate.obj
 0001:00020d50       ??$make_shared@Utimer_data_t@timer_t@ivm@@V?$time_point@Usteady_clock@chrono@std@@V?$duration@_JU?$ratio@$00$0DLJKMKAA@@std@@@23@@chrono@std@@V?$function@$$A6AXPEAX@Z@6@@std@@YA?AV?$shared_ptr@Utimer_data_t@timer_t@ivm@@@0@$$QEAV?$time_point@Usteady_clock@chrono@std@@V?$duration@_JU?$ratio@$00$0DLJKMKAA@@std@@@23@@chrono@0@$$QEAV?$function@$$A6AXPEAX@Z@0@@Z 0000000180021d50 f i isolate.obj
 0001:00020e20       ??$make_unique@VTaskHolder@PlatformDelegate@ivm@@AEAPEAVTask@v8@@@std@@YA?AV?$unique_ptr@VTaskHolder@PlatformDelegate@ivm@@U?$default_delete@VTaskHolder@PlatformDelegate@ivm@@@std@@@0@AEAPEAVTask@v8@@@Z 0000000180021e20 f i isolate.obj
 0001:00020e20       ??$make_unique@VTaskHolder@PlatformDelegate@ivm@@AEBQEAVTask@v8@@@std@@YA?AV?$unique_ptr@VTaskHolder@PlatformDelegate@ivm@@U?$default_delete@VTaskHolder@PlatformDelegate@ivm@@@std@@@0@AEBQEAVTask@v8@@@Z 0000000180021e20 f i isolate.obj
 0001:00020e70       ??$GetFunctionTemplate@VIsolateHandle@ivm@@@ClassHandle@ivm@@SA?AV?$Local@VFunctionTemplate@v8@@@v8@@XZ 0000000180021e70 f i isolate.obj
 0001:00020f70       ??$GetFunctionTemplate@VNativeModuleHandle@ivm@@@ClassHandle@ivm@@SA?AV?$Local@VFunctionTemplate@v8@@@v8@@XZ 0000000180021f70 f i isolate.obj
 0001:00021070       ??$GetFunctionTemplate@VScriptHandle@ivm@@@ClassHandle@ivm@@SA?AV?$Local@VFunctionTemplate@v8@@@v8@@XZ 0000000180022070 f i isolate.obj
 0001:00021170       ??$MakeClass@PEBDV?$Local@VFunctionTemplate@v8@@@v8@@PEBDV12@PEBDV12@PEBDV12@PEBDV12@PEBDV12@@ClassHandle@ivm@@KA?AV?$Local@VFunctionTemplate@v8@@@v8@@PEBDUCtorFunction@01@0V23@0202020202@Z 0000000180022170 f i isolate.obj
 0001:00021540       ??$make_unique@VLibraryHandleTransferable@LibraryHandle@ivm@@$$V@std@@YA?AV?$unique_ptr@VLibraryHandleTransferable@LibraryHandle@ivm@@U?$default_delete@VLibraryHandleTransferable@LibraryHandle@ivm@@@std@@@0@XZ 0000000180022540 f i isolate.obj
 0001:00021580       ??$NewInstance@VLibraryHandle@ivm@@$$V@ClassHandle@ivm@@SA?AV?$Local@VObject@v8@@@v8@@XZ 0000000180022580 f i isolate.obj
 0001:00021660       ??$NewInstance@VLibHandle@ivm@@$$V@ClassHandle@ivm@@SA?AV?$Local@VObject@v8@@@v8@@XZ 0000000180022660 f i isolate.obj
 0001:00021740       ??$New@AEAPEAVIsolate@v8@@AEAV?$Local@VContext@v8@@@2@@IsolateEnvironment@ivm@@SA?AV?$shared_ptr@VIsolateHolder@ivm@@@std@@AEAPEAVIsolate@v8@@AEAV?$Local@VContext@v8@@@5@@Z 0000000180022740 f i isolate.obj
 0001:000217e0       ??$pop_heap@V?$_Deque_iterator@V?$_Deque_val@U?$_Deque_simple_types@V?$shared_ptr@Utimer_data_t@timer_t@ivm@@@std@@@std@@@std@@@std@@Ucmp@timer_data_t@timer_t@ivm@@@std@@YAXV?$_Deque_iterator@V?$_Deque_val@U?$_Deque_simple_types@V?$shared_ptr@Utimer_data_t@timer_t@ivm@@@std@@@std@@@std@@@0@0Ucmp@timer_data_t@timer_t@ivm@@@Z 00000001800227e0 f i isolate.obj
 0001:00021960       ??$push_heap@V?$_Deque_iterator@V?$_Deque_val@U?$_Deque_simple_types@V?$shared_ptr@Utimer_data_t@timer_t@ivm@@@std@@@std@@@std@@@std@@Ucmp@timer_data_t@timer_t@ivm@@@std@@YAXV?$_Deque_iterator@V?$_Deque_val@U?$_Deque_simple_types@V?$shared_ptr@Utimer_data_t@timer_t@ivm@@@std@@@std@@@std@@@0@0Ucmp@timer_data_t@timer_t@ivm@@@Z 0000000180022960 f i isolate.obj
 0001:00021ac0       ??$_Destroy_range@V?$allocator@V?$shared_ptr@UModuleInfo@ivm@@@std@@@std@@PEAV?$shared_ptr@UModuleInfo@ivm@@@2@@std@@YAXPEAV?$shared_ptr@UModuleInfo@ivm@@@0@0AEAU?$_Wrap_alloc@V?$allocator@V?$shared_ptr@UModuleInfo@ivm@@@std@@@std@@@0@@Z 0000000180022ac0 f i module_handle.obj
 0001:00021ac0       ??$_Destroy_range@V?$allocator@V?$shared_ptr@Utimer_data_t@timer_t@ivm@@@std@@@std@@PEAV?$shared_ptr@Utimer_data_t@timer_t@ivm@@@2@@std@@YAXPEAV?$shared_ptr@Utimer_data_t@timer_t@ivm@@@0@0AEAU?$_Wrap_alloc@V?$allocator@V?$shared_ptr@Utimer_data_t@timer_t@ivm@@@std@@@std@@@0@@Z 0000000180022ac0 f i isolate.obj
 0001:00021b30       ??_ELibTransferable@LibHandle@ivm@@UEAAPEAXI@Z 0000000180022b30 f i * CIL library *:* CIL module *
 0001:00021b30       ??_GLibraryHandleTransferable@LibraryHandle@ivm@@UEAAPEAXI@Z 0000000180022b30 f i isolate.obj
 0001:00021b30       ??_ELibraryHandleTransferable@LibraryHandle@ivm@@UEAAPEAXI@Z 0000000180022b30 f i * CIL library *:* CIL module *
 0001:00021b30       ??_GLibTransferable@LibHandle@ivm@@UEAAPEAXI@Z 0000000180022b30 f i lib_handle.obj
 0001:00021b60       ?_Destroy@?$_Ref_count_obj@Utimer_data_t@timer_t@ivm@@@std@@EEAAXXZ 0000000180022b60 f i isolate.obj
 0001:00021b90       ?_Reserve@?$vector@PEAUtimer_data_t@timer_t@ivm@@V?$allocator@PEAUtimer_data_t@timer_t@ivm@@@std@@@std@@IEAAX_K@Z 0000000180022b90 f i isolate.obj
 0001:00021c20       ?_Reallocate@?$vector@PEAUtimer_data_t@timer_t@ivm@@V?$allocator@PEAUtimer_data_t@timer_t@ivm@@@std@@@std@@IEAAX_K@Z 0000000180022c20 f i isolate.obj
 0001:00021d00       ?_Reallocate@?$vector@V?$shared_ptr@Utimer_data_t@timer_t@ivm@@@std@@V?$allocator@V?$shared_ptr@Utimer_data_t@timer_t@ivm@@@std@@@2@@std@@IEAAX_K@Z 0000000180022d00 f i isolate.obj
 0001:00021d00       ?_Reallocate@?$vector@V?$shared_ptr@UModuleInfo@ivm@@@std@@V?$allocator@V?$shared_ptr@UModuleInfo@ivm@@@std@@@2@@std@@IEAAX_K@Z 0000000180022d00 f i module_handle.obj
 0001:00021e10       ??$?0PEAV?$shared_ptr@Utimer_data_t@timer_t@ivm@@@std@@X@?$deque@V?$shared_ptr@Utimer_data_t@timer_t@ivm@@@std@@V?$allocator@V?$shared_ptr@Utimer_data_t@timer_t@ivm@@@std@@@2@@std@@QEAA@PEAV?$shared_ptr@Utimer_data_t@timer_t@ivm@@@1@0@Z 0000000180022e10 f i isolate.obj
 0001:00021ea0       ??$make_heap@V?$_Deque_iterator@V?$_Deque_val@U?$_Deque_simple_types@V?$shared_ptr@Utimer_data_t@timer_t@ivm@@@std@@@std@@@std@@@std@@Ucmp@timer_data_t@timer_t@ivm@@@std@@YAXV?$_Deque_iterator@V?$_Deque_val@U?$_Deque_simple_types@V?$shared_ptr@Utimer_data_t@timer_t@ivm@@@std@@@std@@@std@@@0@0Ucmp@timer_data_t@timer_t@ivm@@@Z 0000000180022ea0 f i isolate.obj
 0001:00022030       ??$make_unique@V?$tuple@V?$_Binder@U_Unforced@std@@P8timer_thread_t@timer_t@ivm@@EAAXXZQEAV345@@std@@@std@@V?$_Binder@U_Unforced@std@@P8timer_thread_t@timer_t@ivm@@EAAXXZQEAV345@@2@@std@@YA?AV?$unique_ptr@V?$tuple@V?$_Binder@U_Unforced@std@@P8timer_thread_t@timer_t@ivm@@EAAXXZQEAV345@@std@@@std@@U?$default_delete@V?$tuple@V?$_Binder@U_Unforced@std@@P8timer_thread_t@timer_t@ivm@@EAAXXZQEAV345@@std@@@std@@@2@@0@$$QEAV?$_Binder@U_Unforced@std@@P8timer_thread_t@timer_t@ivm@@EAAXXZQEAV345@@0@@Z 0000000180023030 f i isolate.obj
 0001:00022080       ??$_Launch@V?$unique_ptr@V?$tuple@V?$_Binder@U_Unforced@std@@P8timer_thread_t@timer_t@ivm@@EAAXXZQEAV345@@std@@@std@@U?$default_delete@V?$tuple@V?$_Binder@U_Unforced@std@@P8timer_thread_t@timer_t@ivm@@EAAXXZQEAV345@@std@@@std@@@2@@std@@@std@@YAXPEAU_Thrd_imp_t@@$$QEAV?$unique_ptr@V?$tuple@V?$_Binder@U_Unforced@std@@P8timer_thread_t@timer_t@ivm@@EAAXXZQEAV345@@std@@@std@@U?$default_delete@V?$tuple@V?$_Binder@U_Unforced@std@@P8timer_thread_t@timer_t@ivm@@EAAXXZQEAV345@@std@@@std@@@2@@0@@Z 0000000180023080 f i isolate.obj
 0001:000221e0       ??$GetFunctionTemplate@VLibraryHandle@ivm@@@ClassHandle@ivm@@SA?AV?$Local@VFunctionTemplate@v8@@@v8@@XZ 00000001800231e0 f i isolate.obj
 0001:000222e0       ??$make_unique@VLibraryHandle@ivm@@$$V@std@@YA?AV?$unique_ptr@VLibraryHandle@ivm@@U?$default_delete@VLibraryHandle@ivm@@@std@@@0@XZ 00000001800232e0 f i isolate.obj
 0001:00022320       ??$GetFunctionTemplate@VLibHandle@ivm@@@ClassHandle@ivm@@SA?AV?$Local@VFunctionTemplate@v8@@@v8@@XZ 0000000180023320 f i isolate.obj
 0001:00022480       ??$make_unique@VLibHandle@ivm@@$$V@std@@YA?AV?$unique_ptr@VLibHandle@ivm@@U?$default_delete@VLibHandle@ivm@@@std@@@0@XZ 0000000180023480 f i isolate.obj
 0001:000224c0       ??$make_shared@VIsolateEnvironment@ivm@@AEAPEAVIsolate@v8@@AEAV?$Local@VContext@v8@@@4@@std@@YA?AV?$shared_ptr@VIsolateEnvironment@ivm@@@0@AEAPEAVIsolate@v8@@AEAV?$Local@VContext@v8@@@3@@Z 00000001800234c0 f i isolate.obj
 0001:00022580       ??$make_shared@VIsolateHolder@ivm@@AEAV?$shared_ptr@VIsolateEnvironment@ivm@@@std@@@std@@YA?AV?$shared_ptr@VIsolateHolder@ivm@@@0@AEAV?$shared_ptr@VIsolateEnvironment@ivm@@@0@@Z 0000000180023580 f i isolate.obj
 0001:00022650       ?_Destroy@?$_Ref_count_obj@VIsolateHolder@ivm@@@std@@EEAAXXZ 0000000180023650 f i isolate.obj
 0001:000226a0       ?_Destroy@?$_Ref_count_obj@VIsolateEnvironment@ivm@@@std@@EEAAXXZ 00000001800236a0 f i isolate.obj
 0001:000226b0       ?_Go@?$_LaunchPad@V?$unique_ptr@V?$tuple@V?$_Binder@U_Unforced@std@@P8timer_thread_t@timer_t@ivm@@EAAXXZQEAV345@@std@@@std@@U?$default_delete@V?$tuple@V?$_Binder@U_Unforced@std@@P8timer_thread_t@timer_t@ivm@@EAAXXZQEAV345@@std@@@std@@@2@@std@@@std@@UEAAXXZ 00000001800236b0 f i isolate.obj
 0001:000226c0       ?_Run@?$_LaunchPad@V?$unique_ptr@V?$tuple@V?$_Binder@U_Unforced@std@@P8timer_thread_t@timer_t@ivm@@EAAXXZQEAV345@@std@@@std@@U?$default_delete@V?$tuple@V?$_Binder@U_Unforced@std@@P8timer_thread_t@timer_t@ivm@@EAAXXZQEAV345@@std@@@std@@@2@@std@@@std@@CAXPEAV12@@Z 00000001800236c0 f i isolate.obj
 0001:00022740       ??$_Push_heap_by_index@V?$_Deque_unchecked_iterator@V?$_Deque_val@U?$_Deque_simple_types@V?$shared_ptr@Utimer_data_t@timer_t@ivm@@@std@@@std@@@std@@@std@@_JV?$shared_ptr@Utimer_data_t@timer_t@ivm@@@2@Ucmp@timer_data_t@timer_t@ivm@@@std@@YAXV?$_Deque_unchecked_iterator@V?$_Deque_val@U?$_Deque_simple_types@V?$shared_ptr@Utimer_data_t@timer_t@ivm@@@std@@@std@@@std@@@0@_J1$$QEAV?$shared_ptr@Utimer_data_t@timer_t@ivm@@@0@AEAUcmp@timer_data_t@timer_t@ivm@@@Z 0000000180023740 f i isolate.obj
 0001:00022950       ??_G?$_Ref_count_obj@VIsolateEnvironment@ivm@@@std@@UEAAPEAXI@Z 0000000180023950 f i isolate.obj
 0001:00022950       ??_E?$_Ref_count_obj@VIsolateEnvironment@ivm@@@std@@UEAAPEAXI@Z 0000000180023950 f i * CIL library *:* CIL module *
 0001:00022980       ?_Delete_this@?$_Func_impl@V<lambda_13c6c2e07069e236ec1d47e9ba7a29f9>@@V?$allocator@H@std@@XPEAX@std@@EEAAX_N@Z 0000000180023980 f i reference_handle.obj
 0001:00022980       ?_Delete_this@?$_Func_impl@V<lambda_1c0aeec9526aaf47e0d99f25f381fde8>@@V?$allocator@H@std@@XPEAX@std@@EEAAX_N@Z 0000000180023980 f i isolate.obj
 0001:00022980       ?_Delete_this@?$_Func_impl@V<lambda_b4fd8a0b72873f3d6e69c2558d0e65ac>@@V?$allocator@H@std@@XPEAX@std@@EEAAX_N@Z 0000000180023980 f i script_handle.obj
 0001:00022980       ?_Delete_this@?$_Func_impl@V<lambda_d3d7c00aa09c1b868e973018ff663e96>@@V?$allocator@H@std@@XPEAX@std@@EEAAX_N@Z 0000000180023980 f i reference_handle.obj
 0001:00022980       ?_Delete_this@?$_Func_impl@V<lambda_8c25eeb07f20d2561780259604f13fe2>@@V?$allocator@H@std@@XPEAX@std@@EEAAX_N@Z 0000000180023980 f i module_handle.obj
 0001:000229a0       ?_Get@?$_Func_impl@V<lambda_d3d7c00aa09c1b868e973018ff663e96>@@V?$allocator@H@std@@XPEAX@std@@EEBAPEBXXZ 00000001800239a0 f i reference_handle.obj
 0001:000229a0       _Mtx_getconcrtcs           00000001800239a0 f i libcpmt:mutex.obj
 0001:000229a0       ?_Get@?$_Func_impl@V<lambda_1c0aeec9526aaf47e0d99f25f381fde8>@@V?$allocator@H@std@@XPEAX@std@@EEBAPEBXXZ 00000001800239a0 f i isolate.obj
 0001:000229a0       ?_Get@?$_Func_impl@V<lambda_8c25eeb07f20d2561780259604f13fe2>@@V?$allocator@H@std@@XPEAX@std@@EEBAPEBXXZ 00000001800239a0 f i module_handle.obj
 0001:000229a0       ?_Get@?$_Func_impl@V<lambda_b4fd8a0b72873f3d6e69c2558d0e65ac>@@V?$allocator@H@std@@XPEAX@std@@EEBAPEBXXZ 00000001800239a0 f i script_handle.obj
 0001:000229a0       ?_Get@?$_Func_impl@V<lambda_13c6c2e07069e236ec1d47e9ba7a29f9>@@V?$allocator@H@std@@XPEAX@std@@EEBAPEBXXZ 00000001800239a0 f i reference_handle.obj
 0001:000229b0       ?_Target_type@?$_Func_impl@V<lambda_1c0aeec9526aaf47e0d99f25f381fde8>@@V?$allocator@H@std@@XPEAX@std@@EEBAAEBVtype_info@@XZ 00000001800239b0 f i isolate.obj
 0001:000229c0       ?_Do_call@?$_Func_impl@V<lambda_1c0aeec9526aaf47e0d99f25f381fde8>@@V?$allocator@H@std@@XPEAX@std@@EEAAX$$QEAPEAX@Z 00000001800239c0 f i isolate.obj
 0001:000229d0       ?_Copy@?$_Func_impl@V<lambda_1c0aeec9526aaf47e0d99f25f381fde8>@@V?$allocator@H@std@@XPEAX@std@@EEBAPEAV?$_Func_base@XPEAX@2@PEAX@Z 00000001800239d0 f i isolate.obj
 0001:000229d0       ?_Move@?$_Func_impl@V<lambda_1c0aeec9526aaf47e0d99f25f381fde8>@@V?$allocator@H@std@@XPEAX@std@@EEAAPEAV?$_Func_base@XPEAX@2@PEAX@Z 00000001800239d0 f i isolate.obj
 0001:000229f0       ??$emplace_back@AEAV?$shared_ptr@Utimer_data_t@timer_t@ivm@@@std@@@?$deque@V?$shared_ptr@Utimer_data_t@timer_t@ivm@@@std@@V?$allocator@V?$shared_ptr@Utimer_data_t@timer_t@ivm@@@std@@@2@@std@@QEAAXAEAV?$shared_ptr@Utimer_data_t@timer_t@ivm@@@1@@Z 00000001800239f0 f i isolate.obj
 0001:00022aa0       ??$_Pop_heap_hole_by_index@V?$_Deque_unchecked_iterator@V?$_Deque_val@U?$_Deque_simple_types@V?$shared_ptr@Utimer_data_t@timer_t@ivm@@@std@@@std@@@std@@@std@@_JV?$shared_ptr@Utimer_data_t@timer_t@ivm@@@2@Ucmp@timer_data_t@timer_t@ivm@@@std@@YAXV?$_Deque_unchecked_iterator@V?$_Deque_val@U?$_Deque_simple_types@V?$shared_ptr@Utimer_data_t@timer_t@ivm@@@std@@@std@@@std@@@0@_J1$$QEAV?$shared_ptr@Utimer_data_t@timer_t@ivm@@@0@AEAUcmp@timer_data_t@timer_t@ivm@@@Z 0000000180023aa0 f i isolate.obj
 0001:00022ce0       ??1Source@ScriptCompiler@v8@@QEAA@XZ 0000000180023ce0 f i isolate_handle.obj
 0001:00022d10       ?Convert@?$ConvertParam@V?$Local@VString@v8@@@v8@@@ivm@@SA?AV?$Local@VString@v8@@@v8@@AEBV?$Local@VValue@v8@@@4@@Z 0000000180023d10 f i isolate_handle.obj
 0001:00022dc0       ?Convert@?$ConvertParam@V?$MaybeLocal@VString@v8@@@v8@@@ivm@@SA?AV?$MaybeLocal@VString@v8@@@v8@@AEBV?$Local@VValue@v8@@@4@@Z 0000000180023dc0 f i isolate_handle.obj
 0001:00022e70       ?Convert@?$ConvertParam@V?$Local@VArray@v8@@@v8@@@ivm@@SA?AV?$Local@VArray@v8@@@v8@@AEBV?$Local@VValue@v8@@@4@@Z 0000000180023e70 f i isolate_handle.obj
 0001:00022f10       ?GetValue@ExternalCopyHandle@ivm@@QEBA?AV?$shared_ptr@VExternalCopy@ivm@@@std@@XZ 0000000180023f10 f i isolate_handle.obj
 0001:00022f50       ??1TmpIsolateScope@PlatformDelegate@ivm@@QEAA@XZ 0000000180023f50 f i isolate_handle.obj
 0001:00022f70       ?Phase2Async@ThreePhaseTask@ivm@@UEAA_NAEAVAsyncWait@Scheduler@IsolateEnvironment@2@@Z 0000000180023f70 f i isolate_handle.obj
 0001:00022f90       ??0ScriptOriginHolder@ivm@@QEAA@V?$MaybeLocal@VObject@v8@@@v8@@_N@Z 0000000180023f90 f i isolate_handle.obj
 0001:00023570       ?ToScriptOrigin@ScriptOriginHolder@ivm@@QEAA?AVScriptOrigin@v8@@XZ 0000000180024570 f i isolate_handle.obj
 0001:00023690       ?TransferIn@IsolateHandleTransferable@IsolateHandle@ivm@@UEAA?AV?$Local@VValue@v8@@@v8@@XZ 0000000180024690 f   isolate_handle.obj
 0001:000236c0       ??_GIsolateHandle@ivm@@UEAAPEAXI@Z 00000001800246c0 f i isolate_handle.obj
 0001:000236c0       ??_EIsolateHandle@ivm@@UEAAPEAXI@Z 00000001800246c0 f i * CIL library *:* CIL module *
 0001:000236c0       ??_EModuleHandle@ivm@@UEAAPEAXI@Z 00000001800246c0 f i * CIL library *:* CIL module *
 0001:000236c0       ??_GSessionHandle@ivm@@UEAAPEAXI@Z 00000001800246c0 f i session_handle.obj
 0001:000236c0       ??_ESessionHandle@ivm@@UEAAPEAXI@Z 00000001800246c0 f i * CIL library *:* CIL module *
 0001:000236c0       ??_GNativeModuleHandle@ivm@@UEAAPEAXI@Z 00000001800246c0 f i native_module_handle.obj
 0001:000236c0       ??_ENativeModuleHandle@ivm@@UEAAPEAXI@Z 00000001800246c0 f i * CIL library *:* CIL module *
 0001:000236c0       ??_GModuleHandle@ivm@@UEAAPEAXI@Z 00000001800246c0 f i module_handle.obj
 0001:00023700       ?Definition@IsolateHandle@ivm@@SA?AV?$Local@VFunctionTemplate@v8@@@v8@@XZ 0000000180024700 f   isolate_handle.obj
 0001:000239b0       ?New@IsolateHandle@ivm@@SA?AV?$unique_ptr@VClassHandle@ivm@@U?$default_delete@VClassHandle@ivm@@@std@@@std@@V?$MaybeLocal@VObject@v8@@@v8@@@Z 00000001800249b0 f   isolate_handle.obj
 0001:000240e0       ?TransferOut@IsolateHandle@ivm@@UEAA?AV?$unique_ptr@VTransferable@ivm@@U?$default_delete@VTransferable@ivm@@@std@@@std@@XZ 00000001800250e0 f   isolate_handle.obj
 0001:00024130       ??0CreateContextRunner@ivm@@QEAA@AEAV?$MaybeLocal@VObject@v8@@@v8@@@Z 0000000180025130 f i isolate_handle.obj
 0001:000241b0       ?Phase2@CreateContextRunner@ivm@@UEAAXXZ 00000001800251b0 f i isolate_handle.obj
 0001:000248c0       ?Phase3@CreateContextRunner@ivm@@UEAA?AV?$Local@VValue@v8@@@v8@@XZ 00000001800258c0 f i isolate_handle.obj
 0001:000248f0       ??_ECreateContextRunner@ivm@@UEAAPEAXI@Z 00000001800258f0 f i * CIL library *:* CIL module *
 0001:000248f0       ??_GCreateContextRunner@ivm@@UEAAPEAXI@Z 00000001800258f0 f i isolate_handle.obj
 0001:00024930       ??1CreateContextRunner@ivm@@UEAA@XZ 0000000180025930 f i isolate_handle.obj
 0001:000249d0       ??_GContextDisposer@?1???RContextDeleter@?1??Phase2@CreateContextRunner@ivm@@UEAAXXZ@QEAAXPEAV?$RemoteHandle@VContext@v8@@@4@@Z@UEAAPEAXI@Z 00000001800259d0 f i isolate_handle.obj
 0001:000249d0       ??_EContextDisposer@?1???RContextDeleter@?1??Phase2@CreateContextRunner@ivm@@UEAAXXZ@QEAAXPEAV?$RemoteHandle@VContext@v8@@@4@@Z@UEAAPEAXI@Z 00000001800259d0 f i * CIL library *:* CIL module *
 0001:00024a60       ??0CompileScriptRunner@ivm@@QEAA@V?$shared_ptr@VIsolateHolder@ivm@@@std@@AEBV?$Local@VString@v8@@@v8@@AEBV?$MaybeLocal@VObject@v8@@@5@@Z 0000000180025a60 f i isolate_handle.obj
 0001:00024ed0       ?Phase2@CompileScriptRunner@ivm@@UEAAXXZ 0000000180025ed0 f i isolate_handle.obj
 0001:000251b0       ?Phase3@CompileScriptRunner@ivm@@UEAA?AV?$Local@VValue@v8@@@v8@@XZ 00000001800261b0 f i isolate_handle.obj
 0001:00025370       ??_ECompileScriptRunner@ivm@@UEAAPEAXI@Z 0000000180026370 f i * CIL library *:* CIL module *
 0001:00025370       ??_GCompileScriptRunner@ivm@@UEAAPEAXI@Z 0000000180026370 f i isolate_handle.obj
 0001:000253b0       ??1CompileScriptRunner@ivm@@UEAA@XZ 00000001800263b0 f i isolate_handle.obj
 0001:000254f0       ??0CompileModuleRunner@ivm@@QEAA@AEBV?$Local@VString@v8@@@v8@@AEBV?$MaybeLocal@VObject@v8@@@3@@Z 00000001800264f0 f i isolate_handle.obj
 0001:000255f0       ?Phase2@CompileModuleRunner@ivm@@UEAAXXZ 00000001800265f0 f i isolate_handle.obj
 0001:00025780       ?Phase3@CompileModuleRunner@ivm@@UEAA?AV?$Local@VValue@v8@@@v8@@XZ 0000000180026780 f i isolate_handle.obj
 0001:000257b0       ??_GCompileModuleRunner@ivm@@UEAAPEAXI@Z 00000001800267b0 f i isolate_handle.obj
 0001:000257b0       ??_ECompileModuleRunner@ivm@@UEAAPEAXI@Z 00000001800267b0 f i * CIL library *:* CIL module *
 0001:000257f0       ??1CompileModuleRunner@ivm@@UEAA@XZ 00000001800267f0 f i isolate_handle.obj
 0001:00025890       ?CreateInspectorSession@IsolateHandle@ivm@@QEAA?AV?$Local@VValue@v8@@@v8@@XZ 0000000180026890 f   isolate_handle.obj
 0001:00025cc0       ?Phase2@HeapStatRunner@ivm@@UEAAXXZ 0000000180026cc0 f i isolate_handle.obj
 0001:00025d20       ?Phase3@HeapStatRunner@ivm@@UEAA?AV?$Local@VValue@v8@@@v8@@XZ 0000000180026d20 f i isolate_handle.obj
 0001:00026550       ??_GHeapStatRunner@ivm@@UEAAPEAXI@Z 0000000180027550 f i isolate_handle.obj
 0001:00026550       ??_EHeapStatRunner@ivm@@UEAAPEAXI@Z 0000000180027550 f i * CIL library *:* CIL module *
 0001:00026580       ?GetCpuTime@IsolateHandle@ivm@@QEAA?AV?$Local@VValue@v8@@@v8@@XZ 0000000180027580 f   isolate_handle.obj
 0001:00026850       ?GetWallTime@IsolateHandle@ivm@@QEAA?AV?$Local@VValue@v8@@@v8@@XZ 0000000180027850 f   isolate_handle.obj
 0001:00026b20       ?GetReferenceCount@IsolateHandle@ivm@@QEAA?AV?$Local@VValue@v8@@@v8@@XZ 0000000180027b20 f   isolate_handle.obj
 0001:00026d00       ?IsDisposedGetter@IsolateHandle@ivm@@QEAA?AV?$Local@VValue@v8@@@v8@@XZ 0000000180027d00 f   isolate_handle.obj
 0001:00026d90       ?CreateSnapshot@IsolateHandle@ivm@@SA?AV?$Local@VValue@v8@@@v8@@V?$Local@VArray@v8@@@4@V?$MaybeLocal@VString@v8@@@4@@Z 0000000180027d90 f   isolate_handle.obj
 0001:00027e30       ??1ScriptOriginHolder@ivm@@QEAA@XZ 0000000180028e30 f i isolate_handle.obj
 0001:00027e40       ??1?$unique_ptr@$$CBDU?$default_delete@$$CBD@std@@@std@@QEAA@XZ 0000000180028e40 f i isolate_handle.obj
 0001:00027e60       ??1?$vector@U?$pair@V?$basic_string@DU?$char_traits@D@std@@V?$allocator@D@2@@std@@VScriptOriginHolder@ivm@@@std@@V?$allocator@U?$pair@V?$basic_string@DU?$char_traits@D@std@@V?$allocator@D@2@@std@@VScriptOriginHolder@ivm@@@std@@@2@@std@@QEAA@XZ 0000000180028e60 f i isolate_handle.obj
 0001:00027ec0       ??1?$unique_ptr@UCachedData@ScriptCompiler@v8@@U?$default_delete@UCachedData@ScriptCompiler@v8@@@std@@@std@@QEAA@XZ 0000000180028ec0 f i isolate_handle.obj
 0001:00027ef0       ??1?$unique_ptr@VScriptOriginHolder@ivm@@U?$default_delete@VScriptOriginHolder@ivm@@@std@@@std@@QEAA@XZ 0000000180028ef0 f i isolate_handle.obj
 0001:00027f20       ??1?$unique_ptr@V?$RemoteHandle@VContext@v8@@@ivm@@U?$default_delete@V?$RemoteHandle@VContext@v8@@@ivm@@@std@@@std@@QEAA@XZ 0000000180028f20 f i isolate_handle.obj
 0001:00027f50       ?_Reallocate@?$vector@U?$pair@V?$basic_string@DU?$char_traits@D@std@@V?$allocator@D@2@@std@@VScriptOriginHolder@ivm@@@std@@V?$allocator@U?$pair@V?$basic_string@DU?$char_traits@D@std@@V?$allocator@D@2@@std@@VScriptOriginHolder@ivm@@@std@@@2@@std@@IEAAX_K@Z 0000000180028f50 f i isolate_handle.obj
 0001:00028080       ??1?$RemoteTuple@VContext@v8@@@ivm@@QEAA@XZ 0000000180029080 f i isolate_handle.obj
 0001:00028140       ?deallocate@?$_Wrap_alloc@V?$allocator@U?$pair@V?$basic_string@DU?$char_traits@D@std@@V?$allocator@D@2@@std@@VScriptOriginHolder@ivm@@@std@@@std@@@std@@QEAAXPEAU?$pair@V?$basic_string@DU?$char_traits@D@std@@V?$allocator@D@2@@std@@VScriptOriginHolder@ivm@@@2@_K@Z 0000000180029140 f i isolate_handle.obj
 0001:000281b0       ??$NewInstance@VIsolateHandle@ivm@@AEAV?$shared_ptr@VIsolateHolder@ivm@@@std@@@ClassHandle@ivm@@SA?AV?$Local@VObject@v8@@@v8@@AEAV?$shared_ptr@VIsolateHolder@ivm@@@std@@@Z 00000001800291b0 f i isolate_handle.obj
 0001:00028290       ??$MakeClass@PEBDU?$pair@P6AXAEBV?$FunctionCallbackInfo@VValue@v8@@@v8@@@ZI@std@@PEBDU?$pair@P6AXAEBV?$FunctionCallbackInfo@VValue@v8@@@v8@@@ZH@2@PEBDU32@PEBDU32@PEBDU32@PEBDU?$pair@P6AXV?$Local@VString@v8@@@v8@@AEBV?$PropertyCallbackInfo@VValue@v8@@@2@@ZP6AX0V?$Local@VValue@v8@@@2@AEBV?$PropertyCallbackInfo@X@2@@Z@2@PEBDU32@PEBDU32@PEBDU32@PEBDU32@PEBDU32@PEBDU32@PEBDU42@PEBDU42@PEBDU42@@ClassHandle@ivm@@KA?AV?$Local@VFunctionTemplate@v8@@@v8@@PEBDUCtorFunction@01@0U?$pair@P6AXAEBV?$FunctionCallbackInfo@VValue@v8@@@v8@@@ZI@std@@0U?$pair@P6AXAEBV?$FunctionCallbackInfo@VValue@v8@@@v8@@@ZH@6@0303030U?$pair@P6AXV?$Local@VString@v8@@@v8@@AEBV?$PropertyCallbackInfo@VValue@v8@@@2@@ZP6AX0V?$Local@VValue@v8@@@2@AEBV?$PropertyCallbackInfo@X@2@@Z@6@030303030303040404@Z 0000000180029290 f i isolate_handle.obj
 0001:00028710       ??$Unwrap@VExternalCopyHandle@ivm@@@ClassHandle@ivm@@SAPEAVExternalCopyHandle@1@V?$Local@VObject@v8@@@v8@@@Z 0000000180029710 f i isolate_handle.obj
 0001:000287e0       ??$New@AEA_KV?$shared_ptr@X@std@@AEA_K@IsolateEnvironment@ivm@@SA?AV?$shared_ptr@VIsolateHolder@ivm@@@std@@AEA_K$$QEAV?$shared_ptr@X@3@0@Z 00000001800297e0 f i isolate_handle.obj
 0001:00028880       ??$make_unique@VIsolateHandle@ivm@@AEAV?$shared_ptr@VIsolateHolder@ivm@@@std@@@std@@YA?AV?$unique_ptr@VIsolateHandle@ivm@@U?$default_delete@VIsolateHandle@ivm@@@std@@@0@AEAV?$shared_ptr@VIsolateHolder@ivm@@@0@@Z 0000000180029880 f i isolate_handle.obj
 0001:00028910       ??$make_unique@VIsolateHandleTransferable@IsolateHandle@ivm@@AEAV?$shared_ptr@VIsolateHolder@ivm@@@std@@@std@@YA?AV?$unique_ptr@VIsolateHandleTransferable@IsolateHandle@ivm@@U?$default_delete@VIsolateHandleTransferable@IsolateHandle@ivm@@@std@@@0@AEAV?$shared_ptr@VIsolateHolder@ivm@@@0@@Z 0000000180029910 f i isolate_handle.obj
 0001:000289a0       ??$make_unique@UContextDisposer@?1???RContextDeleter@?1??Phase2@CreateContextRunner@ivm@@UEAAXXZ@QEAAXPEAV?$RemoteHandle@VContext@v8@@@5@@Z@V?$unique_ptr@V?$RemoteHandle@VContext@v8@@@ivm@@U?$default_delete@V?$RemoteHandle@VContext@v8@@@ivm@@@std@@@std@@AEA_N@std@@YA?AV?$unique_ptr@UContextDisposer@?1???RContextDeleter@?1??Phase2@CreateContextRunner@ivm@@UEAAXXZ@QEAAXPEAV?$RemoteHandle@VContext@v8@@@5@@Z@U?$default_delete@UContextDisposer@?1???RContextDeleter@?1??Phase2@CreateContextRunner@ivm@@UEAAXXZ@QEAAXPEAV?$RemoteHandle@VContext@v8@@@5@@Z@@std@@@0@$$QEAV?$unique_ptr@V?$RemoteHandle@VContext@v8@@@ivm@@U?$default_delete@V?$RemoteHandle@VContext@v8@@@ivm@@@std@@@0@AEA_N@Z 00000001800299a0 f i isolate_handle.obj
 0001:00028a10       ??$make_shared@V?$RemoteHandle@VValue@v8@@@ivm@@V?$Local@VValue@v8@@@v8@@@std@@YA?AV?$shared_ptr@V?$RemoteHandle@VValue@v8@@@ivm@@@0@$$QEAV?$Local@VValue@v8@@@v8@@@Z 0000000180029a10 f i module_handle.obj
 0001:00028a10       ??$make_shared@V?$RemoteHandle@VValue@v8@@@ivm@@AEAV?$Local@VValue@v8@@@v8@@@std@@YA?AV?$shared_ptr@V?$RemoteHandle@VValue@v8@@@ivm@@@0@AEAV?$Local@VValue@v8@@@v8@@@Z 0000000180029a10 f i reference_handle.obj
 0001:00028a10       ??$make_shared@V?$RemoteHandle@VValue@v8@@@ivm@@V?$Local@VObject@v8@@@v8@@@std@@YA?AV?$shared_ptr@V?$RemoteHandle@VValue@v8@@@ivm@@@0@$$QEAV?$Local@VObject@v8@@@v8@@@Z 0000000180029a10 f i isolate_handle.obj
 0001:00028ac0       ??$NewInstance@VContextHandle@ivm@@V?$shared_ptr@V?$RemoteHandle@VContext@v8@@@ivm@@@std@@V?$shared_ptr@V?$RemoteHandle@VValue@v8@@@ivm@@@4@@ClassHandle@ivm@@SA?AV?$Local@VObject@v8@@@v8@@$$QEAV?$shared_ptr@V?$RemoteHandle@VContext@v8@@@ivm@@@std@@$$QEAV?$shared_ptr@V?$RemoteHandle@VValue@v8@@@ivm@@@5@@Z 0000000180029ac0 f i isolate_handle.obj
 0001:00028bc0       ??$make_unique@VScriptOriginHolder@ivm@@AEBV?$MaybeLocal@VObject@v8@@@v8@@@std@@YA?AV?$unique_ptr@VScriptOriginHolder@ivm@@U?$default_delete@VScriptOriginHolder@ivm@@@std@@@0@AEBV?$MaybeLocal@VObject@v8@@@v8@@@Z 0000000180029bc0 f i isolate_handle.obj
 0001:00028c20       ??$make_unique@UCachedData@ScriptCompiler@v8@@PEBEAEA_K@std@@YA?AV?$unique_ptr@UCachedData@ScriptCompiler@v8@@U?$default_delete@UCachedData@ScriptCompiler@v8@@@std@@@0@$$QEAPEBEAEA_K@Z 0000000180029c20 f i isolate_handle.obj
 0001:00028c90       ??$RunWithAnnotatedErrors@V?$Local@VUnboundScript@v8@@@v8@@V<lambda_909a46861df3e3532513423576440e10>@@@ivm@@YA?AV?$Local@VUnboundScript@v8@@@v8@@$$QEAV<lambda_909a46861df3e3532513423576440e10>@@@Z 0000000180029c90 f i isolate_handle.obj
 0001:00028d70       ??$make_shared@V?$RemoteHandle@VUnboundScript@v8@@@ivm@@V?$Local@VUnboundScript@v8@@@v8@@@std@@YA?AV?$shared_ptr@V?$RemoteHandle@VUnboundScript@v8@@@ivm@@@0@$$QEAV?$Local@VUnboundScript@v8@@@v8@@@Z 0000000180029d70 f i isolate_handle.obj
 0001:00028e20       ??$make_shared@VExternalCopyArrayBuffer@ivm@@PEAXAEBH@std@@YA?AV?$shared_ptr@VExternalCopyArrayBuffer@ivm@@@0@$$QEAPEAXAEBH@Z 0000000180029e20 f i isolate_handle.obj
 0001:00028e20       ??$make_shared@VExternalCopyArrayBuffer@ivm@@PEAXAEAH@std@@YA?AV?$shared_ptr@VExternalCopyArrayBuffer@ivm@@@0@$$QEAPEAXAEAH@Z 0000000180029e20 f i isolate_handle.obj
 0001:00028ee0       ??$NewInstance@VScriptHandle@ivm@@V?$shared_ptr@VIsolateHolder@ivm@@@std@@V?$shared_ptr@V?$RemoteHandle@VUnboundScript@v8@@@ivm@@@4@@ClassHandle@ivm@@SA?AV?$Local@VObject@v8@@@v8@@$$QEAV?$shared_ptr@VIsolateHolder@ivm@@@std@@$$QEAV?$shared_ptr@V?$RemoteHandle@VUnboundScript@v8@@@ivm@@@5@@Z 0000000180029ee0 f i isolate_handle.obj
 0001:00028fe0       ??$NewInstance@VExternalCopyHandle@ivm@@V?$shared_ptr@VExternalCopyArrayBuffer@ivm@@@std@@@ClassHandle@ivm@@SA?AV?$Local@VObject@v8@@@v8@@$$QEAV?$shared_ptr@VExternalCopyArrayBuffer@ivm@@@std@@@Z 0000000180029fe0 f i isolate_handle.obj
 0001:000290c0       ??$make_unique@VScriptOriginHolder@ivm@@AEBV?$MaybeLocal@VObject@v8@@@v8@@_N@std@@YA?AV?$unique_ptr@VScriptOriginHolder@ivm@@U?$default_delete@VScriptOriginHolder@ivm@@@std@@@0@AEBV?$MaybeLocal@VObject@v8@@@v8@@$$QEA_N@Z 000000018002a0c0 f i isolate_handle.obj
 0001:00029130       ??$make_shared@UModuleInfo@ivm@@V?$Local@VModule@v8@@@v8@@@std@@YA?AV?$shared_ptr@UModuleInfo@ivm@@@0@$$QEAV?$Local@VModule@v8@@@v8@@@Z 000000018002a130 f i isolate_handle.obj
 0001:000291e0       ??$NewInstance@VModuleHandle@ivm@@V?$shared_ptr@UModuleInfo@ivm@@@std@@@ClassHandle@ivm@@SA?AV?$Local@VObject@v8@@@v8@@$$QEAV?$shared_ptr@UModuleInfo@ivm@@@std@@@Z 000000018002a1e0 f i isolate_handle.obj
 0001:000292c0       ??$NewInstance@VSessionHandle@ivm@@AEAVIsolateEnvironment@2@@ClassHandle@ivm@@SA?AV?$Local@VObject@v8@@@v8@@AEAVIsolateEnvironment@1@@Z 000000018002a2c0 f i isolate_handle.obj
 0001:000293a0       ??$emplace_back@V?$basic_string@DU?$char_traits@D@std@@V?$allocator@D@2@@std@@VScriptOriginHolder@ivm@@@?$vector@U?$pair@V?$basic_string@DU?$char_traits@D@std@@V?$allocator@D@2@@std@@VScriptOriginHolder@ivm@@@std@@V?$allocator@U?$pair@V?$basic_string@DU?$char_traits@D@std@@V?$allocator@D@2@@std@@VScriptOriginHolder@ivm@@@std@@@2@@std@@QEAAX$$QEAV?$basic_string@DU?$char_traits@D@std@@V?$allocator@D@2@@1@$$QEAVScriptOriginHolder@ivm@@@Z 000000018002a3a0 f i isolate_handle.obj
 0001:00029440       ??$RunWithAnnotatedErrors@V?$Local@VScript@v8@@@v8@@V<lambda_5ee9796965525c02a9bc3e7b0bc0290f>@@@ivm@@YA?AV?$Local@VScript@v8@@@v8@@$$QEAV<lambda_5ee9796965525c02a9bc3e7b0bc0290f>@@@Z 000000018002a440 f i isolate_handle.obj
 0001:00029520       ??$RunWithAnnotatedErrors@XV<lambda_ec6ebc2e1657eca93264892a70111900>@@@ivm@@YAX$$QEAV<lambda_ec6ebc2e1657eca93264892a70111900>@@@Z 000000018002a520 f i isolate_handle.obj
 0001:000295a0       ??$RunCatchExternal@V<lambda_c659fd58972287fbc74826c85c3c3d4d>@@V<lambda_2a77d0db454c59a65b83b8fecc90bc3a>@@@FunctorRunners@ivm@@YAXV?$Local@VContext@v8@@@v8@@V<lambda_c659fd58972287fbc74826c85c3c3d4d>@@V<lambda_2a77d0db454c59a65b83b8fecc90bc3a>@@@Z 000000018002a5a0 f i isolate_handle.obj
 0001:00029620       ??$make_unique@UDisposalTask@?$RemoteTuple@VContext@v8@@@ivm@@V?$tuple@V?$unique_ptr@V?$Persistent@VContext@v8@@V?$NonCopyablePersistentTraits@VContext@v8@@@2@@v8@@U?$default_delete@V?$Persistent@VContext@v8@@V?$NonCopyablePersistentTraits@VContext@v8@@@2@@v8@@@std@@@std@@@std@@@std@@YA?AV?$unique_ptr@UDisposalTask@?$RemoteTuple@VContext@v8@@@ivm@@U?$default_delete@UDisposalTask@?$RemoteTuple@VContext@v8@@@ivm@@@std@@@0@$$QEAV?$tuple@V?$unique_ptr@V?$Persistent@VContext@v8@@V?$NonCopyablePersistentTraits@VContext@v8@@@2@@v8@@U?$default_delete@V?$Persistent@VContext@v8@@V?$NonCopyablePersistentTraits@VContext@v8@@@2@@v8@@@std@@@std@@@0@@Z 000000018002a620 f i isolate_handle.obj
 0001:000296f0       ?_Destroy@?$_Ref_count_obj@UModuleInfo@ivm@@@std@@EEAAXXZ 000000018002a6f0 f i isolate_handle.obj
 0001:00029700       ?_Destroy@?$_Ref_count_obj@VSessionImpl@ivm@@@std@@EEAAXXZ 000000018002a700 f i session_handle.obj
 0001:00029700       ?_Destroy@?$_Ref_count_obj@VExternalCopyArrayBuffer@ivm@@@std@@EEAAXXZ 000000018002a700 f i isolate_handle.obj
 0001:00029710       ?_Destroy@?$_Ref_count_obj@V?$RemoteHandle@VUnboundScript@v8@@@ivm@@@std@@EEAAXXZ 000000018002a710 f i isolate_handle.obj
 0001:00029720       ?_Destroy@?$_Ref_count_obj@V?$RemoteHandle@VValue@v8@@@ivm@@@std@@EEAAXXZ 000000018002a720 f i isolate_handle.obj
 0001:00029730       ?_Reserve@?$vector@U?$pair@V?$basic_string@DU?$char_traits@D@std@@V?$allocator@D@2@@std@@VScriptOriginHolder@ivm@@@std@@V?$allocator@U?$pair@V?$basic_string@DU?$char_traits@D@std@@V?$allocator@D@2@@std@@VScriptOriginHolder@ivm@@@std@@@2@@std@@IEAAX_K@Z 000000018002a730 f i isolate_handle.obj
 0001:00029800       ??1?$RemoteTuple@VUnboundScript@v8@@@ivm@@QEAA@XZ 000000018002a800 f i isolate_handle.obj
 0001:000298c0       ??1?$RemoteTuple@VValue@v8@@@ivm@@QEAA@XZ 000000018002a8c0 f i isolate_handle.obj
 0001:00029980       ??$?HDU?$char_traits@D@std@@V?$allocator@D@1@@std@@YA?AV?$basic_string@DU?$char_traits@D@std@@V?$allocator@D@2@@0@AEBV10@PEBD@Z 000000018002a980 f i isolate_handle.obj
 0001:00029a00       ??$ParameterizeCtorEntry@P6A?AV?$unique_ptr@VClassHandle@ivm@@U?$default_delete@VClassHandle@ivm@@@std@@@std@@V?$MaybeLocal@VObject@v8@@@v8@@@Z$1?New@IsolateHandle@ivm@@SA?AV12@0@Z@ClassHandle@ivm@@CAXAEBV?$FunctionCallbackInfo@VValue@v8@@@v8@@@Z 000000018002aa00 f i isolate_handle.obj
 0001:00029a10       ??$ParameterizeEntry@$0A@P6A?AV?$Local@VValue@v8@@@v8@@V?$Local@VArray@v8@@@2@V?$MaybeLocal@VString@v8@@@2@@Z$1?CreateSnapshot@IsolateHandle@ivm@@SA?AV12@01@Z@ClassHandle@ivm@@CAXAEBV?$FunctionCallbackInfo@VValue@v8@@@v8@@@Z 000000018002aa10 f i isolate_handle.obj
 0001:00029a20       ??$Run@$00UCompileScriptRunner@ivm@@AEAV?$shared_ptr@VIsolateHolder@ivm@@@std@@AEAV?$Local@VString@v8@@@v8@@AEAV?$MaybeLocal@VObject@v8@@@6@@ThreePhaseTask@ivm@@SA?AV?$Local@VValue@v8@@@v8@@AEAVIsolateHolder@1@AEAV?$shared_ptr@VIsolateHolder@ivm@@@std@@AEAV?$Local@VString@v8@@@3@AEAV?$MaybeLocal@VObject@v8@@@3@@Z 000000018002aa20 f i isolate_handle.obj
 0001:00029e40       ??$Invoke@$1??$CompileScript@$00@IsolateHandle@ivm@@QEAA?AV?$Local@VValue@v8@@@v8@@V?$Local@VString@v8@@@4@V?$MaybeLocal@VObject@v8@@@4@@Z@?$MethodCast@P8IsolateHandle@ivm@@EAA?AV?$Local@VValue@v8@@@v8@@V?$Local@VString@v8@@@4@V?$MaybeLocal@VObject@v8@@@4@@Z@ClassHandle@ivm@@SA?AV?$Local@VValue@v8@@@v8@@PEAVIsolateHandle@2@V?$Local@VString@v8@@@4@V?$MaybeLocal@VObject@v8@@@4@@Z 000000018002ae40 f i isolate_handle.obj
 0001:00029e90       ??$ParameterizeEntry@$0?0P6A?AV?$Local@VValue@v8@@@v8@@PEAVIsolateHandle@ivm@@V?$Local@VString@v8@@@2@V?$MaybeLocal@VObject@v8@@@2@@Z$1??$Invoke@$1??$CompileScript@$00@IsolateHandle@ivm@@QEAA?AV?$Local@VValue@v8@@@v8@@V?$Local@VString@v8@@@4@V?$MaybeLocal@VObject@v8@@@4@@Z@?$MethodCast@P8IsolateHandle@ivm@@EAA?AV?$Local@VValue@v8@@@v8@@V?$Local@VString@v8@@@4@V?$MaybeLocal@VObject@v8@@@4@@Z@ClassHandle@4@SA?AV12@012@Z@ClassHandle@ivm@@CAXAEBV?$FunctionCallbackInfo@VValue@v8@@@v8@@@Z 000000018002ae90 f i isolate_handle.obj
 0001:00029ea0       ??$Run@$0A@UCompileScriptRunner@ivm@@AEAV?$shared_ptr@VIsolateHolder@ivm@@@std@@AEAV?$Local@VString@v8@@@v8@@AEAV?$MaybeLocal@VObject@v8@@@6@@ThreePhaseTask@ivm@@SA?AV?$Local@VValue@v8@@@v8@@AEAVIsolateHolder@1@AEAV?$shared_ptr@VIsolateHolder@ivm@@@std@@AEAV?$Local@VString@v8@@@3@AEAV?$MaybeLocal@VObject@v8@@@3@@Z 000000018002aea0 f i isolate_handle.obj
 0001:00029f40       ??$Invoke@$1??$CompileScript@$0A@@IsolateHandle@ivm@@QEAA?AV?$Local@VValue@v8@@@v8@@V?$Local@VString@v8@@@4@V?$MaybeLocal@VObject@v8@@@4@@Z@?$MethodCast@P8IsolateHandle@ivm@@EAA?AV?$Local@VValue@v8@@@v8@@V?$Local@VString@v8@@@4@V?$MaybeLocal@VObject@v8@@@4@@Z@ClassHandle@ivm@@SA?AV?$Local@VValue@v8@@@v8@@PEAVIsolateHandle@2@V?$Local@VString@v8@@@4@V?$MaybeLocal@VObject@v8@@@4@@Z 000000018002af40 f i isolate_handle.obj
 0001:00029f90       ??$ParameterizeEntry@$0?0P6A?AV?$Local@VValue@v8@@@v8@@PEAVIsolateHandle@ivm@@V?$Local@VString@v8@@@2@V?$MaybeLocal@VObject@v8@@@2@@Z$1??$Invoke@$1??$CompileScript@$0A@@IsolateHandle@ivm@@QEAA?AV?$Local@VValue@v8@@@v8@@V?$Local@VString@v8@@@4@V?$MaybeLocal@VObject@v8@@@4@@Z@?$MethodCast@P8IsolateHandle@ivm@@EAA?AV?$Local@VValue@v8@@@v8@@V?$Local@VString@v8@@@4@V?$MaybeLocal@VObject@v8@@@4@@Z@ClassHandle@4@SA?AV12@012@Z@ClassHandle@ivm@@CAXAEBV?$FunctionCallbackInfo@VValue@v8@@@v8@@@Z 000000018002af90 f i isolate_handle.obj
 0001:00029fa0       ??$Run@$00UCompileModuleRunner@ivm@@AEAV?$Local@VString@v8@@@v8@@AEAV?$MaybeLocal@VObject@v8@@@4@@ThreePhaseTask@ivm@@SA?AV?$Local@VValue@v8@@@v8@@AEAVIsolateHolder@1@AEAV?$Local@VString@v8@@@3@AEAV?$MaybeLocal@VObject@v8@@@3@@Z 000000018002afa0 f i isolate_handle.obj
 0001:0002a2f0       ??$Invoke@$1??$CompileModule@$00@IsolateHandle@ivm@@QEAA?AV?$Local@VValue@v8@@@v8@@V?$Local@VString@v8@@@4@V?$MaybeLocal@VObject@v8@@@4@@Z@?$MethodCast@P8IsolateHandle@ivm@@EAA?AV?$Local@VValue@v8@@@v8@@V?$Local@VString@v8@@@4@V?$MaybeLocal@VObject@v8@@@4@@Z@ClassHandle@ivm@@SA?AV?$Local@VValue@v8@@@v8@@PEAVIsolateHandle@2@V?$Local@VString@v8@@@4@V?$MaybeLocal@VObject@v8@@@4@@Z 000000018002b2f0 f i isolate_handle.obj
 0001:0002a330       ??$ParameterizeEntry@$0?0P6A?AV?$Local@VValue@v8@@@v8@@PEAVIsolateHandle@ivm@@V?$Local@VString@v8@@@2@V?$MaybeLocal@VObject@v8@@@2@@Z$1??$Invoke@$1??$CompileModule@$00@IsolateHandle@ivm@@QEAA?AV?$Local@VValue@v8@@@v8@@V?$Local@VString@v8@@@4@V?$MaybeLocal@VObject@v8@@@4@@Z@?$MethodCast@P8IsolateHandle@ivm@@EAA?AV?$Local@VValue@v8@@@v8@@V?$Local@VString@v8@@@4@V?$MaybeLocal@VObject@v8@@@4@@Z@ClassHandle@4@SA?AV12@012@Z@ClassHandle@ivm@@CAXAEBV?$FunctionCallbackInfo@VValue@v8@@@v8@@@Z 000000018002b330 f i isolate_handle.obj
 0001:0002a340       ??$Run@$0A@UCompileModuleRunner@ivm@@AEAV?$Local@VString@v8@@@v8@@AEAV?$MaybeLocal@VObject@v8@@@4@@ThreePhaseTask@ivm@@SA?AV?$Local@VValue@v8@@@v8@@AEAVIsolateHolder@1@AEAV?$Local@VString@v8@@@3@AEAV?$MaybeLocal@VObject@v8@@@3@@Z 000000018002b340 f i isolate_handle.obj
 0001:0002a3a0       ??$Invoke@$1??$CompileModule@$0A@@IsolateHandle@ivm@@QEAA?AV?$Local@VValue@v8@@@v8@@V?$Local@VString@v8@@@4@V?$MaybeLocal@VObject@v8@@@4@@Z@?$MethodCast@P8IsolateHandle@ivm@@EAA?AV?$Local@VValue@v8@@@v8@@V?$Local@VString@v8@@@4@V?$MaybeLocal@VObject@v8@@@4@@Z@ClassHandle@ivm@@SA?AV?$Local@VValue@v8@@@v8@@PEAVIsolateHandle@2@V?$Local@VString@v8@@@4@V?$MaybeLocal@VObject@v8@@@4@@Z 000000018002b3a0 f i isolate_handle.obj
 0001:0002a3e0       ??$ParameterizeEntry@$0?0P6A?AV?$Local@VValue@v8@@@v8@@PEAVIsolateHandle@ivm@@V?$Local@VString@v8@@@2@V?$MaybeLocal@VObject@v8@@@2@@Z$1??$Invoke@$1??$CompileModule@$0A@@IsolateHandle@ivm@@QEAA?AV?$Local@VValue@v8@@@v8@@V?$Local@VString@v8@@@4@V?$MaybeLocal@VObject@v8@@@4@@Z@?$MethodCast@P8IsolateHandle@ivm@@EAA?AV?$Local@VValue@v8@@@v8@@V?$Local@VString@v8@@@4@V?$MaybeLocal@VObject@v8@@@4@@Z@ClassHandle@4@SA?AV12@012@Z@ClassHandle@ivm@@CAXAEBV?$FunctionCallbackInfo@VValue@v8@@@v8@@@Z 000000018002b3e0 f i isolate_handle.obj
 0001:0002a3f0       ??$Invoke@$1?GetCpuTime@IsolateHandle@ivm@@QEAA?AV?$Local@VValue@v8@@@v8@@XZ@?$MethodCast@P8IsolateHandle@ivm@@EAA?AV?$Local@VValue@v8@@@v8@@XZ@ClassHandle@ivm@@SA?AV?$Local@VValue@v8@@@v8@@PEAVIsolateHandle@2@@Z 000000018002b3f0 f i isolate_handle.obj
 0001:0002a420       ??$ParameterizeGetterEntry@P6A?AV?$Local@VValue@v8@@@v8@@PEAVIsolateHandle@ivm@@@Z$1??$Invoke@$1?GetCpuTime@IsolateHandle@ivm@@QEAA?AV?$Local@VValue@v8@@@v8@@XZ@?$MethodCast@P8IsolateHandle@ivm@@EAA?AV?$Local@VValue@v8@@@v8@@XZ@ClassHandle@4@SA?AV12@0@Z@ClassHandle@ivm@@CAXV?$Local@VString@v8@@@v8@@AEBV?$PropertyCallbackInfo@VValue@v8@@@3@@Z 000000018002b420 f i isolate_handle.obj
 0001:0002a440       ??$Run@$00UCreateContextRunner@ivm@@AEAV?$MaybeLocal@VObject@v8@@@v8@@@ThreePhaseTask@ivm@@SA?AV?$Local@VValue@v8@@@v8@@AEAVIsolateHolder@1@AEAV?$MaybeLocal@VObject@v8@@@3@@Z 000000018002b440 f i isolate_handle.obj
 0001:0002a780       ??$Invoke@$1??$CreateContext@$00@IsolateHandle@ivm@@QEAA?AV?$Local@VValue@v8@@@v8@@V?$MaybeLocal@VObject@v8@@@4@@Z@?$MethodCast@P8IsolateHandle@ivm@@EAA?AV?$Local@VValue@v8@@@v8@@V?$MaybeLocal@VObject@v8@@@4@@Z@ClassHandle@ivm@@SA?AV?$Local@VValue@v8@@@v8@@PEAVIsolateHandle@2@V?$MaybeLocal@VObject@v8@@@4@@Z 000000018002b780 f i isolate_handle.obj
 0001:0002a7c0       ??$ParameterizeEntry@$0?0P6A?AV?$Local@VValue@v8@@@v8@@PEAVIsolateHandle@ivm@@V?$MaybeLocal@VObject@v8@@@2@@Z$1??$Invoke@$1??$CreateContext@$00@IsolateHandle@ivm@@QEAA?AV?$Local@VValue@v8@@@v8@@V?$MaybeLocal@VObject@v8@@@4@@Z@?$MethodCast@P8IsolateHandle@ivm@@EAA?AV?$Local@VValue@v8@@@v8@@V?$MaybeLocal@VObject@v8@@@4@@Z@ClassHandle@4@SA?AV12@01@Z@ClassHandle@ivm@@CAXAEBV?$FunctionCallbackInfo@VValue@v8@@@v8@@@Z 000000018002b7c0 f i isolate_handle.obj
 0001:0002a7d0       ??$Run@$0A@UCreateContextRunner@ivm@@AEAV?$MaybeLocal@VObject@v8@@@v8@@@ThreePhaseTask@ivm@@SA?AV?$Local@VValue@v8@@@v8@@AEAVIsolateHolder@1@AEAV?$MaybeLocal@VObject@v8@@@3@@Z 000000018002b7d0 f i isolate_handle.obj
 0001:0002a880       ??$Invoke@$1??$CreateContext@$0A@@IsolateHandle@ivm@@QEAA?AV?$Local@VValue@v8@@@v8@@V?$MaybeLocal@VObject@v8@@@4@@Z@?$MethodCast@P8IsolateHandle@ivm@@EAA?AV?$Local@VValue@v8@@@v8@@V?$MaybeLocal@VObject@v8@@@4@@Z@ClassHandle@ivm@@SA?AV?$Local@VValue@v8@@@v8@@PEAVIsolateHandle@2@V?$MaybeLocal@VObject@v8@@@4@@Z 000000018002b880 f i isolate_handle.obj
 0001:0002a8c0       ??$ParameterizeEntry@$0?0P6A?AV?$Local@VValue@v8@@@v8@@PEAVIsolateHandle@ivm@@V?$MaybeLocal@VObject@v8@@@2@@Z$1??$Invoke@$1??$CreateContext@$0A@@IsolateHandle@ivm@@QEAA?AV?$Local@VValue@v8@@@v8@@V?$MaybeLocal@VObject@v8@@@4@@Z@?$MethodCast@P8IsolateHandle@ivm@@EAA?AV?$Local@VValue@v8@@@v8@@V?$MaybeLocal@VObject@v8@@@4@@Z@ClassHandle@4@SA?AV12@01@Z@ClassHandle@ivm@@CAXAEBV?$FunctionCallbackInfo@VValue@v8@@@v8@@@Z 000000018002b8c0 f i isolate_handle.obj
 0001:0002a8d0       ??$Invoke@$1?CreateInspectorSession@IsolateHandle@ivm@@QEAA?AV?$Local@VValue@v8@@@v8@@XZ@?$MethodCast@P8IsolateHandle@ivm@@EAA?AV?$Local@VValue@v8@@@v8@@XZ@ClassHandle@ivm@@SA?AV?$Local@VValue@v8@@@v8@@PEAVIsolateHandle@2@@Z 000000018002b8d0 f i isolate_handle.obj
 0001:0002a900       ??$ParameterizeEntry@$0?0P6A?AV?$Local@VValue@v8@@@v8@@PEAVIsolateHandle@ivm@@@Z$1??$Invoke@$1?CreateInspectorSession@IsolateHandle@ivm@@QEAA?AV?$Local@VValue@v8@@@v8@@XZ@?$MethodCast@P8IsolateHandle@ivm@@EAA?AV?$Local@VValue@v8@@@v8@@XZ@ClassHandle@4@SA?AV12@0@Z@ClassHandle@ivm@@CAXAEBV?$FunctionCallbackInfo@VValue@v8@@@v8@@@Z 000000018002b900 f i isolate_handle.obj
 0001:0002a910       ??$Invoke@$1?Dispose@IsolateHandle@ivm@@QEAA?AV?$Local@VValue@v8@@@v8@@XZ@?$MethodCast@P8IsolateHandle@ivm@@EAA?AV?$Local@VValue@v8@@@v8@@XZ@ClassHandle@ivm@@SA?AV?$Local@VValue@v8@@@v8@@PEAVIsolateHandle@2@@Z 000000018002b910 f i isolate_handle.obj
 0001:0002a940       ??$ParameterizeEntry@$0?0P6A?AV?$Local@VValue@v8@@@v8@@PEAVIsolateHandle@ivm@@@Z$1??$Invoke@$1?Dispose@IsolateHandle@ivm@@QEAA?AV?$Local@VValue@v8@@@v8@@XZ@?$MethodCast@P8IsolateHandle@ivm@@EAA?AV?$Local@VValue@v8@@@v8@@XZ@ClassHandle@4@SA?AV12@0@Z@ClassHandle@ivm@@CAXAEBV?$FunctionCallbackInfo@VValue@v8@@@v8@@@Z 000000018002b940 f i isolate_handle.obj
 0001:0002a950       ??$Run@$00UHeapStatRunner@ivm@@H@ThreePhaseTask@ivm@@SA?AV?$Local@VValue@v8@@@v8@@AEAVIsolateHolder@1@$$QEAH@Z 000000018002b950 f i isolate_handle.obj
 0001:0002ac90       ??$Invoke@$1??$GetHeapStatistics@$00@IsolateHandle@ivm@@QEAA?AV?$Local@VValue@v8@@@v8@@XZ@?$MethodCast@P8IsolateHandle@ivm@@EAA?AV?$Local@VValue@v8@@@v8@@XZ@ClassHandle@ivm@@SA?AV?$Local@VValue@v8@@@v8@@PEAVIsolateHandle@2@@Z 000000018002bc90 f i isolate_handle.obj
 0001:0002acd0       ??$ParameterizeEntry@$0?0P6A?AV?$Local@VValue@v8@@@v8@@PEAVIsolateHandle@ivm@@@Z$1??$Invoke@$1??$GetHeapStatistics@$00@IsolateHandle@ivm@@QEAA?AV?$Local@VValue@v8@@@v8@@XZ@?$MethodCast@P8IsolateHandle@ivm@@EAA?AV?$Local@VValue@v8@@@v8@@XZ@ClassHandle@4@SA?AV12@0@Z@ClassHandle@ivm@@CAXAEBV?$FunctionCallbackInfo@VValue@v8@@@v8@@@Z 000000018002bcd0 f i isolate_handle.obj
 0001:0002ace0       ??$Run@$0A@UHeapStatRunner@ivm@@H@ThreePhaseTask@ivm@@SA?AV?$Local@VValue@v8@@@v8@@AEAVIsolateHolder@1@$$QEAH@Z 000000018002bce0 f i isolate_handle.obj
 0001:0002ad50       ??$Invoke@$1??$GetHeapStatistics@$0A@@IsolateHandle@ivm@@QEAA?AV?$Local@VValue@v8@@@v8@@XZ@?$MethodCast@P8IsolateHandle@ivm@@EAA?AV?$Local@VValue@v8@@@v8@@XZ@ClassHandle@ivm@@SA?AV?$Local@VValue@v8@@@v8@@PEAVIsolateHandle@2@@Z 000000018002bd50 f i isolate_handle.obj
 0001:0002ad80       ??$ParameterizeEntry@$0?0P6A?AV?$Local@VValue@v8@@@v8@@PEAVIsolateHandle@ivm@@@Z$1??$Invoke@$1??$GetHeapStatistics@$0A@@IsolateHandle@ivm@@QEAA?AV?$Local@VValue@v8@@@v8@@XZ@?$MethodCast@P8IsolateHandle@ivm@@EAA?AV?$Local@VValue@v8@@@v8@@XZ@ClassHandle@4@SA?AV12@0@Z@ClassHandle@ivm@@CAXAEBV?$FunctionCallbackInfo@VValue@v8@@@v8@@@Z 000000018002bd80 f i isolate_handle.obj
 0001:0002ad90       ??$Invoke@$1?IsDisposedGetter@IsolateHandle@ivm@@QEAA?AV?$Local@VValue@v8@@@v8@@XZ@?$MethodCast@P8IsolateHandle@ivm@@EAA?AV?$Local@VValue@v8@@@v8@@XZ@ClassHandle@ivm@@SA?AV?$Local@VValue@v8@@@v8@@PEAVIsolateHandle@2@@Z 000000018002bd90 f i isolate_handle.obj
 0001:0002adc0       ??$ParameterizeGetterEntry@P6A?AV?$Local@VValue@v8@@@v8@@PEAVIsolateHandle@ivm@@@Z$1??$Invoke@$1?IsDisposedGetter@IsolateHandle@ivm@@QEAA?AV?$Local@VValue@v8@@@v8@@XZ@?$MethodCast@P8IsolateHandle@ivm@@EAA?AV?$Local@VValue@v8@@@v8@@XZ@ClassHandle@4@SA?AV12@0@Z@ClassHandle@ivm@@CAXV?$Local@VString@v8@@@v8@@AEBV?$PropertyCallbackInfo@VValue@v8@@@3@@Z 000000018002bdc0 f i isolate_handle.obj
 0001:0002ade0       ??$Invoke@$1?GetReferenceCount@IsolateHandle@ivm@@QEAA?AV?$Local@VValue@v8@@@v8@@XZ@?$MethodCast@P8IsolateHandle@ivm@@EAA?AV?$Local@VValue@v8@@@v8@@XZ@ClassHandle@ivm@@SA?AV?$Local@VValue@v8@@@v8@@PEAVIsolateHandle@2@@Z 000000018002bde0 f i isolate_handle.obj
 0001:0002ae10       ??$ParameterizeGetterEntry@P6A?AV?$Local@VValue@v8@@@v8@@PEAVIsolateHandle@ivm@@@Z$1??$Invoke@$1?GetReferenceCount@IsolateHandle@ivm@@QEAA?AV?$Local@VValue@v8@@@v8@@XZ@?$MethodCast@P8IsolateHandle@ivm@@EAA?AV?$Local@VValue@v8@@@v8@@XZ@ClassHandle@4@SA?AV12@0@Z@ClassHandle@ivm@@CAXV?$Local@VString@v8@@@v8@@AEBV?$PropertyCallbackInfo@VValue@v8@@@3@@Z 000000018002be10 f i isolate_handle.obj
 0001:0002ae30       ??$Invoke@$1?GetWallTime@IsolateHandle@ivm@@QEAA?AV?$Local@VValue@v8@@@v8@@XZ@?$MethodCast@P8IsolateHandle@ivm@@EAA?AV?$Local@VValue@v8@@@v8@@XZ@ClassHandle@ivm@@SA?AV?$Local@VValue@v8@@@v8@@PEAVIsolateHandle@2@@Z 000000018002be30 f i isolate_handle.obj
 0001:0002ae60       ??$ParameterizeGetterEntry@P6A?AV?$Local@VValue@v8@@@v8@@PEAVIsolateHandle@ivm@@@Z$1??$Invoke@$1?GetWallTime@IsolateHandle@ivm@@QEAA?AV?$Local@VValue@v8@@@v8@@XZ@?$MethodCast@P8IsolateHandle@ivm@@EAA?AV?$Local@VValue@v8@@@v8@@XZ@ClassHandle@4@SA?AV12@0@Z@ClassHandle@ivm@@CAXV?$Local@VString@v8@@@v8@@AEBV?$PropertyCallbackInfo@VValue@v8@@@3@@Z 000000018002be60 f i isolate_handle.obj
 0001:0002ae80       ??$make_shared@VIsolateEnvironment@ivm@@AEA_KV?$shared_ptr@X@std@@AEA_K@std@@YA?AV?$shared_ptr@VIsolateEnvironment@ivm@@@0@AEA_K$$QEAV?$shared_ptr@X@0@0@Z 000000018002be80 f i isolate_handle.obj
 0001:0002af60       ??$make_unique@VContextHandle@ivm@@V?$shared_ptr@V?$RemoteHandle@VContext@v8@@@ivm@@@std@@V?$shared_ptr@V?$RemoteHandle@VValue@v8@@@ivm@@@4@@std@@YA?AV?$unique_ptr@VContextHandle@ivm@@U?$default_delete@VContextHandle@ivm@@@std@@@0@$$QEAV?$shared_ptr@V?$RemoteHandle@VContext@v8@@@ivm@@@0@$$QEAV?$shared_ptr@V?$RemoteHandle@VValue@v8@@@ivm@@@0@@Z 000000018002bf60 f i isolate_handle.obj
 0001:0002aff0       ??$Unmaybe@H@ivm@@YAHV?$Maybe@H@v8@@@Z 000000018002bff0 f i isolate_handle.obj
 0001:0002b030       ??$make_unique@VScriptHandle@ivm@@V?$shared_ptr@VIsolateHolder@ivm@@@std@@V?$shared_ptr@V?$RemoteHandle@VUnboundScript@v8@@@ivm@@@4@@std@@YA?AV?$unique_ptr@VScriptHandle@ivm@@U?$default_delete@VScriptHandle@ivm@@@std@@@0@$$QEAV?$shared_ptr@VIsolateHolder@ivm@@@0@$$QEAV?$shared_ptr@V?$RemoteHandle@VUnboundScript@v8@@@ivm@@@0@@Z 000000018002c030 f i isolate_handle.obj
 0001:0002b0c0       ??$GetFunctionTemplate@VModuleHandle@ivm@@@ClassHandle@ivm@@SA?AV?$Local@VFunctionTemplate@v8@@@v8@@XZ 000000018002c0c0 f i isolate_handle.obj
 0001:0002b1c0       ??$make_unique@VModuleHandle@ivm@@V?$shared_ptr@UModuleInfo@ivm@@@std@@@std@@YA?AV?$unique_ptr@VModuleHandle@ivm@@U?$default_delete@VModuleHandle@ivm@@@std@@@0@$$QEAV?$shared_ptr@UModuleInfo@ivm@@@0@@Z 000000018002c1c0 f i isolate_handle.obj
 0001:0002b230       ??$GetFunctionTemplate@VSessionHandle@ivm@@@ClassHandle@ivm@@SA?AV?$Local@VFunctionTemplate@v8@@@v8@@XZ 000000018002c230 f i isolate_handle.obj
 0001:0002b330       ??$make_unique@VSessionHandle@ivm@@AEAVIsolateEnvironment@2@@std@@YA?AV?$unique_ptr@VSessionHandle@ivm@@U?$default_delete@VSessionHandle@ivm@@@std@@@0@AEAVIsolateEnvironment@ivm@@@Z 000000018002c330 f i isolate_handle.obj
 0001:0002b390       ??$_Destroy_range1@V?$allocator@U?$pair@V?$basic_string@DU?$char_traits@D@std@@V?$allocator@D@2@@std@@VScriptOriginHolder@ivm@@@std@@@std@@PEAU?$pair@V?$basic_string@DU?$char_traits@D@std@@V?$allocator@D@2@@std@@VScriptOriginHolder@ivm@@@2@@std@@YAXPEAU?$pair@V?$basic_string@DU?$char_traits@D@std@@V?$allocator@D@2@@std@@VScriptOriginHolder@ivm@@@0@0AEAU?$_Wrap_alloc@V?$allocator@U?$pair@V?$basic_string@DU?$char_traits@D@std@@V?$allocator@D@2@@std@@VScriptOriginHolder@ivm@@@std@@@std@@@0@U?$integral_constant@_N$0A@@0@@Z 000000018002c390 f i isolate_handle.obj
 0001:0002b4d0       ??$make_unique@UDisposalTask@?$RemoteTuple@VUnboundScript@v8@@@ivm@@V?$tuple@V?$unique_ptr@V?$Persistent@VUnboundScript@v8@@V?$NonCopyablePersistentTraits@VUnboundScript@v8@@@2@@v8@@U?$default_delete@V?$Persistent@VUnboundScript@v8@@V?$NonCopyablePersistentTraits@VUnboundScript@v8@@@2@@v8@@@std@@@std@@@std@@@std@@YA?AV?$unique_ptr@UDisposalTask@?$RemoteTuple@VUnboundScript@v8@@@ivm@@U?$default_delete@UDisposalTask@?$RemoteTuple@VUnboundScript@v8@@@ivm@@@std@@@0@$$QEAV?$tuple@V?$unique_ptr@V?$Persistent@VUnboundScript@v8@@V?$NonCopyablePersistentTraits@VUnboundScript@v8@@@2@@v8@@U?$default_delete@V?$Persistent@VUnboundScript@v8@@V?$NonCopyablePersistentTraits@VUnboundScript@v8@@@2@@v8@@@std@@@std@@@0@@Z 000000018002c4d0 f i isolate_handle.obj
 0001:0002b520       ??$make_unique@UDisposalTask@?$RemoteTuple@VValue@v8@@@ivm@@V?$tuple@V?$unique_ptr@V?$Persistent@VValue@v8@@V?$NonCopyablePersistentTraits@VValue@v8@@@2@@v8@@U?$default_delete@V?$Persistent@VValue@v8@@V?$NonCopyablePersistentTraits@VValue@v8@@@2@@v8@@@std@@@std@@@std@@@std@@YA?AV?$unique_ptr@UDisposalTask@?$RemoteTuple@VValue@v8@@@ivm@@U?$default_delete@UDisposalTask@?$RemoteTuple@VValue@v8@@@ivm@@@std@@@0@$$QEAV?$tuple@V?$unique_ptr@V?$Persistent@VValue@v8@@V?$NonCopyablePersistentTraits@VValue@v8@@@2@@v8@@U?$default_delete@V?$Persistent@VValue@v8@@V?$NonCopyablePersistentTraits@VValue@v8@@@2@@v8@@@std@@@std@@@0@@Z 000000018002c520 f i isolate_handle.obj
 0001:0002b570       ??_G?$_Ref_count_obj@VExternalCopyArrayBuffer@ivm@@@std@@UEAAPEAXI@Z 000000018002c570 f i isolate_handle.obj
 0001:0002b570       ??_E?$_Ref_count_obj@VExternalCopyArrayBuffer@ivm@@@std@@UEAAPEAXI@Z 000000018002c570 f i * CIL library *:* CIL module *
 0001:0002b5a0       ??_G?$_Ref_count_obj@UModuleInfo@ivm@@@std@@UEAAPEAXI@Z 000000018002c5a0 f i isolate_handle.obj
 0001:0002b5a0       ??_E?$_Ref_count_obj@UModuleInfo@ivm@@@std@@UEAAPEAXI@Z 000000018002c5a0 f i * CIL library *:* CIL module *
 0001:0002b5d0       ?_Destroy@?$_Ref_count_del@V?$RemoteHandle@VContext@v8@@@ivm@@UContextDeleter@?1??Phase2@CreateContextRunner@2@UEAAXXZ@@std@@EEAAXXZ 000000018002c5d0 f i isolate_handle.obj
 0001:0002b5e0       ?_Get_deleter@?$_Ref_count_del@V?$RemoteHandle@VContext@v8@@@ivm@@UContextDeleter@?1??Phase2@CreateContextRunner@2@UEAAXXZ@@std@@UEBAPEAXAEBVtype_info@@@Z 000000018002c5e0 f i isolate_handle.obj
 0001:0002b610       ??0?$_Ref_count_del@V?$RemoteHandle@VContext@v8@@@ivm@@UContextDeleter@?1??Phase2@CreateContextRunner@2@UEAAXXZ@@std@@QEAA@PEAV?$RemoteHandle@VContext@v8@@@ivm@@UContextDeleter@?1??Phase2@CreateContextRunner@3@UEAAXXZ@@Z 000000018002c610 f i isolate_handle.obj
 0001:0002b690       ?reserve@?$basic_string@DU?$char_traits@D@std@@V?$allocator@D@2@@std@@QEAAX_K@Z 000000018002c690 f i isolate_handle.obj
 0001:0002b740       ??_E?$_Ref_count_del@V?$RemoteHandle@VContext@v8@@@ivm@@UContextDeleter@?1??Phase2@CreateContextRunner@2@UEAAXXZ@@std@@UEAAPEAXI@Z 000000018002c740 f i * CIL library *:* CIL module *
 0001:0002b740       ??_G?$_Ref_count_del@V?$RemoteHandle@VContext@v8@@@ivm@@UContextDeleter@?1??Phase2@CreateContextRunner@2@UEAAXXZ@@std@@UEAAPEAXI@Z 000000018002c740 f i isolate_handle.obj
 0001:0002b7b0       ??$ParameterizeHelperCtorStart@$0A@VClassHandle@ivm@@V?$MaybeLocal@VObject@v8@@@v8@@@ClassHandle@ivm@@CA?AV?$Local@VValue@v8@@@v8@@AEBV?$FunctionCallbackInfo@VValue@v8@@@3@P6A?AV?$unique_ptr@VClassHandle@ivm@@U?$default_delete@VClassHandle@ivm@@@std@@@std@@V?$MaybeLocal@VObject@v8@@@3@@Z@Z 000000018002c7b0 f i isolate_handle.obj
 0001:0002b840       ??$RunCallback@V<lambda_bff8763002fdd5fd0d65a02d9cbc2f8b>@@$$CBV?$FunctionCallbackInfo@VValue@v8@@@v8@@@FunctorRunners@ivm@@YAXAEBV?$FunctionCallbackInfo@VValue@v8@@@v8@@V<lambda_bff8763002fdd5fd0d65a02d9cbc2f8b>@@@Z 000000018002c840 f i isolate_handle.obj
 0001:0002b8b0       ??$RunCallback@V<lambda_fdca3be92e813ac14b6598a75233949d>@@$$CBV?$FunctionCallbackInfo@VValue@v8@@@v8@@@FunctorRunners@ivm@@YAXAEBV?$FunctionCallbackInfo@VValue@v8@@@v8@@V<lambda_fdca3be92e813ac14b6598a75233949d>@@@Z 000000018002c8b0 f i isolate_handle.obj
 0001:0002b950       ??$make_unique@UCompileScriptRunner@ivm@@AEAV?$shared_ptr@VIsolateHolder@ivm@@@std@@AEAV?$Local@VString@v8@@@v8@@AEAV?$MaybeLocal@VObject@v8@@@6@@std@@YA?AV?$unique_ptr@UCompileScriptRunner@ivm@@U?$default_delete@UCompileScriptRunner@ivm@@@std@@@0@AEAV?$shared_ptr@VIsolateHolder@ivm@@@0@AEAV?$Local@VString@v8@@@v8@@AEAV?$MaybeLocal@VObject@v8@@@4@@Z 000000018002c950 f i isolate_handle.obj
 0001:0002b9f0       ??$make_unique@UCalleeInfo@ThreePhaseTask@ivm@@AEAV?$Local@VResolver@Promise@v8@@@v8@@AEAV?$Local@VContext@v8@@@5@AEAV?$Local@VStackTrace@v8@@@5@@std@@YA?AV?$unique_ptr@UCalleeInfo@ThreePhaseTask@ivm@@U?$default_delete@UCalleeInfo@ThreePhaseTask@ivm@@@std@@@0@AEAV?$Local@VResolver@Promise@v8@@@v8@@AEAV?$Local@VContext@v8@@@3@AEAV?$Local@VStackTrace@v8@@@3@@Z 000000018002c9f0 f i isolate_handle.obj
 0001:0002ba70       ??$make_unique@UPhase2Runner@ThreePhaseTask@ivm@@V?$unique_ptr@UCompileModuleRunner@ivm@@U?$default_delete@UCompileModuleRunner@ivm@@@std@@@std@@V?$unique_ptr@UCalleeInfo@ThreePhaseTask@ivm@@U?$default_delete@UCalleeInfo@ThreePhaseTask@ivm@@@std@@@5@@std@@YA?AV?$unique_ptr@UPhase2Runner@ThreePhaseTask@ivm@@U?$default_delete@UPhase2Runner@ThreePhaseTask@ivm@@@std@@@0@$$QEAV?$unique_ptr@UCompileModuleRunner@ivm@@U?$default_delete@UCompileModuleRunner@ivm@@@std@@@0@$$QEAV?$unique_ptr@UCalleeInfo@ThreePhaseTask@ivm@@U?$default_delete@UCalleeInfo@ThreePhaseTask@ivm@@@std@@@0@@Z 000000018002ca70 f i isolate_handle.obj
 0001:0002ba70       ??$make_unique@UPhase2Runner@ThreePhaseTask@ivm@@V?$unique_ptr@UApplyRunner@ivm@@U?$default_delete@UApplyRunner@ivm@@@std@@@std@@V?$unique_ptr@UCalleeInfo@ThreePhaseTask@ivm@@U?$default_delete@UCalleeInfo@ThreePhaseTask@ivm@@@std@@@5@@std@@YA?AV?$unique_ptr@UPhase2Runner@ThreePhaseTask@ivm@@U?$default_delete@UPhase2Runner@ThreePhaseTask@ivm@@@std@@@0@$$QEAV?$unique_ptr@UApplyRunner@ivm@@U?$default_delete@UApplyRunner@ivm@@@std@@@0@$$QEAV?$unique_ptr@UCalleeInfo@ThreePhaseTask@ivm@@U?$default_delete@UCalleeInfo@ThreePhaseTask@ivm@@@std@@@0@@Z 000000018002ca70 f i reference_handle.obj
 0001:0002ba70       ??$make_unique@UPhase2Runner@ThreePhaseTask@ivm@@V?$unique_ptr@UEvaluateRunner@ivm@@U?$default_delete@UEvaluateRunner@ivm@@@std@@@std@@V?$unique_ptr@UCalleeInfo@ThreePhaseTask@ivm@@U?$default_delete@UCalleeInfo@ThreePhaseTask@ivm@@@std@@@5@@std@@YA?AV?$unique_ptr@UPhase2Runner@ThreePhaseTask@ivm@@U?$default_delete@UPhase2Runner@ThreePhaseTask@ivm@@@std@@@0@$$QEAV?$unique_ptr@UEvaluateRunner@ivm@@U?$default_delete@UEvaluateRunner@ivm@@@std@@@0@$$QEAV?$unique_ptr@UCalleeInfo@ThreePhaseTask@ivm@@U?$default_delete@UCalleeInfo@ThreePhaseTask@ivm@@@std@@@0@@Z 000000018002ca70 f i module_handle.obj
 0001:0002ba70       ??$make_unique@UPhase2Runner@ThreePhaseTask@ivm@@V?$unique_ptr@UInstantiateRunner@ivm@@U?$default_delete@UInstantiateRunner@ivm@@@std@@@std@@V?$unique_ptr@UCalleeInfo@ThreePhaseTask@ivm@@U?$default_delete@UCalleeInfo@ThreePhaseTask@ivm@@@std@@@5@@std@@YA?AV?$unique_ptr@UPhase2Runner@ThreePhaseTask@ivm@@U?$default_delete@UPhase2Runner@ThreePhaseTask@ivm@@@std@@@0@$$QEAV?$unique_ptr@UInstantiateRunner@ivm@@U?$default_delete@UInstantiateRunner@ivm@@@std@@@0@$$QEAV?$unique_ptr@UCalleeInfo@ThreePhaseTask@ivm@@U?$default_delete@UCalleeInfo@ThreePhaseTask@ivm@@@std@@@0@@Z 000000018002ca70 f i module_handle.obj
 0001:0002ba70       ??$make_unique@UPhase2Runner@ThreePhaseTask@ivm@@V?$unique_ptr@UGetRunner@ivm@@U?$default_delete@UGetRunner@ivm@@@std@@@std@@V?$unique_ptr@UCalleeInfo@ThreePhaseTask@ivm@@U?$default_delete@UCalleeInfo@ThreePhaseTask@ivm@@@std@@@5@@std@@YA?AV?$unique_ptr@UPhase2Runner@ThreePhaseTask@ivm@@U?$default_delete@UPhase2Runner@ThreePhaseTask@ivm@@@std@@@0@$$QEAV?$unique_ptr@UGetRunner@ivm@@U?$default_delete@UGetRunner@ivm@@@std@@@0@$$QEAV?$unique_ptr@UCalleeInfo@ThreePhaseTask@ivm@@U?$default_delete@UCalleeInfo@ThreePhaseTask@ivm@@@std@@@0@@Z 000000018002ca70 f i reference_handle.obj
 0001:0002ba70       ??$make_unique@UPhase2Runner@ThreePhaseTask@ivm@@V?$unique_ptr@VCreateRunner@ivm@@U?$default_delete@VCreateRunner@ivm@@@std@@@std@@V?$unique_ptr@UCalleeInfo@ThreePhaseTask@ivm@@U?$default_delete@UCalleeInfo@ThreePhaseTask@ivm@@@std@@@5@@std@@YA?AV?$unique_ptr@UPhase2Runner@ThreePhaseTask@ivm@@U?$default_delete@UPhase2Runner@ThreePhaseTask@ivm@@@std@@@0@$$QEAV?$unique_ptr@VCreateRunner@ivm@@U?$default_delete@VCreateRunner@ivm@@@std@@@0@$$QEAV?$unique_ptr@UCalleeInfo@ThreePhaseTask@ivm@@U?$default_delete@UCalleeInfo@ThreePhaseTask@ivm@@@std@@@0@@Z 000000018002ca70 f i native_module_handle.obj
 0001:0002ba70       ??$make_unique@UPhase2Runner@ThreePhaseTask@ivm@@V?$unique_ptr@UHeapStatRunner@ivm@@U?$default_delete@UHeapStatRunner@ivm@@@std@@@std@@V?$unique_ptr@UCalleeInfo@ThreePhaseTask@ivm@@U?$default_delete@UCalleeInfo@ThreePhaseTask@ivm@@@std@@@5@@std@@YA?AV?$unique_ptr@UPhase2Runner@ThreePhaseTask@ivm@@U?$default_delete@UPhase2Runner@ThreePhaseTask@ivm@@@std@@@0@$$QEAV?$unique_ptr@UHeapStatRunner@ivm@@U?$default_delete@UHeapStatRunner@ivm@@@std@@@0@$$QEAV?$unique_ptr@UCalleeInfo@ThreePhaseTask@ivm@@U?$default_delete@UCalleeInfo@ThreePhaseTask@ivm@@@std@@@0@@Z 000000018002ca70 f i isolate_handle.obj
 0001:0002ba70       ??$make_unique@UPhase2Runner@ThreePhaseTask@ivm@@V?$unique_ptr@UCompileScriptRunner@ivm@@U?$default_delete@UCompileScriptRunner@ivm@@@std@@@std@@V?$unique_ptr@UCalleeInfo@ThreePhaseTask@ivm@@U?$default_delete@UCalleeInfo@ThreePhaseTask@ivm@@@std@@@5@@std@@YA?AV?$unique_ptr@UPhase2Runner@ThreePhaseTask@ivm@@U?$default_delete@UPhase2Runner@ThreePhaseTask@ivm@@@std@@@0@$$QEAV?$unique_ptr@UCompileScriptRunner@ivm@@U?$default_delete@UCompileScriptRunner@ivm@@@std@@@0@$$QEAV?$unique_ptr@UCalleeInfo@ThreePhaseTask@ivm@@U?$default_delete@UCalleeInfo@ThreePhaseTask@ivm@@@std@@@0@@Z 000000018002ca70 f i isolate_handle.obj
 0001:0002ba70       ??$make_unique@UPhase2Runner@ThreePhaseTask@ivm@@V?$unique_ptr@UCreateContextRunner@ivm@@U?$default_delete@UCreateContextRunner@ivm@@@std@@@std@@V?$unique_ptr@UCalleeInfo@ThreePhaseTask@ivm@@U?$default_delete@UCalleeInfo@ThreePhaseTask@ivm@@@std@@@5@@std@@YA?AV?$unique_ptr@UPhase2Runner@ThreePhaseTask@ivm@@U?$default_delete@UPhase2Runner@ThreePhaseTask@ivm@@@std@@@0@$$QEAV?$unique_ptr@UCreateContextRunner@ivm@@U?$default_delete@UCreateContextRunner@ivm@@@std@@@0@$$QEAV?$unique_ptr@UCalleeInfo@ThreePhaseTask@ivm@@U?$default_delete@UCalleeInfo@ThreePhaseTask@ivm@@@std@@@0@@Z 000000018002ca70 f i isolate_handle.obj
 0001:0002ba70       ??$make_unique@UPhase2Runner@ThreePhaseTask@ivm@@V?$unique_ptr@UCopyRunner@ivm@@U?$default_delete@UCopyRunner@ivm@@@std@@@std@@V?$unique_ptr@UCalleeInfo@ThreePhaseTask@ivm@@U?$default_delete@UCalleeInfo@ThreePhaseTask@ivm@@@std@@@5@@std@@YA?AV?$unique_ptr@UPhase2Runner@ThreePhaseTask@ivm@@U?$default_delete@UPhase2Runner@ThreePhaseTask@ivm@@@std@@@0@$$QEAV?$unique_ptr@UCopyRunner@ivm@@U?$default_delete@UCopyRunner@ivm@@@std@@@0@$$QEAV?$unique_ptr@UCalleeInfo@ThreePhaseTask@ivm@@U?$default_delete@UCalleeInfo@ThreePhaseTask@ivm@@@std@@@0@@Z 000000018002ca70 f i reference_handle.obj
 0001:0002ba70       ??$make_unique@UPhase2Runner@ThreePhaseTask@ivm@@V?$unique_ptr@USetRunner@ivm@@U?$default_delete@USetRunner@ivm@@@std@@@std@@V?$unique_ptr@UCalleeInfo@ThreePhaseTask@ivm@@U?$default_delete@UCalleeInfo@ThreePhaseTask@ivm@@@std@@@5@@std@@YA?AV?$unique_ptr@UPhase2Runner@ThreePhaseTask@ivm@@U?$default_delete@UPhase2Runner@ThreePhaseTask@ivm@@@std@@@0@$$QEAV?$unique_ptr@USetRunner@ivm@@U?$default_delete@USetRunner@ivm@@@std@@@0@$$QEAV?$unique_ptr@UCalleeInfo@ThreePhaseTask@ivm@@U?$default_delete@UCalleeInfo@ThreePhaseTask@ivm@@@std@@@0@@Z 000000018002ca70 f i reference_handle.obj
 0001:0002ba70       ??$make_unique@UPhase2Runner@ThreePhaseTask@ivm@@V?$unique_ptr@URunRunner@ivm@@U?$default_delete@URunRunner@ivm@@@std@@@std@@V?$unique_ptr@UCalleeInfo@ThreePhaseTask@ivm@@U?$default_delete@UCalleeInfo@ThreePhaseTask@ivm@@@std@@@5@@std@@YA?AV?$unique_ptr@UPhase2Runner@ThreePhaseTask@ivm@@U?$default_delete@UPhase2Runner@ThreePhaseTask@ivm@@@std@@@0@$$QEAV?$unique_ptr@URunRunner@ivm@@U?$default_delete@URunRunner@ivm@@@std@@@0@$$QEAV?$unique_ptr@UCalleeInfo@ThreePhaseTask@ivm@@U?$default_delete@UCalleeInfo@ThreePhaseTask@ivm@@@std@@@0@@Z 000000018002ca70 f i script_handle.obj
 0001:0002baf0       ??$RunCatchValue@V<lambda_398a63e2281c11e052b2e0ea72c5ccc9>@@V<lambda_e649d844e116fb48749914bff6cfbbdc>@@@FunctorRunners@ivm@@YAXV<lambda_398a63e2281c11e052b2e0ea72c5ccc9>@@V<lambda_e649d844e116fb48749914bff6cfbbdc>@@@Z 000000018002caf0 f i isolate_handle.obj
 0001:0002bb50       ??$RunCallback@V<lambda_a59cd2e1e43b2d3446e9e207d999942a>@@$$CBV?$FunctionCallbackInfo@VValue@v8@@@v8@@@FunctorRunners@ivm@@YAXAEBV?$FunctionCallbackInfo@VValue@v8@@@v8@@V<lambda_a59cd2e1e43b2d3446e9e207d999942a>@@@Z 000000018002cb50 f i isolate_handle.obj
 0001:0002bc20       ??$RunCallback@V<lambda_61946e79044c8d4b5cb9c69a9f33332e>@@$$CBV?$FunctionCallbackInfo@VValue@v8@@@v8@@@FunctorRunners@ivm@@YAXAEBV?$FunctionCallbackInfo@VValue@v8@@@v8@@V<lambda_61946e79044c8d4b5cb9c69a9f33332e>@@@Z 000000018002cc20 f i isolate_handle.obj
 0001:0002bcf0       ??$make_unique@UCompileModuleRunner@ivm@@AEAV?$Local@VString@v8@@@v8@@AEAV?$MaybeLocal@VObject@v8@@@4@@std@@YA?AV?$unique_ptr@UCompileModuleRunner@ivm@@U?$default_delete@UCompileModuleRunner@ivm@@@std@@@0@AEAV?$Local@VString@v8@@@v8@@AEAV?$MaybeLocal@VObject@v8@@@3@@Z 000000018002ccf0 f i isolate_handle.obj
 0001:0002bd60       ??$RunCatchValue@V<lambda_43edbe6a0f80a0d8244a4b8a1ed1eda6>@@V<lambda_7c59dcf579955b788e7f19140a145d33>@@@FunctorRunners@ivm@@YAXV<lambda_43edbe6a0f80a0d8244a4b8a1ed1eda6>@@V<lambda_7c59dcf579955b788e7f19140a145d33>@@@Z 000000018002cd60 f i isolate_handle.obj
 0001:0002bdc0       ??$RunCallback@V<lambda_e799c8d2454a8996da5b607889c4019e>@@$$CBV?$FunctionCallbackInfo@VValue@v8@@@v8@@@FunctorRunners@ivm@@YAXAEBV?$FunctionCallbackInfo@VValue@v8@@@v8@@V<lambda_e799c8d2454a8996da5b607889c4019e>@@@Z 000000018002cdc0 f i isolate_handle.obj
 0001:0002be90       ??$RunCallback@V<lambda_c4b4bba493638e756efc00092ac0182e>@@$$CBV?$FunctionCallbackInfo@VValue@v8@@@v8@@@FunctorRunners@ivm@@YAXAEBV?$FunctionCallbackInfo@VValue@v8@@@v8@@V<lambda_c4b4bba493638e756efc00092ac0182e>@@@Z 000000018002ce90 f i isolate_handle.obj
 0001:0002bf60       ??$RunCallback@V<lambda_ae972f4c140587341d1941d3af96728a>@@$$CBV?$PropertyCallbackInfo@VValue@v8@@@v8@@@FunctorRunners@ivm@@YAXAEBV?$PropertyCallbackInfo@VValue@v8@@@v8@@V<lambda_ae972f4c140587341d1941d3af96728a>@@@Z 000000018002cf60 f i isolate_handle.obj
 0001:0002bfd0       ??$make_unique@UCreateContextRunner@ivm@@AEAV?$MaybeLocal@VObject@v8@@@v8@@@std@@YA?AV?$unique_ptr@UCreateContextRunner@ivm@@U?$default_delete@UCreateContextRunner@ivm@@@std@@@0@AEAV?$MaybeLocal@VObject@v8@@@v8@@@Z 000000018002cfd0 f i isolate_handle.obj
 0001:0002c030       ??$RunCatchValue@V<lambda_11b4cd570aef891231bcc15558c87bcf>@@V<lambda_af52f52a2dceba0fedeb9951716761bd>@@@FunctorRunners@ivm@@YAXV<lambda_11b4cd570aef891231bcc15558c87bcf>@@V<lambda_af52f52a2dceba0fedeb9951716761bd>@@@Z 000000018002d030 f i isolate_handle.obj
 0001:0002c090       ??$RunCallback@V<lambda_2c3239b1495563f8f2a42f171308667e>@@$$CBV?$FunctionCallbackInfo@VValue@v8@@@v8@@@FunctorRunners@ivm@@YAXAEBV?$FunctionCallbackInfo@VValue@v8@@@v8@@V<lambda_2c3239b1495563f8f2a42f171308667e>@@@Z 000000018002d090 f i isolate_handle.obj
 0001:0002c130       ??$RunCallback@V<lambda_5844238cc574977b43bdff4209a60bed>@@$$CBV?$FunctionCallbackInfo@VValue@v8@@@v8@@@FunctorRunners@ivm@@YAXAEBV?$FunctionCallbackInfo@VValue@v8@@@v8@@V<lambda_5844238cc574977b43bdff4209a60bed>@@@Z 000000018002d130 f i isolate_handle.obj
 0001:0002c1d0       ??$RunCallback@V<lambda_c1a89f6d85ac8a1a7a2aa1466e68441a>@@$$CBV?$FunctionCallbackInfo@VValue@v8@@@v8@@@FunctorRunners@ivm@@YAXAEBV?$FunctionCallbackInfo@VValue@v8@@@v8@@V<lambda_c1a89f6d85ac8a1a7a2aa1466e68441a>@@@Z 000000018002d1d0 f i isolate_handle.obj
 0001:0002c240       ??$RunCallback@V<lambda_15a741d9b213e77146b78e1860508fde>@@$$CBV?$FunctionCallbackInfo@VValue@v8@@@v8@@@FunctorRunners@ivm@@YAXAEBV?$FunctionCallbackInfo@VValue@v8@@@v8@@V<lambda_15a741d9b213e77146b78e1860508fde>@@@Z 000000018002d240 f i isolate_handle.obj
 0001:0002c2b0       ??$make_unique@UHeapStatRunner@ivm@@H@std@@YA?AV?$unique_ptr@UHeapStatRunner@ivm@@U?$default_delete@UHeapStatRunner@ivm@@@std@@@0@$$QEAH@Z 000000018002d2b0 f i isolate_handle.obj
 0001:0002c320       ??$RunCatchValue@V<lambda_1f0d4fd54c03a9c31fa420bd4ff93606>@@V<lambda_a535a23d8bdb954b45b56c25c2ccc733>@@@FunctorRunners@ivm@@YAXV<lambda_1f0d4fd54c03a9c31fa420bd4ff93606>@@V<lambda_a535a23d8bdb954b45b56c25c2ccc733>@@@Z 000000018002d320 f i isolate_handle.obj
 0001:0002c380       ??$RunCallback@V<lambda_6c2f0a60503d2e3bd49468b09adb5e84>@@$$CBV?$FunctionCallbackInfo@VValue@v8@@@v8@@@FunctorRunners@ivm@@YAXAEBV?$FunctionCallbackInfo@VValue@v8@@@v8@@V<lambda_6c2f0a60503d2e3bd49468b09adb5e84>@@@Z 000000018002d380 f i isolate_handle.obj
 0001:0002c3f0       ??$RunCallback@V<lambda_ec2d109412918a71c9a6a7fa3ddcad1d>@@$$CBV?$FunctionCallbackInfo@VValue@v8@@@v8@@@FunctorRunners@ivm@@YAXAEBV?$FunctionCallbackInfo@VValue@v8@@@v8@@V<lambda_ec2d109412918a71c9a6a7fa3ddcad1d>@@@Z 000000018002d3f0 f i isolate_handle.obj
 0001:0002c460       ??$RunCallback@V<lambda_3373e41f268caa8b561499c7f597fbe2>@@$$CBV?$PropertyCallbackInfo@VValue@v8@@@v8@@@FunctorRunners@ivm@@YAXAEBV?$PropertyCallbackInfo@VValue@v8@@@v8@@V<lambda_3373e41f268caa8b561499c7f597fbe2>@@@Z 000000018002d460 f i isolate_handle.obj
 0001:0002c4d0       ??$RunCallback@V<lambda_fc5d56e9bd60d29ac7b995bed588fd54>@@$$CBV?$PropertyCallbackInfo@VValue@v8@@@v8@@@FunctorRunners@ivm@@YAXAEBV?$PropertyCallbackInfo@VValue@v8@@@v8@@V<lambda_fc5d56e9bd60d29ac7b995bed588fd54>@@@Z 000000018002d4d0 f i isolate_handle.obj
 0001:0002c540       ??$RunCallback@V<lambda_e517316bbeea24f850ae5eb15170616e>@@$$CBV?$PropertyCallbackInfo@VValue@v8@@@v8@@@FunctorRunners@ivm@@YAXAEBV?$PropertyCallbackInfo@VValue@v8@@@v8@@V<lambda_e517316bbeea24f850ae5eb15170616e>@@@Z 000000018002d540 f i isolate_handle.obj
 0001:0002c5b0       ??$AddMethods@PEBDU?$pair@P6AXAEBV?$FunctionCallbackInfo@VValue@v8@@@v8@@@ZH@std@@PEBDU12@PEBDU12@PEBDU?$pair@P6AXV?$Local@VString@v8@@@v8@@AEBV?$PropertyCallbackInfo@VValue@v8@@@2@@ZP6AX0V?$Local@VValue@v8@@@2@AEBV?$PropertyCallbackInfo@X@2@@Z@2@PEBDU12@PEBDU12@PEBDU12@PEBDU12@PEBDU12@PEBDU12@PEBDU32@PEBDU32@PEBDU32@@ClassHandle@ivm@@CAXPEAVIsolate@v8@@AEAV?$Local@VFunctionTemplate@v8@@@3@AEAV?$Local@VObjectTemplate@v8@@@3@AEAV?$Local@VSignature@v8@@@3@AEAV?$Local@VAccessorSignature@v8@@@3@PEBDU?$pair@P6AXAEBV?$FunctionCallbackInfo@VValue@v8@@@v8@@@ZH@std@@5656565U?$pair@P6AXV?$Local@VString@v8@@@v8@@AEBV?$PropertyCallbackInfo@VValue@v8@@@2@@ZP6AX0V?$Local@VValue@v8@@@2@AEBV?$PropertyCallbackInfo@X@2@@Z@9@565656565656575757@Z 000000018002d5b0 f i isolate_handle.obj
 0001:0002c9f0       ??$ParameterizeHelper@AEBV?$FunctionCallbackInfo@VValue@v8@@@v8@@$0A@P6A?AV?$unique_ptr@VClassHandle@ivm@@U?$default_delete@VClassHandle@ivm@@@std@@@std@@V?$MaybeLocal@VObject@v8@@@2@@ZV34@V?$tuple@$$V@4@V52@$$V@ClassHandle@ivm@@CA?AV?$unique_ptr@VClassHandle@ivm@@U?$default_delete@VClassHandle@ivm@@@std@@@std@@P6A?AV23@V?$MaybeLocal@VObject@v8@@@v8@@@ZV?$tuple@$$V@3@AEBV?$FunctionCallbackInfo@VValue@v8@@@5@@Z 000000018002d9f0 f i isolate_handle.obj
 0001:0002ca30       ?Invoke@?$ConvertParamInvoke@U?$ConvertParam@V?$Local@VArray@v8@@@v8@@@ivm@@$0A@$01@ivm@@SA?AV?$Local@VArray@v8@@@v8@@AEBV?$FunctionCallbackInfo@VValue@v8@@@4@@Z 000000018002da30 f i isolate_handle.obj
 0001:0002cac0       ?Invoke@?$ConvertParamInvoke@U?$ConvertParam@PEAVIsolateHandle@ivm@@@ivm@@$0?0$01@ivm@@SAPEAVIsolateHandle@2@AEBV?$FunctionCallbackInfo@VValue@v8@@@v8@@@Z 000000018002dac0 f i isolate_handle.obj
 0001:0002cb10       ?Invoke@?$ConvertParamInvoke@U?$ConvertParam@PEAVIsolateHandle@ivm@@@ivm@@$0?0$0A@@ivm@@SAPEAVIsolateHandle@2@AEBV?$PropertyCallbackInfo@VValue@v8@@@v8@@@Z 000000018002db10 f i isolate_handle.obj
 0001:0002cb60       ?Invoke@?$ConvertParamInvoke@U?$ConvertParam@PEAVIsolateHandle@ivm@@@ivm@@$0?0$00@ivm@@SAPEAVIsolateHandle@2@AEBV?$FunctionCallbackInfo@VValue@v8@@@v8@@@Z 000000018002db60 f i isolate_handle.obj
 0001:0002cbb0       ?Invoke@?$ConvertParamInvoke@U?$ConvertParam@PEAVIsolateHandle@ivm@@@ivm@@$0?0$0A@@ivm@@SAPEAVIsolateHandle@2@AEBV?$FunctionCallbackInfo@VValue@v8@@@v8@@@Z 000000018002dbb0 f i isolate_handle.obj
 0001:0002cc00       ??$_Uninitialized_move_al_unchecked1@PEAU?$pair@V?$basic_string@DU?$char_traits@D@std@@V?$allocator@D@2@@std@@VScriptOriginHolder@ivm@@@std@@PEAU12@V?$allocator@U?$pair@V?$basic_string@DU?$char_traits@D@std@@V?$allocator@D@2@@std@@VScriptOriginHolder@ivm@@@std@@@2@@std@@YAPEAU?$pair@V?$basic_string@DU?$char_traits@D@std@@V?$allocator@D@2@@std@@VScriptOriginHolder@ivm@@@0@PEAU10@00AEAU?$_Wrap_alloc@V?$allocator@U?$pair@V?$basic_string@DU?$char_traits@D@std@@V?$allocator@D@2@@std@@VScriptOriginHolder@ivm@@@std@@@std@@@0@U_General_ptr_iterator_tag@0@U_Any_tag@0@@Z 000000018002dc00 f i isolate_handle.obj
 0001:0002ccc0       ?Convert@?$ConvertParam@PEAVIsolateHandle@ivm@@@ivm@@SAPEAVIsolateHandle@2@V?$Local@VValue@v8@@@v8@@@Z 000000018002dcc0 f i isolate_handle.obj
 0001:0002ce00       ??$ParameterizeHelper@AEBV?$FunctionCallbackInfo@VValue@v8@@@v8@@$0A@P6A?AV?$unique_ptr@VClassHandle@ivm@@U?$default_delete@VClassHandle@ivm@@@std@@@std@@V?$MaybeLocal@VObject@v8@@@2@@ZV34@V?$tuple@V?$MaybeLocal@VObject@v8@@@v8@@@4@@ClassHandle@ivm@@CA?AV?$unique_ptr@VClassHandle@ivm@@U?$default_delete@VClassHandle@ivm@@@std@@@std@@P6A?AV23@V?$MaybeLocal@VObject@v8@@@v8@@@ZV?$tuple@V?$MaybeLocal@VObject@v8@@@v8@@@3@AEBV?$FunctionCallbackInfo@VValue@v8@@@5@@Z 000000018002de00 f i isolate_handle.obj
 0001:0002ce50       ??$apply_from_tuple@AEAP6A?AV?$unique_ptr@VReferenceHandle@ivm@@U?$default_delete@VReferenceHandle@ivm@@@std@@@std@@V?$Local@VValue@v8@@@v8@@@ZV34@@@YA?AV?$unique_ptr@VReferenceHandle@ivm@@U?$default_delete@VReferenceHandle@ivm@@@std@@@std@@AEAP6A?AV01@V?$Local@VValue@v8@@@v8@@@ZV?$tuple@V?$Local@VValue@v8@@@v8@@@1@@Z 000000018002de50 f i reference_handle.obj
 0001:0002ce50       ??$apply_from_tuple@AEAP6A?AV?$unique_ptr@VClassHandle@ivm@@U?$default_delete@VClassHandle@ivm@@@std@@@std@@V?$MaybeLocal@VObject@v8@@@v8@@@ZV34@@@YA?AV?$unique_ptr@VClassHandle@ivm@@U?$default_delete@VClassHandle@ivm@@@std@@@std@@AEAP6A?AV01@V?$MaybeLocal@VObject@v8@@@v8@@@ZV?$tuple@V?$MaybeLocal@VObject@v8@@@v8@@@1@@Z 000000018002de50 f i isolate_handle.obj
 0001:0002ce50       ??$apply_from_tuple@AEAP6A?AV?$unique_ptr@VNativeModuleHandle@ivm@@U?$default_delete@VNativeModuleHandle@ivm@@@std@@@std@@V?$Local@VString@v8@@@v8@@@ZV34@@@YA?AV?$unique_ptr@VNativeModuleHandle@ivm@@U?$default_delete@VNativeModuleHandle@ivm@@@std@@@std@@AEAP6A?AV01@V?$Local@VString@v8@@@v8@@@ZV?$tuple@V?$Local@VString@v8@@@v8@@@1@@Z 000000018002de50 f i native_module_handle.obj
 0001:0002ce70       ??$apply_tuple_impl@AEAP6A?AV?$unique_ptr@VClassHandle@ivm@@U?$default_delete@VClassHandle@ivm@@@std@@@std@@V?$MaybeLocal@VObject@v8@@@v8@@@ZV?$tuple@V?$MaybeLocal@VObject@v8@@@v8@@@2@$0A@@@YA?AV?$unique_ptr@VClassHandle@ivm@@U?$default_delete@VClassHandle@ivm@@@std@@@std@@AEAP6A?AV01@V?$MaybeLocal@VObject@v8@@@v8@@@Z$$QEAV?$tuple@V?$MaybeLocal@VObject@v8@@@v8@@@1@U?$integer_sequence@_K$0A@@1@@Z 000000018002de70 f i isolate_handle.obj
 0001:0002ce70       ??$apply_tuple_impl@AEAP6A?AV?$unique_ptr@VNativeModuleHandle@ivm@@U?$default_delete@VNativeModuleHandle@ivm@@@std@@@std@@V?$Local@VString@v8@@@v8@@@ZV?$tuple@V?$Local@VString@v8@@@v8@@@2@$0A@@@YA?AV?$unique_ptr@VNativeModuleHandle@ivm@@U?$default_delete@VNativeModuleHandle@ivm@@@std@@@std@@AEAP6A?AV01@V?$Local@VString@v8@@@v8@@@Z$$QEAV?$tuple@V?$Local@VString@v8@@@v8@@@1@U?$integer_sequence@_K$0A@@1@@Z 000000018002de70 f i native_module_handle.obj
 0001:0002ce70       ??$apply_tuple_impl@AEAP6A?AV?$unique_ptr@VReferenceHandle@ivm@@U?$default_delete@VReferenceHandle@ivm@@@std@@@std@@V?$Local@VValue@v8@@@v8@@@ZV?$tuple@V?$Local@VValue@v8@@@v8@@@2@$0A@@@YA?AV?$unique_ptr@VReferenceHandle@ivm@@U?$default_delete@VReferenceHandle@ivm@@@std@@@std@@AEAP6A?AV01@V?$Local@VValue@v8@@@v8@@@Z$$QEAV?$tuple@V?$Local@VValue@v8@@@v8@@@1@U?$integer_sequence@_K$0A@@1@@Z 000000018002de70 f i reference_handle.obj
 0001:0002cec0       ?Invoke@?$ConvertParamInvoke@U?$ConvertParam@V?$MaybeLocal@VString@v8@@@v8@@@ivm@@$00$01@ivm@@SA?AV?$MaybeLocal@VString@v8@@@v8@@AEBV?$FunctionCallbackInfo@VValue@v8@@@4@@Z 000000018002dec0 f i isolate_handle.obj
 0001:0002cf60       ?Invoke@?$ConvertParamInvoke@U?$ConvertParam@V?$Local@VString@v8@@@v8@@@ivm@@$0A@$01@ivm@@SA?AV?$Local@VString@v8@@@v8@@AEBV?$FunctionCallbackInfo@VValue@v8@@@4@@Z 000000018002df60 f i isolate_handle.obj
 0001:0002cff0       ??$AddMethods@PEBDU?$pair@P6AXV?$Local@VString@v8@@@v8@@AEBV?$PropertyCallbackInfo@VValue@v8@@@2@@ZP6AX0V?$Local@VValue@v8@@@2@AEBV?$PropertyCallbackInfo@X@2@@Z@std@@PEBDU?$pair@P6AXAEBV?$FunctionCallbackInfo@VValue@v8@@@v8@@@ZH@2@PEBDU32@PEBDU32@PEBDU32@PEBDU32@PEBDU32@PEBDU12@PEBDU12@PEBDU12@@ClassHandle@ivm@@CAXPEAVIsolate@v8@@AEAV?$Local@VFunctionTemplate@v8@@@3@AEAV?$Local@VObjectTemplate@v8@@@3@AEAV?$Local@VSignature@v8@@@3@AEAV?$Local@VAccessorSignature@v8@@@3@PEBDU?$pair@P6AXAEBV?$FunctionCallbackInfo@VValue@v8@@@v8@@@ZH@std@@5U?$pair@P6AXV?$Local@VString@v8@@@v8@@AEBV?$PropertyCallbackInfo@VValue@v8@@@2@@ZP6AX0V?$Local@VValue@v8@@@2@AEBV?$PropertyCallbackInfo@X@2@@Z@9@565656565656575757@Z 000000018002dff0 f i isolate_handle.obj
 0001:0002d420       ??$AddMethods@PEBDU?$pair@P6AXAEBV?$FunctionCallbackInfo@VValue@v8@@@v8@@@ZH@std@@PEBDU12@PEBDU12@PEBDU?$pair@P6AXV?$Local@VString@v8@@@v8@@AEBV?$PropertyCallbackInfo@VValue@v8@@@2@@ZP6AX0V?$Local@VValue@v8@@@2@AEBV?$PropertyCallbackInfo@X@2@@Z@2@PEBDU32@PEBDU32@@ClassHandle@ivm@@CAXPEAVIsolate@v8@@AEAV?$Local@VFunctionTemplate@v8@@@3@AEAV?$Local@VObjectTemplate@v8@@@3@AEAV?$Local@VSignature@v8@@@3@AEAV?$Local@VAccessorSignature@v8@@@3@PEBDU?$pair@P6AXAEBV?$FunctionCallbackInfo@VValue@v8@@@v8@@@ZH@std@@5656565U?$pair@P6AXV?$Local@VString@v8@@@v8@@AEBV?$PropertyCallbackInfo@VValue@v8@@@2@@ZP6AX0V?$Local@VValue@v8@@@2@AEBV?$PropertyCallbackInfo@X@2@@Z@9@5757@Z 000000018002e420 f i isolate_handle.obj
 0001:0002d710       ??$AddMethods@PEBDU?$pair@P6AXV?$Local@VString@v8@@@v8@@AEBV?$PropertyCallbackInfo@VValue@v8@@@2@@ZP6AX0V?$Local@VValue@v8@@@2@AEBV?$PropertyCallbackInfo@X@2@@Z@std@@PEBDU12@PEBDU12@@ClassHandle@ivm@@CAXPEAVIsolate@v8@@AEAV?$Local@VFunctionTemplate@v8@@@3@AEAV?$Local@VObjectTemplate@v8@@@3@AEAV?$Local@VSignature@v8@@@3@AEAV?$Local@VAccessorSignature@v8@@@3@PEBDU?$pair@P6AXAEBV?$FunctionCallbackInfo@VValue@v8@@@v8@@@ZH@std@@5U?$pair@P6AXV?$Local@VString@v8@@@v8@@AEBV?$PropertyCallbackInfo@VValue@v8@@@2@@ZP6AX0V?$Local@VValue@v8@@@2@AEBV?$PropertyCallbackInfo@X@2@@Z@9@5757@Z 000000018002e710 f i isolate_handle.obj
 0001:0002d920       ??$AddMethods@PEBDU?$pair@P6AXV?$Local@VString@v8@@@v8@@AEBV?$PropertyCallbackInfo@VValue@v8@@@2@@ZP6AX0V?$Local@VValue@v8@@@2@AEBV?$PropertyCallbackInfo@X@2@@Z@std@@@ClassHandle@ivm@@CAXPEAVIsolate@v8@@AEAV?$Local@VFunctionTemplate@v8@@@3@AEAV?$Local@VObjectTemplate@v8@@@3@AEAV?$Local@VSignature@v8@@@3@AEAV?$Local@VAccessorSignature@v8@@@3@PEBDU?$pair@P6AXV?$Local@VString@v8@@@v8@@AEBV?$PropertyCallbackInfo@VValue@v8@@@2@@ZP6AX0V?$Local@VValue@v8@@@2@AEBV?$PropertyCallbackInfo@X@2@@Z@std@@56@Z 000000018002e920 f i isolate_handle.obj
 0001:0002da80       ?Convert@?$ConvertParam@V?$MaybeLocal@VArray@v8@@@v8@@@ivm@@SA?AV?$MaybeLocal@VArray@v8@@@v8@@AEBV?$Local@VValue@v8@@@4@@Z 000000018002ea80 f i lib_handle.obj
 0001:0002db30       ?TransferIn@LibTransferable@LibHandle@ivm@@UEAA?AV?$Local@VValue@v8@@@v8@@XZ 000000018002eb30 f   lib_handle.obj
 0001:0002db60       ?TransferOut@LibHandle@ivm@@UEAA?AV?$unique_ptr@VTransferable@ivm@@U?$default_delete@VTransferable@ivm@@@std@@@std@@XZ 000000018002eb60 f   lib_handle.obj
 0001:0002dbb0       ?Hrtime@LibHandle@ivm@@AEAA?AV?$Local@VValue@v8@@@v8@@V?$MaybeLocal@VArray@v8@@@4@@Z 000000018002ebb0 f   lib_handle.obj
 0001:0002df20       ??$MakeClass@PEBDU?$pair@P6AXAEBV?$FunctionCallbackInfo@VValue@v8@@@v8@@@ZH@std@@@ClassHandle@ivm@@KA?AV?$Local@VFunctionTemplate@v8@@@v8@@PEBDUCtorFunction@01@0U?$pair@P6AXAEBV?$FunctionCallbackInfo@VValue@v8@@@v8@@@ZH@std@@@Z 000000018002ef20 f i lib_handle.obj
 0001:0002e110       ??$make_unique@VLibTransferable@LibHandle@ivm@@$$V@std@@YA?AV?$unique_ptr@VLibTransferable@LibHandle@ivm@@U?$default_delete@VLibTransferable@LibHandle@ivm@@@std@@@0@XZ 000000018002f110 f i lib_handle.obj
 0001:0002e150       ??$Invoke@$1?Hrtime@LibHandle@ivm@@AEAA?AV?$Local@VValue@v8@@@v8@@V?$MaybeLocal@VArray@v8@@@5@@Z@?$MethodCast@P8LibHandle@ivm@@EAA?AV?$Local@VValue@v8@@@v8@@V?$MaybeLocal@VArray@v8@@@4@@Z@ClassHandle@ivm@@SA?AV?$Local@VValue@v8@@@v8@@PEAVLibHandle@2@V?$MaybeLocal@VArray@v8@@@4@@Z 000000018002f150 f i lib_handle.obj
 0001:0002e180       ??$ParameterizeEntry@$0?0P6A?AV?$Local@VValue@v8@@@v8@@PEAVLibHandle@ivm@@V?$MaybeLocal@VArray@v8@@@2@@Z$1??$Invoke@$1?Hrtime@LibHandle@ivm@@AEAA?AV?$Local@VValue@v8@@@v8@@V?$MaybeLocal@VArray@v8@@@5@@Z@?$MethodCast@P8LibHandle@ivm@@EAA?AV?$Local@VValue@v8@@@v8@@V?$MaybeLocal@VArray@v8@@@4@@Z@ClassHandle@4@SA?AV12@01@Z@ClassHandle@ivm@@CAXAEBV?$FunctionCallbackInfo@VValue@v8@@@v8@@@Z 000000018002f180 f i lib_handle.obj
 0001:0002e190       ??$RunCallback@V<lambda_dba83fdda58b2d0bf1dce96d61d0ce65>@@$$CBV?$FunctionCallbackInfo@VValue@v8@@@v8@@@FunctorRunners@ivm@@YAXAEBV?$FunctionCallbackInfo@VValue@v8@@@v8@@V<lambda_dba83fdda58b2d0bf1dce96d61d0ce65>@@@Z 000000018002f190 f i lib_handle.obj
 0001:0002e230       ?Invoke@?$ConvertParamInvoke@U?$ConvertParam@PEAVLibHandle@ivm@@@ivm@@$0?0$00@ivm@@SAPEAVLibHandle@2@AEBV?$FunctionCallbackInfo@VValue@v8@@@v8@@@Z 000000018002f230 f i lib_handle.obj
 0001:0002e280       ?Convert@?$ConvertParam@PEAVLibHandle@ivm@@@ivm@@SAPEAVLibHandle@2@V?$Local@VValue@v8@@@v8@@@Z 000000018002f280 f i lib_handle.obj
 0001:0002e3c0       ?Invoke@?$ConvertParamInvoke@U?$ConvertParam@V?$MaybeLocal@VArray@v8@@@v8@@@ivm@@$0A@$00@ivm@@SA?AV?$MaybeLocal@VArray@v8@@@v8@@AEBV?$FunctionCallbackInfo@VValue@v8@@@4@@Z 000000018002f3c0 f i lib_handle.obj
 0001:0002e450       ??0NativeModule@NativeModuleHandle@ivm@@QEAA@AEBV?$basic_string@DU?$char_traits@D@std@@V?$allocator@D@2@@std@@@Z 000000018002f450 f   native_module_handle.obj
 0001:0002e6d0       ?TransferIn@NativeModuleTransferable@NativeModuleHandle@ivm@@UEAA?AV?$Local@VValue@v8@@@v8@@XZ 000000018002f6d0 f   native_module_handle.obj
 0001:0002e700       ?Definition@NativeModuleHandle@ivm@@SA?AV?$Local@VFunctionTemplate@v8@@@v8@@XZ 000000018002f700 f   native_module_handle.obj
 0001:0002e7c0       ?New@NativeModuleHandle@ivm@@SA?AV?$unique_ptr@VNativeModuleHandle@ivm@@U?$default_delete@VNativeModuleHandle@ivm@@@std@@@std@@V?$Local@VString@v8@@@v8@@@Z 000000018002f7c0 f   native_module_handle.obj
 0001:0002e880       ?TransferOut@NativeModuleHandle@ivm@@UEAA?AV?$unique_ptr@VTransferable@ivm@@U?$default_delete@VTransferable@ivm@@@std@@@std@@XZ 000000018002f880 f   native_module_handle.obj
 0001:0002e8d0       ??0CreateRunner@ivm@@QEAA@V?$shared_ptr@V?$RemoteHandle@VContext@v8@@@ivm@@@std@@V?$shared_ptr@VNativeModule@NativeModuleHandle@ivm@@@3@@Z 000000018002f8d0 f i native_module_handle.obj
 0001:0002e9b0       ?Phase2@CreateRunner@ivm@@MEAAXXZ 000000018002f9b0 f i native_module_handle.obj
 0001:0002eab0       ?Phase3@CreateRunner@ivm@@MEAA?AV?$Local@VValue@v8@@@v8@@XZ 000000018002fab0 f i native_module_handle.obj
 0001:0002eab0       ?Phase3@CopyRunner@ivm@@UEAA?AV?$Local@VValue@v8@@@v8@@XZ 000000018002fab0 f i reference_handle.obj
 0001:0002ead0       ??_GCreateRunner@ivm@@UEAAPEAXI@Z 000000018002fad0 f i native_module_handle.obj
 0001:0002ead0       ??_ECreateRunner@ivm@@UEAAPEAXI@Z 000000018002fad0 f i * CIL library *:* CIL module *
 0001:0002ead0       ??_ECopyRunner@ivm@@UEAAPEAXI@Z 000000018002fad0 f i * CIL library *:* CIL module *
 0001:0002ead0       ??_GCopyRunner@ivm@@UEAAPEAXI@Z 000000018002fad0 f i reference_handle.obj
 0001:0002eb10       ??1CreateRunner@ivm@@UEAA@XZ 000000018002fb10 f i native_module_handle.obj
 0001:0002eb10       ??1CopyRunner@ivm@@UEAA@XZ 000000018002fb10 f i reference_handle.obj
 0001:0002ebc0       ??$NewInstance@VNativeModuleHandle@ivm@@AEAV?$shared_ptr@VNativeModule@NativeModuleHandle@ivm@@@std@@@ClassHandle@ivm@@SA?AV?$Local@VObject@v8@@@v8@@AEAV?$shared_ptr@VNativeModule@NativeModuleHandle@ivm@@@std@@@Z 000000018002fbc0 f i native_module_handle.obj
 0001:0002eca0       ??$MakeClass@PEBDU?$pair@P6AXAEBV?$FunctionCallbackInfo@VValue@v8@@@v8@@@ZH@std@@PEBDU12@@ClassHandle@ivm@@KA?AV?$Local@VFunctionTemplate@v8@@@v8@@PEBDUCtorFunction@01@0U?$pair@P6AXAEBV?$FunctionCallbackInfo@VValue@v8@@@v8@@@ZH@std@@02@Z 000000018002fca0 f i native_module_handle.obj
 0001:0002ef20       ??$make_shared@VNativeModule@NativeModuleHandle@ivm@@PEBD@std@@YA?AV?$shared_ptr@VNativeModule@NativeModuleHandle@ivm@@@0@$$QEAPEBD@Z 000000018002ff20 f i native_module_handle.obj
 0001:0002efa0       ??$make_unique@VNativeModuleHandle@ivm@@V?$shared_ptr@VNativeModule@NativeModuleHandle@ivm@@@std@@@std@@YA?AV?$unique_ptr@VNativeModuleHandle@ivm@@U?$default_delete@VNativeModuleHandle@ivm@@@std@@@0@$$QEAV?$shared_ptr@VNativeModule@NativeModuleHandle@ivm@@@0@@Z 000000018002ffa0 f i native_module_handle.obj
 0001:0002f010       ??$make_unique@VNativeModuleTransferable@NativeModuleHandle@ivm@@AEAV?$shared_ptr@VNativeModule@NativeModuleHandle@ivm@@@std@@@std@@YA?AV?$unique_ptr@VNativeModuleTransferable@NativeModuleHandle@ivm@@U?$default_delete@VNativeModuleTransferable@NativeModuleHandle@ivm@@@std@@@0@AEAV?$shared_ptr@VNativeModule@NativeModuleHandle@ivm@@@0@@Z 0000000180030010 f i native_module_handle.obj
 0001:0002f0a0       ?_Destroy@?$_Ref_count_obj@VNativeModule@NativeModuleHandle@ivm@@@std@@EEAAXXZ 00000001800300a0 f i native_module_handle.obj
 0001:0002f0b0       ??$make_unique@VNativeModuleHandle@ivm@@AEAV?$shared_ptr@VNativeModule@NativeModuleHandle@ivm@@@std@@@std@@YA?AV?$unique_ptr@VNativeModuleHandle@ivm@@U?$default_delete@VNativeModuleHandle@ivm@@@std@@@0@AEAV?$shared_ptr@VNativeModule@NativeModuleHandle@ivm@@@0@@Z 00000001800300b0 f i native_module_handle.obj
 0001:0002f140       ??$ParameterizeCtorEntry@P6A?AV?$unique_ptr@VNativeModuleHandle@ivm@@U?$default_delete@VNativeModuleHandle@ivm@@@std@@@std@@V?$Local@VString@v8@@@v8@@@Z$1?New@NativeModuleHandle@ivm@@SA?AV12@0@Z@ClassHandle@ivm@@CAXAEBV?$FunctionCallbackInfo@VValue@v8@@@v8@@@Z 0000000180030140 f i native_module_handle.obj
 0001:0002f150       ??$Run@$00VCreateRunner@ivm@@AEAV?$shared_ptr@V?$RemoteHandle@VContext@v8@@@ivm@@@std@@AEAV?$shared_ptr@VNativeModule@NativeModuleHandle@ivm@@@4@@ThreePhaseTask@ivm@@SA?AV?$Local@VValue@v8@@@v8@@AEAVIsolateHolder@1@AEAV?$shared_ptr@V?$RemoteHandle@VContext@v8@@@ivm@@@std@@AEAV?$shared_ptr@VNativeModule@NativeModuleHandle@ivm@@@6@@Z 0000000180030150 f i native_module_handle.obj
 0001:0002f4a0       ??$Invoke@$1??$Create@$00@NativeModuleHandle@ivm@@AEAA?AV?$Local@VValue@v8@@@v8@@PEAVContextHandle@2@@Z@?$MethodCast@P8NativeModuleHandle@ivm@@EAA?AV?$Local@VValue@v8@@@v8@@PEAVContextHandle@2@@Z@ClassHandle@ivm@@SA?AV?$Local@VValue@v8@@@v8@@PEAVNativeModuleHandle@2@PEAVContextHandle@2@@Z 00000001800304a0 f i native_module_handle.obj
 0001:0002f500       ??$ParameterizeEntry@$0?0P6A?AV?$Local@VValue@v8@@@v8@@PEAVNativeModuleHandle@ivm@@PEAVContextHandle@4@@Z$1??$Invoke@$1??$Create@$00@NativeModuleHandle@ivm@@AEAA?AV?$Local@VValue@v8@@@v8@@PEAVContextHandle@2@@Z@?$MethodCast@P8NativeModuleHandle@ivm@@EAA?AV?$Local@VValue@v8@@@v8@@PEAVContextHandle@2@@Z@ClassHandle@4@SA?AV12@01@Z@ClassHandle@ivm@@CAXAEBV?$FunctionCallbackInfo@VValue@v8@@@v8@@@Z 0000000180030500 f i native_module_handle.obj
 0001:0002f510       ??$Run@$0A@VCreateRunner@ivm@@AEAV?$shared_ptr@V?$RemoteHandle@VContext@v8@@@ivm@@@std@@AEAV?$shared_ptr@VNativeModule@NativeModuleHandle@ivm@@@4@@ThreePhaseTask@ivm@@SA?AV?$Local@VValue@v8@@@v8@@AEAVIsolateHolder@1@AEAV?$shared_ptr@V?$RemoteHandle@VContext@v8@@@ivm@@@std@@AEAV?$shared_ptr@VNativeModule@NativeModuleHandle@ivm@@@6@@Z 0000000180030510 f i native_module_handle.obj
 0001:0002f5d0       ??$Invoke@$1??$Create@$0A@@NativeModuleHandle@ivm@@AEAA?AV?$Local@VValue@v8@@@v8@@PEAVContextHandle@2@@Z@?$MethodCast@P8NativeModuleHandle@ivm@@EAA?AV?$Local@VValue@v8@@@v8@@PEAVContextHandle@2@@Z@ClassHandle@ivm@@SA?AV?$Local@VValue@v8@@@v8@@PEAVNativeModuleHandle@2@PEAVContextHandle@2@@Z 00000001800305d0 f i native_module_handle.obj
 0001:0002f630       ??$ParameterizeEntry@$0?0P6A?AV?$Local@VValue@v8@@@v8@@PEAVNativeModuleHandle@ivm@@PEAVContextHandle@4@@Z$1??$Invoke@$1??$Create@$0A@@NativeModuleHandle@ivm@@AEAA?AV?$Local@VValue@v8@@@v8@@PEAVContextHandle@2@@Z@?$MethodCast@P8NativeModuleHandle@ivm@@EAA?AV?$Local@VValue@v8@@@v8@@PEAVContextHandle@2@@Z@ClassHandle@4@SA?AV12@01@Z@ClassHandle@ivm@@CAXAEBV?$FunctionCallbackInfo@VValue@v8@@@v8@@@Z 0000000180030630 f i native_module_handle.obj
 0001:0002f640       ??$?0PEBD@?$_Ref_count_obj@VNativeModule@NativeModuleHandle@ivm@@@std@@QEAA@$$QEAPEBD@Z 0000000180030640 f i native_module_handle.obj
 0001:0002f770       ??$ParameterizeHelperCtorStart@$0A@VNativeModuleHandle@ivm@@V?$Local@VString@v8@@@v8@@@ClassHandle@ivm@@CA?AV?$Local@VValue@v8@@@v8@@AEBV?$FunctionCallbackInfo@VValue@v8@@@3@P6A?AV?$unique_ptr@VNativeModuleHandle@ivm@@U?$default_delete@VNativeModuleHandle@ivm@@@std@@@std@@V?$Local@VString@v8@@@3@@Z@Z 0000000180030770 f i native_module_handle.obj
 0001:0002f800       ??$RunCallback@V<lambda_3ec9b183a7fddff285a19ce8d3a2d4f0>@@$$CBV?$FunctionCallbackInfo@VValue@v8@@@v8@@@FunctorRunners@ivm@@YAXAEBV?$FunctionCallbackInfo@VValue@v8@@@v8@@V<lambda_3ec9b183a7fddff285a19ce8d3a2d4f0>@@@Z 0000000180030800 f i native_module_handle.obj
 0001:0002f870       ??$make_unique@VCreateRunner@ivm@@AEAV?$shared_ptr@V?$RemoteHandle@VContext@v8@@@ivm@@@std@@AEAV?$shared_ptr@VNativeModule@NativeModuleHandle@ivm@@@4@@std@@YA?AV?$unique_ptr@VCreateRunner@ivm@@U?$default_delete@VCreateRunner@ivm@@@std@@@0@AEAV?$shared_ptr@V?$RemoteHandle@VContext@v8@@@ivm@@@0@AEAV?$shared_ptr@VNativeModule@NativeModuleHandle@ivm@@@0@@Z 0000000180030870 f i native_module_handle.obj
 0001:0002f920       ??$RunCatchValue@V<lambda_809a19e4a25fa8eddae11d926c22d4fc>@@V<lambda_998b46b9b2426ff2ac93933420478988>@@@FunctorRunners@ivm@@YAXV<lambda_809a19e4a25fa8eddae11d926c22d4fc>@@V<lambda_998b46b9b2426ff2ac93933420478988>@@@Z 0000000180030920 f i native_module_handle.obj
 0001:0002f980       ??$RunCallback@V<lambda_f8289fd3e466de5c0fa6ae188eb542ff>@@$$CBV?$FunctionCallbackInfo@VValue@v8@@@v8@@@FunctorRunners@ivm@@YAXAEBV?$FunctionCallbackInfo@VValue@v8@@@v8@@V<lambda_f8289fd3e466de5c0fa6ae188eb542ff>@@@Z 0000000180030980 f i native_module_handle.obj
 0001:0002fa10       ??$RunCallback@V<lambda_dae44b02f22896b889f8f81ce9c2ccdd>@@$$CBV?$FunctionCallbackInfo@VValue@v8@@@v8@@@FunctorRunners@ivm@@YAXAEBV?$FunctionCallbackInfo@VValue@v8@@@v8@@V<lambda_dae44b02f22896b889f8f81ce9c2ccdd>@@@Z 0000000180030a10 f i native_module_handle.obj
 0001:0002faa0       ??$ParameterizeHelper@AEBV?$FunctionCallbackInfo@VValue@v8@@@v8@@$0A@P6A?AV?$unique_ptr@VNativeModuleHandle@ivm@@U?$default_delete@VNativeModuleHandle@ivm@@@std@@@std@@V?$Local@VString@v8@@@2@@ZV34@V?$tuple@$$V@4@V52@$$V@ClassHandle@ivm@@CA?AV?$unique_ptr@VNativeModuleHandle@ivm@@U?$default_delete@VNativeModuleHandle@ivm@@@std@@@std@@P6A?AV23@V?$Local@VString@v8@@@v8@@@ZV?$tuple@$$V@3@AEBV?$FunctionCallbackInfo@VValue@v8@@@5@@Z 0000000180030aa0 f i native_module_handle.obj
 0001:0002fae0       ?Invoke@?$ConvertParamInvoke@U?$ConvertParam@V?$Local@VString@v8@@@v8@@@ivm@@$0A@$00@ivm@@SA?AV?$Local@VString@v8@@@v8@@AEBV?$FunctionCallbackInfo@VValue@v8@@@4@@Z 0000000180030ae0 f i native_module_handle.obj
 0001:0002fb70       ?Invoke@?$ConvertParamInvoke@U?$ConvertParam@PEAVNativeModuleHandle@ivm@@@ivm@@$0?0$00@ivm@@SAPEAVNativeModuleHandle@2@AEBV?$FunctionCallbackInfo@VValue@v8@@@v8@@@Z 0000000180030b70 f i native_module_handle.obj
 0001:0002fbc0       ?Convert@?$ConvertParam@PEAVNativeModuleHandle@ivm@@@ivm@@SAPEAVNativeModuleHandle@2@V?$Local@VValue@v8@@@v8@@@Z 0000000180030bc0 f i native_module_handle.obj
 0001:0002fd00       ??$ParameterizeHelper@AEBV?$FunctionCallbackInfo@VValue@v8@@@v8@@$0A@P6A?AV?$unique_ptr@VNativeModuleHandle@ivm@@U?$default_delete@VNativeModuleHandle@ivm@@@std@@@std@@V?$Local@VString@v8@@@2@@ZV34@V?$tuple@V?$Local@VString@v8@@@v8@@@4@@ClassHandle@ivm@@CA?AV?$unique_ptr@VNativeModuleHandle@ivm@@U?$default_delete@VNativeModuleHandle@ivm@@@std@@@std@@P6A?AV23@V?$Local@VString@v8@@@v8@@@ZV?$tuple@V?$Local@VString@v8@@@v8@@@3@AEBV?$FunctionCallbackInfo@VValue@v8@@@5@@Z 0000000180030d00 f i native_module_handle.obj
 0001:0002fd50       ?Invoke@?$ConvertParamInvoke@U?$ConvertParam@PEAVContextHandle@ivm@@@ivm@@$0A@$00@ivm@@SAPEAVContextHandle@2@AEBV?$FunctionCallbackInfo@VValue@v8@@@v8@@@Z 0000000180030d50 f i native_module_handle.obj
 0001:0002fdc0       ?CancelAsync@IsolateEnvironment@ivm@@QEAAXXZ 0000000180030dc0 f i reference_handle.obj
 0001:0002fe40       ??0timer_t@ivm@@QEAA@IV?$function@$$A6AXPEAX@Z@std@@@Z 0000000180030e40 f i reference_handle.obj
 0001:0002ff10       ??1timer_t@ivm@@QEAA@XZ    0000000180030f10 f i reference_handle.obj
 0001:0002fff0       ?global_mutex@ThreadWait@ivm@@CAAEAVmutex@std@@XZ 0000000180030ff0 f i reference_handle.obj
 0001:00030070       ?global_cv@ThreadWait@ivm@@CAAEAVcondition_variable@std@@XZ 0000000180031070 f i reference_handle.obj
 0001:000300f0       ??1ThreadWait@ivm@@QEAA@XZ 00000001800310f0 f i reference_handle.obj
 0001:000301e0       ??1TimeoutRunner@ivm@@UEAA@XZ 00000001800311e0 f i reference_handle.obj
 0001:00030260       ?Run@TimeoutRunner@ivm@@UEAAXXZ 0000000180031260 f i reference_handle.obj
 0001:00030340       ??_GTimeoutRunner@ivm@@UEAAPEAXI@Z 0000000180031340 f i reference_handle.obj
 0001:00030340       ??_ETimeoutRunner@ivm@@UEAAPEAXI@Z 0000000180031340 f i * CIL library *:* CIL module *
 0001:00030470       ??0ReferenceHandleTransferable@ReferenceHandle@ivm@@QEAA@V?$shared_ptr@VIsolateHolder@ivm@@@std@@V?$shared_ptr@V?$RemoteHandle@VValue@v8@@@ivm@@@4@V?$shared_ptr@V?$RemoteHandle@VContext@v8@@@ivm@@@4@W4TypeOf@12@@Z 0000000180031470 f   reference_handle.obj
 0001:000305a0       ??_EReferenceHandleTransferable@ReferenceHandle@ivm@@UEAAPEAXI@Z 00000001800315a0 f i * CIL library *:* CIL module *
 0001:000305a0       ??_GReferenceHandleTransferable@ReferenceHandle@ivm@@UEAAPEAXI@Z 00000001800315a0 f i reference_handle.obj
 0001:000305e0       ??1ReferenceHandleTransferable@ReferenceHandle@ivm@@UEAA@XZ 00000001800315e0 f i reference_handle.obj
 0001:000306b0       ?TransferIn@ReferenceHandleTransferable@ReferenceHandle@ivm@@UEAA?AV?$Local@VValue@v8@@@v8@@XZ 00000001800316b0 f   reference_handle.obj
 0001:000306f0       ??0ReferenceHandle@ivm@@QEAA@V?$shared_ptr@VIsolateHolder@ivm@@@std@@V?$shared_ptr@V?$RemoteHandle@VValue@v8@@@ivm@@@3@V?$shared_ptr@V?$RemoteHandle@VContext@v8@@@ivm@@@3@W4TypeOf@01@@Z 00000001800316f0 f   reference_handle.obj
 0001:00030830       ??_GReferenceHandle@ivm@@UEAAPEAXI@Z 0000000180031830 f i reference_handle.obj
 0001:00030830       ??_EReferenceHandle@ivm@@UEAAPEAXI@Z 0000000180031830 f i * CIL library *:* CIL module *
 0001:00030870       ??1ReferenceHandle@ivm@@UEAA@XZ 0000000180031870 f i reference_handle.obj
 0001:00030970       ?Definition@ReferenceHandle@ivm@@SA?AV?$Local@VFunctionTemplate@v8@@@v8@@XZ 0000000180031970 f   reference_handle.obj
 0001:00030d80       ?TransferOut@ReferenceHandle@ivm@@UEAA?AV?$unique_ptr@VTransferable@ivm@@U?$default_delete@VTransferable@ivm@@@std@@@std@@XZ 0000000180031d80 f   reference_handle.obj
 0001:00030de0       ?New@ReferenceHandle@ivm@@SA?AV?$unique_ptr@VReferenceHandle@ivm@@U?$default_delete@VReferenceHandle@ivm@@@std@@@std@@V?$Local@VValue@v8@@@v8@@@Z 0000000180031de0 f   reference_handle.obj
 0001:00030f30       ?CheckDisposed@ReferenceHandle@ivm@@AEBAXXZ 0000000180031f30 f   reference_handle.obj
 0001:00031060       ?TypeOfGetter@ReferenceHandle@ivm@@QEAA?AV?$Local@VValue@v8@@@v8@@XZ 0000000180032060 f   reference_handle.obj
 0001:00031380       ?Deref@ReferenceHandle@ivm@@QEAA?AV?$Local@VValue@v8@@@v8@@V?$MaybeLocal@VObject@v8@@@4@@Z 0000000180032380 f   reference_handle.obj
 0001:000315a0       ?Release@ReferenceHandle@ivm@@QEAA?AV?$Local@VValue@v8@@@v8@@XZ 00000001800325a0 f   reference_handle.obj
 0001:000316d0       ??0CopyRunner@ivm@@QEAA@AEBVReferenceHandle@1@V?$shared_ptr@V?$RemoteHandle@VContext@v8@@@ivm@@@std@@V?$shared_ptr@V?$RemoteHandle@VValue@v8@@@ivm@@@4@@Z 00000001800326d0 f i reference_handle.obj
 0001:000317c0       ?Phase2@CopyRunner@ivm@@UEAAXXZ 00000001800327c0 f i reference_handle.obj
 0001:000318d0       ??0GetRunner@ivm@@QEAA@AEBVReferenceHandle@1@AEAV?$Local@VValue@v8@@@v8@@V?$shared_ptr@V?$RemoteHandle@VContext@v8@@@ivm@@@std@@V?$shared_ptr@V?$RemoteHandle@VValue@v8@@@ivm@@@6@@Z 00000001800328d0 f i reference_handle.obj
 0001:00031b40       ?Phase2@GetRunner@ivm@@UEAAXXZ 0000000180032b40 f i reference_handle.obj
 0001:00031d40       ?Phase3@GetRunner@ivm@@UEAA?AV?$Local@VValue@v8@@@v8@@XZ 0000000180032d40 f i reference_handle.obj
 0001:00031d80       ??_GGetRunner@ivm@@UEAAPEAXI@Z 0000000180032d80 f i reference_handle.obj
 0001:00031d80       ??_EGetRunner@ivm@@UEAAPEAXI@Z 0000000180032d80 f i * CIL library *:* CIL module *
 0001:00031dc0       ??1GetRunner@ivm@@UEAA@XZ  0000000180032dc0 f i reference_handle.obj
 0001:00031e80       ??0SetRunner@ivm@@QEAA@AEAVReferenceHandle@1@AEAV?$Local@VValue@v8@@@v8@@1V?$shared_ptr@V?$RemoteHandle@VContext@v8@@@ivm@@@std@@V?$shared_ptr@V?$RemoteHandle@VValue@v8@@@ivm@@@6@@Z 0000000180032e80 f i reference_handle.obj
 0001:00032150       ?Phase2@SetRunner@ivm@@UEAAXXZ 0000000180033150 f i reference_handle.obj
 0001:000322b0       ?Phase3@SetRunner@ivm@@UEAA?AV?$Local@VValue@v8@@@v8@@XZ 00000001800332b0 f i reference_handle.obj
 0001:00032300       ??_GSetRunner@ivm@@UEAAPEAXI@Z 0000000180033300 f i reference_handle.obj
 0001:00032300       ??_ESetRunner@ivm@@UEAAPEAXI@Z 0000000180033300 f i * CIL library *:* CIL module *
 0001:00032340       ??1SetRunner@ivm@@UEAA@XZ  0000000180033340 f i reference_handle.obj
 0001:00032400       ??0ApplyRunner@ivm@@QEAA@AEAVReferenceHandle@1@AEAV?$MaybeLocal@VValue@v8@@@v8@@AEAV?$MaybeLocal@VArray@v8@@@4@AEAV?$MaybeLocal@VObject@v8@@@4@V?$shared_ptr@V?$RemoteHandle@VContext@v8@@@ivm@@@std@@V?$shared_ptr@V?$RemoteHandle@VValue@v8@@@ivm@@@8@@Z 0000000180033400 f i reference_handle.obj
 0001:00032b00       ?AsyncCallback@ApplyRunner@ivm@@SAXAEBV?$FunctionCallbackInfo@VValue@v8@@@v8@@@Z 0000000180033b00 f i reference_handle.obj
 0001:00032e00       ?CompileAsyncWrapper@ApplyRunner@ivm@@SA?AV?$Local@VFunction@v8@@@v8@@XZ 0000000180033e00 f i reference_handle.obj
 0001:00033070       ?TransferArguments@ApplyRunner@ivm@@QEAA?AV?$vector@V?$Local@VValue@v8@@@v8@@V?$allocator@V?$Local@VValue@v8@@@v8@@@std@@@std@@XZ 0000000180034070 f i reference_handle.obj
 0001:000331d0       ?Phase2@ApplyRunner@ivm@@UEAAXXZ 00000001800341d0 f i reference_handle.obj
 0001:00033470       ?Phase2Async@ApplyRunner@ivm@@UEAA_NAEAVAsyncWait@Scheduler@IsolateEnvironment@2@@Z 0000000180034470 f i reference_handle.obj
 0001:00033950       ?Phase3@ApplyRunner@ivm@@UEAA?AV?$Local@VValue@v8@@@v8@@XZ 0000000180034950 f i reference_handle.obj
 0001:00033b00       ??0DereferenceHandleTransferable@DereferenceHandle@ivm@@QEAA@V?$shared_ptr@VIsolateHolder@ivm@@@std@@V?$shared_ptr@V?$RemoteHandle@VValue@v8@@@ivm@@@4@@Z 0000000180034b00 f   reference_handle.obj
 0001:00033be0       ?TransferIn@DereferenceHandleTransferable@DereferenceHandle@ivm@@UEAA?AV?$Local@VValue@v8@@@v8@@XZ 0000000180034be0 f   reference_handle.obj
 0001:00033dc0       ??0DereferenceHandle@ivm@@QEAA@V?$shared_ptr@VIsolateHolder@ivm@@@std@@V?$shared_ptr@V?$RemoteHandle@VValue@v8@@@ivm@@@3@@Z 0000000180034dc0 f   reference_handle.obj
 0001:00033ea0       ?TransferOut@DereferenceHandle@ivm@@UEAA?AV?$unique_ptr@VTransferable@ivm@@U?$default_delete@VTransferable@ivm@@@std@@@std@@XZ 0000000180034ea0 f   reference_handle.obj
 0001:00034010       ??_GApplyRunner@ivm@@UEAAPEAXI@Z 0000000180035010 f i reference_handle.obj
 0001:00034010       ??_EApplyRunner@ivm@@UEAAPEAXI@Z 0000000180035010 f i * CIL library *:* CIL module *
 0001:00034050       ??1ApplyRunner@ivm@@UEAA@XZ 0000000180035050 f i reference_handle.obj
 0001:00034160       ??_GScriptHandle@ivm@@UEAAPEAXI@Z 0000000180035160 f i script_handle.obj
 0001:00034160       ??_EScriptHandle@ivm@@UEAAPEAXI@Z 0000000180035160 f i * CIL library *:* CIL module *
 0001:00034160       ??_EDereferenceHandle@ivm@@UEAAPEAXI@Z 0000000180035160 f i * CIL library *:* CIL module *
 0001:00034160       ??_GDereferenceHandle@ivm@@UEAAPEAXI@Z 0000000180035160 f i reference_handle.obj
 0001:000341a0       ??1DereferenceHandle@ivm@@UEAA@XZ 00000001800351a0 f i reference_handle.obj
 0001:000341a0       ??1ScriptHandle@ivm@@UEAA@XZ 00000001800351a0 f i script_handle.obj
 0001:00034270       ??1?$unique_ptr@V?$shared_ptr@_N@std@@U?$default_delete@V?$shared_ptr@_N@std@@@2@@std@@QEAA@XZ 0000000180035270 f i reference_handle.obj
 0001:000342e0       ?push_back@?$vector@V?$unique_ptr@VTransferable@ivm@@U?$default_delete@VTransferable@ivm@@@std@@@std@@V?$allocator@V?$unique_ptr@VTransferable@ivm@@U?$default_delete@VTransferable@ivm@@@std@@@std@@@2@@std@@QEAAX$$QEAV?$unique_ptr@VTransferable@ivm@@U?$default_delete@VTransferable@ivm@@@std@@@2@@Z 00000001800352e0 f i reference_handle.obj
 0001:00034380       ??$NewInstance@VReferenceHandle@ivm@@AEAV?$shared_ptr@VIsolateHolder@ivm@@@std@@AEAV?$shared_ptr@V?$RemoteHandle@VValue@v8@@@ivm@@@4@AEAV?$shared_ptr@V?$RemoteHandle@VContext@v8@@@ivm@@@4@AEAW4TypeOf@12@@ClassHandle@ivm@@SA?AV?$Local@VObject@v8@@@v8@@AEAV?$shared_ptr@VIsolateHolder@ivm@@@std@@AEAV?$shared_ptr@V?$RemoteHandle@VValue@v8@@@ivm@@@5@AEAV?$shared_ptr@V?$RemoteHandle@VContext@v8@@@ivm@@@5@AEAW4TypeOf@ReferenceHandle@1@@Z 0000000180035380 f i reference_handle.obj
 0001:00034490       ??$make_unique@VReferenceHandleTransferable@ReferenceHandle@ivm@@AEAV?$shared_ptr@VIsolateHolder@ivm@@@std@@AEAV?$shared_ptr@V?$RemoteHandle@VValue@v8@@@ivm@@@5@AEAV?$shared_ptr@V?$RemoteHandle@VContext@v8@@@ivm@@@5@AEAW4TypeOf@23@@std@@YA?AV?$unique_ptr@VReferenceHandleTransferable@ReferenceHandle@ivm@@U?$default_delete@VReferenceHandleTransferable@ReferenceHandle@ivm@@@std@@@0@AEAV?$shared_ptr@VIsolateHolder@ivm@@@0@AEAV?$shared_ptr@V?$RemoteHandle@VValue@v8@@@ivm@@@0@AEAV?$shared_ptr@V?$RemoteHandle@VContext@v8@@@ivm@@@0@AEAW4TypeOf@ReferenceHandle@ivm@@@Z 0000000180035490 f i reference_handle.obj
 0001:00034580       ??$make_shared@V?$RemoteHandle@VContext@v8@@@ivm@@V?$Local@VContext@v8@@@v8@@@std@@YA?AV?$shared_ptr@V?$RemoteHandle@VContext@v8@@@ivm@@@0@$$QEAV?$Local@VContext@v8@@@v8@@@Z 0000000180035580 f i reference_handle.obj
 0001:00034630       ??$make_unique@VReferenceHandle@ivm@@V?$shared_ptr@VIsolateHolder@ivm@@@std@@V?$shared_ptr@V?$RemoteHandle@VValue@v8@@@ivm@@@4@V?$shared_ptr@V?$RemoteHandle@VContext@v8@@@ivm@@@4@W4TypeOf@12@@std@@YA?AV?$unique_ptr@VReferenceHandle@ivm@@U?$default_delete@VReferenceHandle@ivm@@@std@@@0@$$QEAV?$shared_ptr@VIsolateHolder@ivm@@@0@$$QEAV?$shared_ptr@V?$RemoteHandle@VValue@v8@@@ivm@@@0@$$QEAV?$shared_ptr@V?$RemoteHandle@VContext@v8@@@ivm@@@0@$$QEAW4TypeOf@ReferenceHandle@ivm@@@Z 0000000180035630 f i reference_handle.obj
 0001:000346f0       ??$NewInstance@VDereferenceHandle@ivm@@AEAV?$shared_ptr@VIsolateHolder@ivm@@@std@@AEAV?$shared_ptr@V?$RemoteHandle@VValue@v8@@@ivm@@@4@@ClassHandle@ivm@@SA?AV?$Local@VObject@v8@@@v8@@AEAV?$shared_ptr@VIsolateHolder@ivm@@@std@@AEAV?$shared_ptr@V?$RemoteHandle@VValue@v8@@@ivm@@@5@@Z 00000001800356f0 f i reference_handle.obj
 0001:000347f0       ??$make_unique@VReferenceHandleTransferable@ReferenceHandle@ivm@@V?$shared_ptr@VIsolateHolder@ivm@@@std@@V?$shared_ptr@V?$RemoteHandle@VValue@v8@@@ivm@@@5@AEAV?$shared_ptr@V?$RemoteHandle@VContext@v8@@@ivm@@@5@W4TypeOf@23@@std@@YA?AV?$unique_ptr@VReferenceHandleTransferable@ReferenceHandle@ivm@@U?$default_delete@VReferenceHandleTransferable@ReferenceHandle@ivm@@@std@@@0@$$QEAV?$shared_ptr@VIsolateHolder@ivm@@@0@$$QEAV?$shared_ptr@V?$RemoteHandle@VValue@v8@@@ivm@@@0@AEAV?$shared_ptr@V?$RemoteHandle@VContext@v8@@@ivm@@@0@$$QEAW4TypeOf@ReferenceHandle@ivm@@@Z 00000001800357f0 f i reference_handle.obj
 0001:000348d0       ??$RunCatchExternal@V<lambda_891d6233ad01558ab712fe677da74c34>@@V<lambda_37218fa50b4cab63878fa92bf1cebe97>@@@FunctorRunners@ivm@@YAXV?$Local@VContext@v8@@@v8@@V<lambda_891d6233ad01558ab712fe677da74c34>@@V<lambda_37218fa50b4cab63878fa92bf1cebe97>@@@Z 00000001800358d0 f i reference_handle.obj
 0001:00034950       ??$RunWithTimeout@V<lambda_46f214cd6e57de64b33cc55f56167042>@@@ivm@@YA?AV?$Local@VValue@v8@@@v8@@I$$QEAV<lambda_46f214cd6e57de64b33cc55f56167042>@@@Z 0000000180035950 f i reference_handle.obj
 0001:00035100       ??$RunWithTimeout@V<lambda_82a91b41e4d385d52a9990a6ff8bb51b>@@@ivm@@YA?AV?$Local@VValue@v8@@@v8@@I$$QEAV<lambda_82a91b41e4d385d52a9990a6ff8bb51b>@@@Z 0000000180036100 f i reference_handle.obj
 0001:00035520       ??$make_shared@_N_N@std@@YA?AV?$shared_ptr@_N@0@$$QEA_N@Z 0000000180036520 f i reference_handle.obj
 0001:000355b0       ??$make_unique@VDereferenceHandleTransferable@DereferenceHandle@ivm@@V?$shared_ptr@VIsolateHolder@ivm@@@std@@V?$shared_ptr@V?$RemoteHandle@VValue@v8@@@ivm@@@5@@std@@YA?AV?$unique_ptr@VDereferenceHandleTransferable@DereferenceHandle@ivm@@U?$default_delete@VDereferenceHandleTransferable@DereferenceHandle@ivm@@@std@@@0@$$QEAV?$shared_ptr@VIsolateHolder@ivm@@@0@$$QEAV?$shared_ptr@V?$RemoteHandle@VValue@v8@@@ivm@@@0@@Z 00000001800365b0 f i reference_handle.obj
 0001:00035640       ??1?$unique_ptr@Vtimer_t@ivm@@U?$default_delete@Vtimer_t@ivm@@@std@@@std@@QEAA@XZ 0000000180036640 f i reference_handle.obj
 0001:00035670       ?_Destroy@?$_Ref_count_obj@V?$RemoteHandle@VContext@v8@@@ivm@@@std@@EEAAXXZ 0000000180036670 f i reference_handle.obj
 0001:00035680       ??$make_unique@VReferenceHandle@ivm@@AEAV?$shared_ptr@VIsolateHolder@ivm@@@std@@AEAV?$shared_ptr@V?$RemoteHandle@VValue@v8@@@ivm@@@4@AEAV?$shared_ptr@V?$RemoteHandle@VContext@v8@@@ivm@@@4@AEAW4TypeOf@12@@std@@YA?AV?$unique_ptr@VReferenceHandle@ivm@@U?$default_delete@VReferenceHandle@ivm@@@std@@@0@AEAV?$shared_ptr@VIsolateHolder@ivm@@@0@AEAV?$shared_ptr@V?$RemoteHandle@VValue@v8@@@ivm@@@0@AEAV?$shared_ptr@V?$RemoteHandle@VContext@v8@@@ivm@@@0@AEAW4TypeOf@ReferenceHandle@ivm@@@Z 0000000180036680 f i reference_handle.obj
 0001:00035770       ??$ParameterizeCtorEntry@P6A?AV?$unique_ptr@VReferenceHandle@ivm@@U?$default_delete@VReferenceHandle@ivm@@@std@@@std@@V?$Local@VValue@v8@@@v8@@@Z$1?New@ReferenceHandle@ivm@@SA?AV12@0@Z@ClassHandle@ivm@@CAXAEBV?$FunctionCallbackInfo@VValue@v8@@@v8@@@Z 0000000180036770 f i reference_handle.obj
 0001:00035780       ??$Invoke@$1?Deref@ReferenceHandle@ivm@@QEAA?AV?$Local@VValue@v8@@@v8@@V?$MaybeLocal@VObject@v8@@@5@@Z@?$MethodCast@P8ReferenceHandle@ivm@@EAA?AV?$Local@VValue@v8@@@v8@@V?$MaybeLocal@VObject@v8@@@4@@Z@ClassHandle@ivm@@SA?AV?$Local@VValue@v8@@@v8@@PEAVReferenceHandle@2@V?$MaybeLocal@VObject@v8@@@4@@Z 0000000180036780 f i reference_handle.obj
 0001:000357b0       ??$ParameterizeEntry@$0?0P6A?AV?$Local@VValue@v8@@@v8@@PEAVReferenceHandle@ivm@@V?$MaybeLocal@VObject@v8@@@2@@Z$1??$Invoke@$1?Deref@ReferenceHandle@ivm@@QEAA?AV?$Local@VValue@v8@@@v8@@V?$MaybeLocal@VObject@v8@@@5@@Z@?$MethodCast@P8ReferenceHandle@ivm@@EAA?AV?$Local@VValue@v8@@@v8@@V?$MaybeLocal@VObject@v8@@@4@@Z@ClassHandle@4@SA?AV12@01@Z@ClassHandle@ivm@@CAXAEBV?$FunctionCallbackInfo@VValue@v8@@@v8@@@Z 00000001800367b0 f i reference_handle.obj
 0001:000357c0       ??$Invoke@$1?DerefInto@ReferenceHandle@ivm@@QEAA?AV?$Local@VValue@v8@@@v8@@V?$MaybeLocal@VObject@v8@@@5@@Z@?$MethodCast@P8ReferenceHandle@ivm@@EAA?AV?$Local@VValue@v8@@@v8@@V?$MaybeLocal@VObject@v8@@@4@@Z@ClassHandle@ivm@@SA?AV?$Local@VValue@v8@@@v8@@PEAVReferenceHandle@2@V?$MaybeLocal@VObject@v8@@@4@@Z 00000001800367c0 f i reference_handle.obj
 0001:00035850       ??$ParameterizeEntry@$0?0P6A?AV?$Local@VValue@v8@@@v8@@PEAVReferenceHandle@ivm@@V?$MaybeLocal@VObject@v8@@@2@@Z$1??$Invoke@$1?DerefInto@ReferenceHandle@ivm@@QEAA?AV?$Local@VValue@v8@@@v8@@V?$MaybeLocal@VObject@v8@@@5@@Z@?$MethodCast@P8ReferenceHandle@ivm@@EAA?AV?$Local@VValue@v8@@@v8@@V?$MaybeLocal@VObject@v8@@@4@@Z@ClassHandle@4@SA?AV12@01@Z@ClassHandle@ivm@@CAXAEBV?$FunctionCallbackInfo@VValue@v8@@@v8@@@Z 0000000180036850 f i reference_handle.obj
 0001:00035860       ??$Invoke@$1?Dispose@ReferenceHandle@ivm@@QEAA?AV?$Local@VValue@v8@@@v8@@XZ@?$MethodCast@P8ReferenceHandle@ivm@@EAA?AV?$Local@VValue@v8@@@v8@@XZ@ClassHandle@ivm@@SA?AV?$Local@VValue@v8@@@v8@@PEAVReferenceHandle@2@@Z 0000000180036860 f i reference_handle.obj
 0001:00035890       ??$ParameterizeEntry@$0?0P6A?AV?$Local@VValue@v8@@@v8@@PEAVReferenceHandle@ivm@@@Z$1??$Invoke@$1?Dispose@ReferenceHandle@ivm@@QEAA?AV?$Local@VValue@v8@@@v8@@XZ@?$MethodCast@P8ReferenceHandle@ivm@@EAA?AV?$Local@VValue@v8@@@v8@@XZ@ClassHandle@4@SA?AV12@0@Z@ClassHandle@ivm@@CAXAEBV?$FunctionCallbackInfo@VValue@v8@@@v8@@@Z 0000000180036890 f i reference_handle.obj
 0001:000358a0       ??$Invoke@$1?Release@ReferenceHandle@ivm@@QEAA?AV?$Local@VValue@v8@@@v8@@XZ@?$MethodCast@P8ReferenceHandle@ivm@@EAA?AV?$Local@VValue@v8@@@v8@@XZ@ClassHandle@ivm@@SA?AV?$Local@VValue@v8@@@v8@@PEAVReferenceHandle@2@@Z 00000001800368a0 f i reference_handle.obj
 0001:000358d0       ??$ParameterizeEntry@$0?0P6A?AV?$Local@VValue@v8@@@v8@@PEAVReferenceHandle@ivm@@@Z$1??$Invoke@$1?Release@ReferenceHandle@ivm@@QEAA?AV?$Local@VValue@v8@@@v8@@XZ@?$MethodCast@P8ReferenceHandle@ivm@@EAA?AV?$Local@VValue@v8@@@v8@@XZ@ClassHandle@4@SA?AV12@0@Z@ClassHandle@ivm@@CAXAEBV?$FunctionCallbackInfo@VValue@v8@@@v8@@@Z 00000001800368d0 f i reference_handle.obj
 0001:000358e0       ??$Run@$00UCopyRunner@ivm@@AEAVReferenceHandle@2@AEAV?$shared_ptr@V?$RemoteHandle@VContext@v8@@@ivm@@@std@@AEAV?$shared_ptr@V?$RemoteHandle@VValue@v8@@@ivm@@@5@@ThreePhaseTask@ivm@@SA?AV?$Local@VValue@v8@@@v8@@AEAVIsolateHolder@1@AEAVReferenceHandle@1@AEAV?$shared_ptr@V?$RemoteHandle@VContext@v8@@@ivm@@@std@@AEAV?$shared_ptr@V?$RemoteHandle@VValue@v8@@@ivm@@@7@@Z 00000001800368e0 f i reference_handle.obj
 0001:00035c50       ??$Invoke@$1??$Copy@$00@ReferenceHandle@ivm@@QEAA?AV?$Local@VValue@v8@@@v8@@XZ@?$MethodCast@P8ReferenceHandle@ivm@@EAA?AV?$Local@VValue@v8@@@v8@@XZ@ClassHandle@ivm@@SA?AV?$Local@VValue@v8@@@v8@@PEAVReferenceHandle@2@@Z 0000000180036c50 f i reference_handle.obj
 0001:00035c90       ??$ParameterizeEntry@$0?0P6A?AV?$Local@VValue@v8@@@v8@@PEAVReferenceHandle@ivm@@@Z$1??$Invoke@$1??$Copy@$00@ReferenceHandle@ivm@@QEAA?AV?$Local@VValue@v8@@@v8@@XZ@?$MethodCast@P8ReferenceHandle@ivm@@EAA?AV?$Local@VValue@v8@@@v8@@XZ@ClassHandle@4@SA?AV12@0@Z@ClassHandle@ivm@@CAXAEBV?$FunctionCallbackInfo@VValue@v8@@@v8@@@Z 0000000180036c90 f i reference_handle.obj
 0001:00035ca0       ??$Run@$0A@UCopyRunner@ivm@@AEAVReferenceHandle@2@AEAV?$shared_ptr@V?$RemoteHandle@VContext@v8@@@ivm@@@std@@AEAV?$shared_ptr@V?$RemoteHandle@VValue@v8@@@ivm@@@5@@ThreePhaseTask@ivm@@SA?AV?$Local@VValue@v8@@@v8@@AEAVIsolateHolder@1@AEAVReferenceHandle@1@AEAV?$shared_ptr@V?$RemoteHandle@VContext@v8@@@ivm@@@std@@AEAV?$shared_ptr@V?$RemoteHandle@VValue@v8@@@ivm@@@7@@Z 0000000180036ca0 f i reference_handle.obj
 0001:00035d70       ??$Invoke@$1??$Copy@$0A@@ReferenceHandle@ivm@@QEAA?AV?$Local@VValue@v8@@@v8@@XZ@?$MethodCast@P8ReferenceHandle@ivm@@EAA?AV?$Local@VValue@v8@@@v8@@XZ@ClassHandle@ivm@@SA?AV?$Local@VValue@v8@@@v8@@PEAVReferenceHandle@2@@Z 0000000180036d70 f i reference_handle.obj
 0001:00035db0       ??$ParameterizeEntry@$0?0P6A?AV?$Local@VValue@v8@@@v8@@PEAVReferenceHandle@ivm@@@Z$1??$Invoke@$1??$Copy@$0A@@ReferenceHandle@ivm@@QEAA?AV?$Local@VValue@v8@@@v8@@XZ@?$MethodCast@P8ReferenceHandle@ivm@@EAA?AV?$Local@VValue@v8@@@v8@@XZ@ClassHandle@4@SA?AV12@0@Z@ClassHandle@ivm@@CAXAEBV?$FunctionCallbackInfo@VValue@v8@@@v8@@@Z 0000000180036db0 f i reference_handle.obj
 0001:00035dc0       ??$Run@$00UGetRunner@ivm@@AEAVReferenceHandle@2@AEAV?$Local@VValue@v8@@@v8@@AEAV?$shared_ptr@V?$RemoteHandle@VContext@v8@@@ivm@@@std@@AEAV?$shared_ptr@V?$RemoteHandle@VValue@v8@@@ivm@@@7@@ThreePhaseTask@ivm@@SA?AV?$Local@VValue@v8@@@v8@@AEAVIsolateHolder@1@AEAVReferenceHandle@1@AEAV23@AEAV?$shared_ptr@V?$RemoteHandle@VContext@v8@@@ivm@@@std@@AEAV?$shared_ptr@V?$RemoteHandle@VValue@v8@@@ivm@@@7@@Z 0000000180036dc0 f i reference_handle.obj
 0001:00036150       ??$Invoke@$1??$Get@$00@ReferenceHandle@ivm@@QEAA?AV?$Local@VValue@v8@@@v8@@V34@@Z@?$MethodCast@P8ReferenceHandle@ivm@@EAA?AV?$Local@VValue@v8@@@v8@@V34@@Z@ClassHandle@ivm@@SA?AV?$Local@VValue@v8@@@v8@@PEAVReferenceHandle@2@V34@@Z 0000000180037150 f i reference_handle.obj
 0001:000361a0       ??$ParameterizeEntry@$0?0P6A?AV?$Local@VValue@v8@@@v8@@PEAVReferenceHandle@ivm@@V12@@Z$1??$Invoke@$1??$Get@$00@ReferenceHandle@ivm@@QEAA?AV?$Local@VValue@v8@@@v8@@V34@@Z@?$MethodCast@P8ReferenceHandle@ivm@@EAA?AV?$Local@VValue@v8@@@v8@@V34@@Z@ClassHandle@4@SA?AV12@01@Z@ClassHandle@ivm@@CAXAEBV?$FunctionCallbackInfo@VValue@v8@@@v8@@@Z 00000001800371a0 f i reference_handle.obj
 0001:000361b0       ??$Run@$0A@UGetRunner@ivm@@AEAVReferenceHandle@2@AEAV?$Local@VValue@v8@@@v8@@AEAV?$shared_ptr@V?$RemoteHandle@VContext@v8@@@ivm@@@std@@AEAV?$shared_ptr@V?$RemoteHandle@VValue@v8@@@ivm@@@7@@ThreePhaseTask@ivm@@SA?AV?$Local@VValue@v8@@@v8@@AEAVIsolateHolder@1@AEAVReferenceHandle@1@AEAV23@AEAV?$shared_ptr@V?$RemoteHandle@VContext@v8@@@ivm@@@std@@AEAV?$shared_ptr@V?$RemoteHandle@VValue@v8@@@ivm@@@7@@Z 00000001800371b0 f i reference_handle.obj
 0001:00036290       ??$Invoke@$1??$Get@$0A@@ReferenceHandle@ivm@@QEAA?AV?$Local@VValue@v8@@@v8@@V34@@Z@?$MethodCast@P8ReferenceHandle@ivm@@EAA?AV?$Local@VValue@v8@@@v8@@V34@@Z@ClassHandle@ivm@@SA?AV?$Local@VValue@v8@@@v8@@PEAVReferenceHandle@2@V34@@Z 0000000180037290 f i reference_handle.obj
 0001:000362e0       ??$ParameterizeEntry@$0?0P6A?AV?$Local@VValue@v8@@@v8@@PEAVReferenceHandle@ivm@@V12@@Z$1??$Invoke@$1??$Get@$0A@@ReferenceHandle@ivm@@QEAA?AV?$Local@VValue@v8@@@v8@@V34@@Z@?$MethodCast@P8ReferenceHandle@ivm@@EAA?AV?$Local@VValue@v8@@@v8@@V34@@Z@ClassHandle@4@SA?AV12@01@Z@ClassHandle@ivm@@CAXAEBV?$FunctionCallbackInfo@VValue@v8@@@v8@@@Z 00000001800372e0 f i reference_handle.obj
 0001:000362f0       ??$Run@$00USetRunner@ivm@@AEAVReferenceHandle@2@AEAV?$Local@VValue@v8@@@v8@@AEAV45@AEAV?$shared_ptr@V?$RemoteHandle@VContext@v8@@@ivm@@@std@@AEAV?$shared_ptr@V?$RemoteHandle@VValue@v8@@@ivm@@@7@@ThreePhaseTask@ivm@@SA?AV?$Local@VValue@v8@@@v8@@AEAVIsolateHolder@1@AEAVReferenceHandle@1@AEAV23@2AEAV?$shared_ptr@V?$RemoteHandle@VContext@v8@@@ivm@@@std@@AEAV?$shared_ptr@V?$RemoteHandle@VValue@v8@@@ivm@@@7@@Z 00000001800372f0 f i reference_handle.obj
 0001:000366a0       ??$Invoke@$1??$Set@$00@ReferenceHandle@ivm@@QEAA?AV?$Local@VValue@v8@@@v8@@V34@0@Z@?$MethodCast@P8ReferenceHandle@ivm@@EAA?AV?$Local@VValue@v8@@@v8@@V34@0@Z@ClassHandle@ivm@@SA?AV?$Local@VValue@v8@@@v8@@PEAVReferenceHandle@2@V34@1@Z 00000001800376a0 f i reference_handle.obj
 0001:000366f0       ??$ParameterizeEntry@$0?0P6A?AV?$Local@VValue@v8@@@v8@@PEAVReferenceHandle@ivm@@V12@1@Z$1??$Invoke@$1??$Set@$00@ReferenceHandle@ivm@@QEAA?AV?$Local@VValue@v8@@@v8@@V34@0@Z@?$MethodCast@P8ReferenceHandle@ivm@@EAA?AV?$Local@VValue@v8@@@v8@@V34@0@Z@ClassHandle@4@SA?AV12@011@Z@ClassHandle@ivm@@CAXAEBV?$FunctionCallbackInfo@VValue@v8@@@v8@@@Z 00000001800376f0 f i reference_handle.obj
 0001:00036700       ??$Run@$01USetRunner@ivm@@AEAVReferenceHandle@2@AEAV?$Local@VValue@v8@@@v8@@AEAV45@AEAV?$shared_ptr@V?$RemoteHandle@VContext@v8@@@ivm@@@std@@AEAV?$shared_ptr@V?$RemoteHandle@VValue@v8@@@ivm@@@7@@ThreePhaseTask@ivm@@SA?AV?$Local@VValue@v8@@@v8@@AEAVIsolateHolder@1@AEAVReferenceHandle@1@AEAV23@2AEAV?$shared_ptr@V?$RemoteHandle@VContext@v8@@@ivm@@@std@@AEAV?$shared_ptr@V?$RemoteHandle@VValue@v8@@@ivm@@@7@@Z 0000000180037700 f i reference_handle.obj
 0001:000368d0       ??$Invoke@$1??$Set@$01@ReferenceHandle@ivm@@QEAA?AV?$Local@VValue@v8@@@v8@@V34@0@Z@?$MethodCast@P8ReferenceHandle@ivm@@EAA?AV?$Local@VValue@v8@@@v8@@V34@0@Z@ClassHandle@ivm@@SA?AV?$Local@VValue@v8@@@v8@@PEAVReferenceHandle@2@V34@1@Z 00000001800378d0 f i reference_handle.obj
 0001:00036920       ??$ParameterizeEntry@$0?0P6A?AV?$Local@VValue@v8@@@v8@@PEAVReferenceHandle@ivm@@V12@1@Z$1??$Invoke@$1??$Set@$01@ReferenceHandle@ivm@@QEAA?AV?$Local@VValue@v8@@@v8@@V34@0@Z@?$MethodCast@P8ReferenceHandle@ivm@@EAA?AV?$Local@VValue@v8@@@v8@@V34@0@Z@ClassHandle@4@SA?AV12@011@Z@ClassHandle@ivm@@CAXAEBV?$FunctionCallbackInfo@VValue@v8@@@v8@@@Z 0000000180037920 f i reference_handle.obj
 0001:00036930       ??$Run@$0A@USetRunner@ivm@@AEAVReferenceHandle@2@AEAV?$Local@VValue@v8@@@v8@@AEAV45@AEAV?$shared_ptr@V?$RemoteHandle@VContext@v8@@@ivm@@@std@@AEAV?$shared_ptr@V?$RemoteHandle@VValue@v8@@@ivm@@@7@@ThreePhaseTask@ivm@@SA?AV?$Local@VValue@v8@@@v8@@AEAVIsolateHolder@1@AEAVReferenceHandle@1@AEAV23@2AEAV?$shared_ptr@V?$RemoteHandle@VContext@v8@@@ivm@@@std@@AEAV?$shared_ptr@V?$RemoteHandle@VValue@v8@@@ivm@@@7@@Z 0000000180037930 f i reference_handle.obj
 0001:00036a20       ??$Invoke@$1??$Set@$0A@@ReferenceHandle@ivm@@QEAA?AV?$Local@VValue@v8@@@v8@@V34@0@Z@?$MethodCast@P8ReferenceHandle@ivm@@EAA?AV?$Local@VValue@v8@@@v8@@V34@0@Z@ClassHandle@ivm@@SA?AV?$Local@VValue@v8@@@v8@@PEAVReferenceHandle@2@V34@1@Z 0000000180037a20 f i reference_handle.obj
 0001:00036a70       ??$ParameterizeEntry@$0?0P6A?AV?$Local@VValue@v8@@@v8@@PEAVReferenceHandle@ivm@@V12@1@Z$1??$Invoke@$1??$Set@$0A@@ReferenceHandle@ivm@@QEAA?AV?$Local@VValue@v8@@@v8@@V34@0@Z@?$MethodCast@P8ReferenceHandle@ivm@@EAA?AV?$Local@VValue@v8@@@v8@@V34@0@Z@ClassHandle@4@SA?AV12@011@Z@ClassHandle@ivm@@CAXAEBV?$FunctionCallbackInfo@VValue@v8@@@v8@@@Z 0000000180037a70 f i reference_handle.obj
 0001:00036a80       ??$Run@$00UApplyRunner@ivm@@AEAVReferenceHandle@2@AEAV?$MaybeLocal@VValue@v8@@@v8@@AEAV?$MaybeLocal@VArray@v8@@@5@AEAV?$MaybeLocal@VObject@v8@@@5@AEAV?$shared_ptr@V?$RemoteHandle@VContext@v8@@@ivm@@@std@@AEAV?$shared_ptr@V?$RemoteHandle@VValue@v8@@@ivm@@@9@@ThreePhaseTask@ivm@@SA?AV?$Local@VValue@v8@@@v8@@AEAVIsolateHolder@1@AEAVReferenceHandle@1@AEAV?$MaybeLocal@VValue@v8@@@3@AEAV?$MaybeLocal@VArray@v8@@@3@AEAV?$MaybeLocal@VObject@v8@@@3@AEAV?$shared_ptr@V?$RemoteHandle@VContext@v8@@@ivm@@@std@@AEAV?$shared_ptr@V?$RemoteHandle@VValue@v8@@@ivm@@@std@@@Z 0000000180037a80 f i reference_handle.obj
 0001:00036e40       ??$Invoke@$1??$Apply@$00@ReferenceHandle@ivm@@QEAA?AV?$Local@VValue@v8@@@v8@@V?$MaybeLocal@VValue@v8@@@4@V?$MaybeLocal@VArray@v8@@@4@V?$MaybeLocal@VObject@v8@@@4@@Z@?$MethodCast@P8ReferenceHandle@ivm@@EAA?AV?$Local@VValue@v8@@@v8@@V?$MaybeLocal@VValue@v8@@@4@V?$MaybeLocal@VArray@v8@@@4@V?$MaybeLocal@VObject@v8@@@4@@Z@ClassHandle@ivm@@SA?AV?$Local@VValue@v8@@@v8@@PEAVReferenceHandle@2@V?$MaybeLocal@VValue@v8@@@4@V?$MaybeLocal@VArray@v8@@@4@V?$MaybeLocal@VObject@v8@@@4@@Z 0000000180037e40 f i reference_handle.obj
 0001:00036ea0       ??$ParameterizeEntry@$0?0P6A?AV?$Local@VValue@v8@@@v8@@PEAVReferenceHandle@ivm@@V?$MaybeLocal@VValue@v8@@@2@V?$MaybeLocal@VArray@v8@@@2@V?$MaybeLocal@VObject@v8@@@2@@Z$1??$Invoke@$1??$Apply@$00@ReferenceHandle@ivm@@QEAA?AV?$Local@VValue@v8@@@v8@@V?$MaybeLocal@VValue@v8@@@4@V?$MaybeLocal@VArray@v8@@@4@V?$MaybeLocal@VObject@v8@@@4@@Z@?$MethodCast@P8ReferenceHandle@ivm@@EAA?AV?$Local@VValue@v8@@@v8@@V?$MaybeLocal@VValue@v8@@@4@V?$MaybeLocal@VArray@v8@@@4@V?$MaybeLocal@VObject@v8@@@4@@Z@ClassHandle@4@SA?AV12@0123@Z@ClassHandle@ivm@@CAXAEBV?$FunctionCallbackInfo@VValue@v8@@@v8@@@Z 0000000180037ea0 f i reference_handle.obj
 0001:00036eb0       ??$Run@$01UApplyRunner@ivm@@AEAVReferenceHandle@2@AEAV?$MaybeLocal@VValue@v8@@@v8@@AEAV?$MaybeLocal@VArray@v8@@@5@AEAV?$MaybeLocal@VObject@v8@@@5@AEAV?$shared_ptr@V?$RemoteHandle@VContext@v8@@@ivm@@@std@@AEAV?$shared_ptr@V?$RemoteHandle@VValue@v8@@@ivm@@@9@@ThreePhaseTask@ivm@@SA?AV?$Local@VValue@v8@@@v8@@AEAVIsolateHolder@1@AEAVReferenceHandle@1@AEAV?$MaybeLocal@VValue@v8@@@3@AEAV?$MaybeLocal@VArray@v8@@@3@AEAV?$MaybeLocal@VObject@v8@@@3@AEAV?$shared_ptr@V?$RemoteHandle@VContext@v8@@@ivm@@@std@@AEAV?$shared_ptr@V?$RemoteHandle@VValue@v8@@@ivm@@@std@@@Z 0000000180037eb0 f i reference_handle.obj
 0001:00037080       ??$Invoke@$1??$Apply@$01@ReferenceHandle@ivm@@QEAA?AV?$Local@VValue@v8@@@v8@@V?$MaybeLocal@VValue@v8@@@4@V?$MaybeLocal@VArray@v8@@@4@V?$MaybeLocal@VObject@v8@@@4@@Z@?$MethodCast@P8ReferenceHandle@ivm@@EAA?AV?$Local@VValue@v8@@@v8@@V?$MaybeLocal@VValue@v8@@@4@V?$MaybeLocal@VArray@v8@@@4@V?$MaybeLocal@VObject@v8@@@4@@Z@ClassHandle@ivm@@SA?AV?$Local@VValue@v8@@@v8@@PEAVReferenceHandle@2@V?$MaybeLocal@VValue@v8@@@4@V?$MaybeLocal@VArray@v8@@@4@V?$MaybeLocal@VObject@v8@@@4@@Z 0000000180038080 f i reference_handle.obj
 0001:000370e0       ??$ParameterizeEntry@$0?0P6A?AV?$Local@VValue@v8@@@v8@@PEAVReferenceHandle@ivm@@V?$MaybeLocal@VValue@v8@@@2@V?$MaybeLocal@VArray@v8@@@2@V?$MaybeLocal@VObject@v8@@@2@@Z$1??$Invoke@$1??$Apply@$01@ReferenceHandle@ivm@@QEAA?AV?$Local@VValue@v8@@@v8@@V?$MaybeLocal@VValue@v8@@@4@V?$MaybeLocal@VArray@v8@@@4@V?$MaybeLocal@VObject@v8@@@4@@Z@?$MethodCast@P8ReferenceHandle@ivm@@EAA?AV?$Local@VValue@v8@@@v8@@V?$MaybeLocal@VValue@v8@@@4@V?$MaybeLocal@VArray@v8@@@4@V?$MaybeLocal@VObject@v8@@@4@@Z@ClassHandle@4@SA?AV12@0123@Z@ClassHandle@ivm@@CAXAEBV?$FunctionCallbackInfo@VValue@v8@@@v8@@@Z 00000001800380e0 f i reference_handle.obj
 0001:000370f0       ??$Run@$0A@UApplyRunner@ivm@@AEAVReferenceHandle@2@AEAV?$MaybeLocal@VValue@v8@@@v8@@AEAV?$MaybeLocal@VArray@v8@@@5@AEAV?$MaybeLocal@VObject@v8@@@5@AEAV?$shared_ptr@V?$RemoteHandle@VContext@v8@@@ivm@@@std@@AEAV?$shared_ptr@V?$RemoteHandle@VValue@v8@@@ivm@@@9@@ThreePhaseTask@ivm@@SA?AV?$Local@VValue@v8@@@v8@@AEAVIsolateHolder@1@AEAVReferenceHandle@1@AEAV?$MaybeLocal@VValue@v8@@@3@AEAV?$MaybeLocal@VArray@v8@@@3@AEAV?$MaybeLocal@VObject@v8@@@3@AEAV?$shared_ptr@V?$RemoteHandle@VContext@v8@@@ivm@@@std@@AEAV?$shared_ptr@V?$RemoteHandle@VValue@v8@@@ivm@@@std@@@Z 00000001800380f0 f i reference_handle.obj
 0001:000371f0       ??$Invoke@$1??$Apply@$0A@@ReferenceHandle@ivm@@QEAA?AV?$Local@VValue@v8@@@v8@@V?$MaybeLocal@VValue@v8@@@4@V?$MaybeLocal@VArray@v8@@@4@V?$MaybeLocal@VObject@v8@@@4@@Z@?$MethodCast@P8ReferenceHandle@ivm@@EAA?AV?$Local@VValue@v8@@@v8@@V?$MaybeLocal@VValue@v8@@@4@V?$MaybeLocal@VArray@v8@@@4@V?$MaybeLocal@VObject@v8@@@4@@Z@ClassHandle@ivm@@SA?AV?$Local@VValue@v8@@@v8@@PEAVReferenceHandle@2@V?$MaybeLocal@VValue@v8@@@4@V?$MaybeLocal@VArray@v8@@@4@V?$MaybeLocal@VObject@v8@@@4@@Z 00000001800381f0 f i reference_handle.obj
 0001:00037250       ??$ParameterizeEntry@$0?0P6A?AV?$Local@VValue@v8@@@v8@@PEAVReferenceHandle@ivm@@V?$MaybeLocal@VValue@v8@@@2@V?$MaybeLocal@VArray@v8@@@2@V?$MaybeLocal@VObject@v8@@@2@@Z$1??$Invoke@$1??$Apply@$0A@@ReferenceHandle@ivm@@QEAA?AV?$Local@VValue@v8@@@v8@@V?$MaybeLocal@VValue@v8@@@4@V?$MaybeLocal@VArray@v8@@@4@V?$MaybeLocal@VObject@v8@@@4@@Z@?$MethodCast@P8ReferenceHandle@ivm@@EAA?AV?$Local@VValue@v8@@@v8@@V?$MaybeLocal@VValue@v8@@@4@V?$MaybeLocal@VArray@v8@@@4@V?$MaybeLocal@VObject@v8@@@4@@Z@ClassHandle@4@SA?AV12@0123@Z@ClassHandle@ivm@@CAXAEBV?$FunctionCallbackInfo@VValue@v8@@@v8@@@Z 0000000180038250 f i reference_handle.obj
 0001:00037260       ??$Run@$03UApplyRunner@ivm@@AEAVReferenceHandle@2@AEAV?$MaybeLocal@VValue@v8@@@v8@@AEAV?$MaybeLocal@VArray@v8@@@5@AEAV?$MaybeLocal@VObject@v8@@@5@AEAV?$shared_ptr@V?$RemoteHandle@VContext@v8@@@ivm@@@std@@AEAV?$shared_ptr@V?$RemoteHandle@VValue@v8@@@ivm@@@9@@ThreePhaseTask@ivm@@SA?AV?$Local@VValue@v8@@@v8@@AEAVIsolateHolder@1@AEAVReferenceHandle@1@AEAV?$MaybeLocal@VValue@v8@@@3@AEAV?$MaybeLocal@VArray@v8@@@3@AEAV?$MaybeLocal@VObject@v8@@@3@AEAV?$shared_ptr@V?$RemoteHandle@VContext@v8@@@ivm@@@std@@AEAV?$shared_ptr@V?$RemoteHandle@VValue@v8@@@ivm@@@std@@@Z 0000000180038260 f i reference_handle.obj
 0001:00037360       ??$Invoke@$1??$Apply@$03@ReferenceHandle@ivm@@QEAA?AV?$Local@VValue@v8@@@v8@@V?$MaybeLocal@VValue@v8@@@4@V?$MaybeLocal@VArray@v8@@@4@V?$MaybeLocal@VObject@v8@@@4@@Z@?$MethodCast@P8ReferenceHandle@ivm@@EAA?AV?$Local@VValue@v8@@@v8@@V?$MaybeLocal@VValue@v8@@@4@V?$MaybeLocal@VArray@v8@@@4@V?$MaybeLocal@VObject@v8@@@4@@Z@ClassHandle@ivm@@SA?AV?$Local@VValue@v8@@@v8@@PEAVReferenceHandle@2@V?$MaybeLocal@VValue@v8@@@4@V?$MaybeLocal@VArray@v8@@@4@V?$MaybeLocal@VObject@v8@@@4@@Z 0000000180038360 f i reference_handle.obj
 0001:000373c0       ??$ParameterizeEntry@$0?0P6A?AV?$Local@VValue@v8@@@v8@@PEAVReferenceHandle@ivm@@V?$MaybeLocal@VValue@v8@@@2@V?$MaybeLocal@VArray@v8@@@2@V?$MaybeLocal@VObject@v8@@@2@@Z$1??$Invoke@$1??$Apply@$03@ReferenceHandle@ivm@@QEAA?AV?$Local@VValue@v8@@@v8@@V?$MaybeLocal@VValue@v8@@@4@V?$MaybeLocal@VArray@v8@@@4@V?$MaybeLocal@VObject@v8@@@4@@Z@?$MethodCast@P8ReferenceHandle@ivm@@EAA?AV?$Local@VValue@v8@@@v8@@V?$MaybeLocal@VValue@v8@@@4@V?$MaybeLocal@VArray@v8@@@4@V?$MaybeLocal@VObject@v8@@@4@@Z@ClassHandle@4@SA?AV12@0123@Z@ClassHandle@ivm@@CAXAEBV?$FunctionCallbackInfo@VValue@v8@@@v8@@@Z 00000001800383c0 f i reference_handle.obj
 0001:000373d0       ??$Invoke@$1?TypeOfGetter@ReferenceHandle@ivm@@QEAA?AV?$Local@VValue@v8@@@v8@@XZ@?$MethodCast@P8ReferenceHandle@ivm@@EAA?AV?$Local@VValue@v8@@@v8@@XZ@ClassHandle@ivm@@SA?AV?$Local@VValue@v8@@@v8@@PEAVReferenceHandle@2@@Z 00000001800383d0 f i reference_handle.obj
 0001:00037400       ??$ParameterizeGetterEntry@P6A?AV?$Local@VValue@v8@@@v8@@PEAVReferenceHandle@ivm@@@Z$1??$Invoke@$1?TypeOfGetter@ReferenceHandle@ivm@@QEAA?AV?$Local@VValue@v8@@@v8@@XZ@?$MethodCast@P8ReferenceHandle@ivm@@EAA?AV?$Local@VValue@v8@@@v8@@XZ@ClassHandle@4@SA?AV12@0@Z@ClassHandle@ivm@@CAXV?$Local@VString@v8@@@v8@@AEBV?$PropertyCallbackInfo@VValue@v8@@@3@@Z 0000000180038400 f i reference_handle.obj
 0001:00037420       ??$AddMethods@PEBDU?$pair@P6AXAEBV?$FunctionCallbackInfo@VValue@v8@@@v8@@@ZH@std@@PEBDU12@PEBDU12@PEBDU12@PEBDU12@PEBDU12@PEBDU12@PEBDU12@PEBDU12@PEBDU12@PEBDU12@PEBDU12@PEBDU12@PEBDU12@PEBDU?$pair@P6AXV?$Local@VString@v8@@@v8@@AEBV?$PropertyCallbackInfo@VValue@v8@@@2@@ZP6AX0V?$Local@VValue@v8@@@2@AEBV?$PropertyCallbackInfo@X@2@@Z@2@@ClassHandle@ivm@@CAXPEAVIsolate@v8@@AEAV?$Local@VFunctionTemplate@v8@@@3@AEAV?$Local@VObjectTemplate@v8@@@3@AEAV?$Local@VSignature@v8@@@3@AEAV?$Local@VAccessorSignature@v8@@@3@PEBDU?$pair@P6AXAEBV?$FunctionCallbackInfo@VValue@v8@@@v8@@@ZH@std@@56565656565656565656565656565U?$pair@P6AXV?$Local@VString@v8@@@v8@@AEBV?$PropertyCallbackInfo@VValue@v8@@@2@@ZP6AX0V?$Local@VValue@v8@@@2@AEBV?$PropertyCallbackInfo@X@2@@Z@9@@Z 0000000180038420 f i reference_handle.obj
 0001:000378b0       ??$GetFunctionTemplate@VDereferenceHandle@ivm@@@ClassHandle@ivm@@SA?AV?$Local@VFunctionTemplate@v8@@@v8@@XZ 00000001800388b0 f i reference_handle.obj
 0001:000379f0       ??$make_unique@VDereferenceHandle@ivm@@AEAV?$shared_ptr@VIsolateHolder@ivm@@@std@@AEAV?$shared_ptr@V?$RemoteHandle@VValue@v8@@@ivm@@@4@@std@@YA?AV?$unique_ptr@VDereferenceHandle@ivm@@U?$default_delete@VDereferenceHandle@ivm@@@std@@@0@AEAV?$shared_ptr@VIsolateHolder@ivm@@@0@AEAV?$shared_ptr@V?$RemoteHandle@VValue@v8@@@ivm@@@0@@Z 00000001800389f0 f i reference_handle.obj
 0001:00037aa0       ??$make_unique@UTimeoutRunner@ivm@@AEAV?$basic_string@DU?$char_traits@D@std@@V?$allocator@D@2@@std@@AEAVThreadWait@2@@std@@YA?AV?$unique_ptr@UTimeoutRunner@ivm@@U?$default_delete@UTimeoutRunner@ivm@@@std@@@0@AEAV?$basic_string@DU?$char_traits@D@std@@V?$allocator@D@2@@0@AEAVThreadWait@ivm@@@Z 0000000180038aa0 f i reference_handle.obj
 0001:00037b00       ??$make_unique@Vtimer_t@ivm@@AEAIV<lambda_13c6c2e07069e236ec1d47e9ba7a29f9>@@@std@@YA?AV?$unique_ptr@Vtimer_t@ivm@@U?$default_delete@Vtimer_t@ivm@@@std@@@0@AEAI$$QEAV<lambda_13c6c2e07069e236ec1d47e9ba7a29f9>@@@Z 0000000180038b00 f i reference_handle.obj
 0001:00037ba0       ??$make_unique@Vtimer_t@ivm@@AEAIV<lambda_d3d7c00aa09c1b868e973018ff663e96>@@@std@@YA?AV?$unique_ptr@Vtimer_t@ivm@@U?$default_delete@Vtimer_t@ivm@@@std@@@0@AEAI$$QEAV<lambda_d3d7c00aa09c1b868e973018ff663e96>@@@Z 0000000180038ba0 f i reference_handle.obj
 0001:00037c40       ??$ParameterizeHelperCtorStart@$0A@VReferenceHandle@ivm@@V?$Local@VValue@v8@@@v8@@@ClassHandle@ivm@@CA?AV?$Local@VValue@v8@@@v8@@AEBV?$FunctionCallbackInfo@VValue@v8@@@3@P6A?AV?$unique_ptr@VReferenceHandle@ivm@@U?$default_delete@VReferenceHandle@ivm@@@std@@@std@@V23@@Z@Z 0000000180038c40 f i reference_handle.obj
 0001:00037cd0       ??$RunCallback@V<lambda_6005a4cbc6f6858ad7b647b7b86e5c82>@@$$CBV?$FunctionCallbackInfo@VValue@v8@@@v8@@@FunctorRunners@ivm@@YAXAEBV?$FunctionCallbackInfo@VValue@v8@@@v8@@V<lambda_6005a4cbc6f6858ad7b647b7b86e5c82>@@@Z 0000000180038cd0 f i reference_handle.obj
 0001:00037d40       ??$RunCallback@V<lambda_deb719e76a5bbee6f2a4314af9f5edef>@@$$CBV?$FunctionCallbackInfo@VValue@v8@@@v8@@@FunctorRunners@ivm@@YAXAEBV?$FunctionCallbackInfo@VValue@v8@@@v8@@V<lambda_deb719e76a5bbee6f2a4314af9f5edef>@@@Z 0000000180038d40 f i reference_handle.obj
 0001:00037de0       ??$RunCallback@V<lambda_d8bf310dc70192cf3c44eee1149d1291>@@$$CBV?$FunctionCallbackInfo@VValue@v8@@@v8@@@FunctorRunners@ivm@@YAXAEBV?$FunctionCallbackInfo@VValue@v8@@@v8@@V<lambda_d8bf310dc70192cf3c44eee1149d1291>@@@Z 0000000180038de0 f i reference_handle.obj
 0001:00037e80       ??$RunCallback@V<lambda_7c89a0f36fd6247e38bfd588e8ad258a>@@$$CBV?$FunctionCallbackInfo@VValue@v8@@@v8@@@FunctorRunners@ivm@@YAXAEBV?$FunctionCallbackInfo@VValue@v8@@@v8@@V<lambda_7c89a0f36fd6247e38bfd588e8ad258a>@@@Z 0000000180038e80 f i reference_handle.obj
 0001:00037ef0       ??$RunCallback@V<lambda_e8f1cf8c802e54cb9a9bc27d9e925ceb>@@$$CBV?$FunctionCallbackInfo@VValue@v8@@@v8@@@FunctorRunners@ivm@@YAXAEBV?$FunctionCallbackInfo@VValue@v8@@@v8@@V<lambda_e8f1cf8c802e54cb9a9bc27d9e925ceb>@@@Z 0000000180038ef0 f i reference_handle.obj
 0001:00037f60       ??$make_unique@UCopyRunner@ivm@@AEAVReferenceHandle@2@AEAV?$shared_ptr@V?$RemoteHandle@VContext@v8@@@ivm@@@std@@AEAV?$shared_ptr@V?$RemoteHandle@VValue@v8@@@ivm@@@5@@std@@YA?AV?$unique_ptr@UCopyRunner@ivm@@U?$default_delete@UCopyRunner@ivm@@@std@@@0@AEAVReferenceHandle@ivm@@AEAV?$shared_ptr@V?$RemoteHandle@VContext@v8@@@ivm@@@0@AEAV?$shared_ptr@V?$RemoteHandle@VValue@v8@@@ivm@@@0@@Z 0000000180038f60 f i reference_handle.obj
 0001:00038020       ??$RunCatchValue@V<lambda_4b157407f858d66d44de6bbf11b0ca50>@@V<lambda_c595477e952c66a22cdf562ebf6c7cf4>@@@FunctorRunners@ivm@@YAXV<lambda_4b157407f858d66d44de6bbf11b0ca50>@@V<lambda_c595477e952c66a22cdf562ebf6c7cf4>@@@Z 0000000180039020 f i reference_handle.obj
 0001:00038080       ??$RunCallback@V<lambda_5cb31630317e71caaf1f90fff829b021>@@$$CBV?$FunctionCallbackInfo@VValue@v8@@@v8@@@FunctorRunners@ivm@@YAXAEBV?$FunctionCallbackInfo@VValue@v8@@@v8@@V<lambda_5cb31630317e71caaf1f90fff829b021>@@@Z 0000000180039080 f i reference_handle.obj
 0001:000380f0       ??$RunCallback@V<lambda_a881eca4d478887207a1f243544b52d3>@@$$CBV?$FunctionCallbackInfo@VValue@v8@@@v8@@@FunctorRunners@ivm@@YAXAEBV?$FunctionCallbackInfo@VValue@v8@@@v8@@V<lambda_a881eca4d478887207a1f243544b52d3>@@@Z 00000001800390f0 f i reference_handle.obj
 0001:00038160       ??$make_unique@UGetRunner@ivm@@AEAVReferenceHandle@2@AEAV?$Local@VValue@v8@@@v8@@AEAV?$shared_ptr@V?$RemoteHandle@VContext@v8@@@ivm@@@std@@AEAV?$shared_ptr@V?$RemoteHandle@VValue@v8@@@ivm@@@7@@std@@YA?AV?$unique_ptr@UGetRunner@ivm@@U?$default_delete@UGetRunner@ivm@@@std@@@0@AEAVReferenceHandle@ivm@@AEAV?$Local@VValue@v8@@@v8@@AEAV?$shared_ptr@V?$RemoteHandle@VContext@v8@@@ivm@@@0@AEAV?$shared_ptr@V?$RemoteHandle@VValue@v8@@@ivm@@@0@@Z 0000000180039160 f i reference_handle.obj
 0001:00038240       ??$RunCatchValue@V<lambda_e5e980d9fa5b3d6ef9efd6d3d6ea7c0c>@@V<lambda_f2e6854a07e4f65e8fe734b70ea9ecee>@@@FunctorRunners@ivm@@YAXV<lambda_e5e980d9fa5b3d6ef9efd6d3d6ea7c0c>@@V<lambda_f2e6854a07e4f65e8fe734b70ea9ecee>@@@Z 0000000180039240 f i reference_handle.obj
 0001:000382a0       ??$RunCallback@V<lambda_03100c56053431a7eab2d10476e14841>@@$$CBV?$FunctionCallbackInfo@VValue@v8@@@v8@@@FunctorRunners@ivm@@YAXAEBV?$FunctionCallbackInfo@VValue@v8@@@v8@@V<lambda_03100c56053431a7eab2d10476e14841>@@@Z 00000001800392a0 f i reference_handle.obj
 0001:00038340       ??$RunCallback@V<lambda_cd7ae8a34c6ef3f022d29bae2cbbceb0>@@$$CBV?$FunctionCallbackInfo@VValue@v8@@@v8@@@FunctorRunners@ivm@@YAXAEBV?$FunctionCallbackInfo@VValue@v8@@@v8@@V<lambda_cd7ae8a34c6ef3f022d29bae2cbbceb0>@@@Z 0000000180039340 f i reference_handle.obj
 0001:000383e0       ??$make_unique@USetRunner@ivm@@AEAVReferenceHandle@2@AEAV?$Local@VValue@v8@@@v8@@AEAV45@AEAV?$shared_ptr@V?$RemoteHandle@VContext@v8@@@ivm@@@std@@AEAV?$shared_ptr@V?$RemoteHandle@VValue@v8@@@ivm@@@7@@std@@YA?AV?$unique_ptr@USetRunner@ivm@@U?$default_delete@USetRunner@ivm@@@std@@@0@AEAVReferenceHandle@ivm@@AEAV?$Local@VValue@v8@@@v8@@1AEAV?$shared_ptr@V?$RemoteHandle@VContext@v8@@@ivm@@@0@AEAV?$shared_ptr@V?$RemoteHandle@VValue@v8@@@ivm@@@0@@Z 00000001800393e0 f i reference_handle.obj
 0001:000384d0       ??$RunCatchValue@V<lambda_5ece72985736cea960ba895d6b2f8847>@@V<lambda_b8065ee066f1fc46ab682b54ec11d210>@@@FunctorRunners@ivm@@YAXV<lambda_5ece72985736cea960ba895d6b2f8847>@@V<lambda_b8065ee066f1fc46ab682b54ec11d210>@@@Z 00000001800394d0 f i reference_handle.obj
 0001:00038530       ??$make_unique@UPhase2RunnerIgnored@ThreePhaseTask@ivm@@V?$unique_ptr@URunRunner@ivm@@U?$default_delete@URunRunner@ivm@@@std@@@std@@@std@@YA?AV?$unique_ptr@UPhase2RunnerIgnored@ThreePhaseTask@ivm@@U?$default_delete@UPhase2RunnerIgnored@ThreePhaseTask@ivm@@@std@@@0@$$QEAV?$unique_ptr@URunRunner@ivm@@U?$default_delete@URunRunner@ivm@@@std@@@0@@Z 0000000180039530 f i script_handle.obj
 0001:00038530       ??$make_unique@UPhase2RunnerIgnored@ThreePhaseTask@ivm@@V?$unique_ptr@USetRunner@ivm@@U?$default_delete@USetRunner@ivm@@@std@@@std@@@std@@YA?AV?$unique_ptr@UPhase2RunnerIgnored@ThreePhaseTask@ivm@@U?$default_delete@UPhase2RunnerIgnored@ThreePhaseTask@ivm@@@std@@@0@$$QEAV?$unique_ptr@USetRunner@ivm@@U?$default_delete@USetRunner@ivm@@@std@@@0@@Z 0000000180039530 f i reference_handle.obj
 0001:00038530       ??$make_unique@UPhase2RunnerIgnored@ThreePhaseTask@ivm@@V?$unique_ptr@UApplyRunner@ivm@@U?$default_delete@UApplyRunner@ivm@@@std@@@std@@@std@@YA?AV?$unique_ptr@UPhase2RunnerIgnored@ThreePhaseTask@ivm@@U?$default_delete@UPhase2RunnerIgnored@ThreePhaseTask@ivm@@@std@@@0@$$QEAV?$unique_ptr@UApplyRunner@ivm@@U?$default_delete@UApplyRunner@ivm@@@std@@@0@@Z 0000000180039530 f i reference_handle.obj
 0001:00038580       ??$RunCallback@V<lambda_972d4dc715d6f9450935dc89e5fcec22>@@$$CBV?$FunctionCallbackInfo@VValue@v8@@@v8@@@FunctorRunners@ivm@@YAXAEBV?$FunctionCallbackInfo@VValue@v8@@@v8@@V<lambda_972d4dc715d6f9450935dc89e5fcec22>@@@Z 0000000180039580 f i reference_handle.obj
 0001:00038650       ??$RunCallback@V<lambda_fea458b8460d5b781ec2562005c61c1c>@@$$CBV?$FunctionCallbackInfo@VValue@v8@@@v8@@@FunctorRunners@ivm@@YAXAEBV?$FunctionCallbackInfo@VValue@v8@@@v8@@V<lambda_fea458b8460d5b781ec2562005c61c1c>@@@Z 0000000180039650 f i reference_handle.obj
 0001:00038720       ??$RunCallback@V<lambda_3e1ad3809049dcef860fb83575f33642>@@$$CBV?$FunctionCallbackInfo@VValue@v8@@@v8@@@FunctorRunners@ivm@@YAXAEBV?$FunctionCallbackInfo@VValue@v8@@@v8@@V<lambda_3e1ad3809049dcef860fb83575f33642>@@@Z 0000000180039720 f i reference_handle.obj
 0001:000387f0       ??$make_unique@UApplyRunner@ivm@@AEAVReferenceHandle@2@AEAV?$MaybeLocal@VValue@v8@@@v8@@AEAV?$MaybeLocal@VArray@v8@@@5@AEAV?$MaybeLocal@VObject@v8@@@5@AEAV?$shared_ptr@V?$RemoteHandle@VContext@v8@@@ivm@@@std@@AEAV?$shared_ptr@V?$RemoteHandle@VValue@v8@@@ivm@@@9@@std@@YA?AV?$unique_ptr@UApplyRunner@ivm@@U?$default_delete@UApplyRunner@ivm@@@std@@@0@AEAVReferenceHandle@ivm@@AEAV?$MaybeLocal@VValue@v8@@@v8@@AEAV?$MaybeLocal@VArray@v8@@@5@AEAV?$MaybeLocal@VObject@v8@@@5@AEAV?$shared_ptr@V?$RemoteHandle@VContext@v8@@@ivm@@@0@AEAV?$shared_ptr@V?$RemoteHandle@VValue@v8@@@ivm@@@0@@Z 00000001800397f0 f i reference_handle.obj
 0001:000388e0       ??$RunCatchValue@V<lambda_ffda41bb85494bba4ea042d8d9ca4450>@@V<lambda_c2c1302367cef14c67dda1373c4fe5a3>@@@FunctorRunners@ivm@@YAXV<lambda_ffda41bb85494bba4ea042d8d9ca4450>@@V<lambda_c2c1302367cef14c67dda1373c4fe5a3>@@@Z 00000001800398e0 f i reference_handle.obj
 0001:00038940       ??$RunCallback@V<lambda_8c0d29e8662db00749adfbf42cbe76d8>@@$$CBV?$FunctionCallbackInfo@VValue@v8@@@v8@@@FunctorRunners@ivm@@YAXAEBV?$FunctionCallbackInfo@VValue@v8@@@v8@@V<lambda_8c0d29e8662db00749adfbf42cbe76d8>@@@Z 0000000180039940 f i reference_handle.obj
 0001:00038a40       ??$RunCallback@V<lambda_5fbfe5b928f739bd5931b110530e5f28>@@$$CBV?$FunctionCallbackInfo@VValue@v8@@@v8@@@FunctorRunners@ivm@@YAXAEBV?$FunctionCallbackInfo@VValue@v8@@@v8@@V<lambda_5fbfe5b928f739bd5931b110530e5f28>@@@Z 0000000180039a40 f i reference_handle.obj
 0001:00038b40       ??$RunCallback@V<lambda_bdd6bcb12d2f3124c42c0e40e773eab7>@@$$CBV?$FunctionCallbackInfo@VValue@v8@@@v8@@@FunctorRunners@ivm@@YAXAEBV?$FunctionCallbackInfo@VValue@v8@@@v8@@V<lambda_bdd6bcb12d2f3124c42c0e40e773eab7>@@@Z 0000000180039b40 f i reference_handle.obj
 0001:00038c40       ??$RunCallback@V<lambda_47a796f4a20f5882948828961df28d08>@@$$CBV?$FunctionCallbackInfo@VValue@v8@@@v8@@@FunctorRunners@ivm@@YAXAEBV?$FunctionCallbackInfo@VValue@v8@@@v8@@V<lambda_47a796f4a20f5882948828961df28d08>@@@Z 0000000180039c40 f i reference_handle.obj
 0001:00038d40       ??$RunCallback@V<lambda_31ba53325b9d176be78a0b7dcc38965a>@@$$CBV?$PropertyCallbackInfo@VValue@v8@@@v8@@@FunctorRunners@ivm@@YAXAEBV?$PropertyCallbackInfo@VValue@v8@@@v8@@V<lambda_31ba53325b9d176be78a0b7dcc38965a>@@@Z 0000000180039d40 f i reference_handle.obj
 0001:00038db0       ??$ParameterizeHelper@AEBV?$FunctionCallbackInfo@VValue@v8@@@v8@@$0A@P6A?AV?$unique_ptr@VReferenceHandle@ivm@@U?$default_delete@VReferenceHandle@ivm@@@std@@@std@@V?$Local@VValue@v8@@@2@@ZV34@V?$tuple@$$V@4@V52@$$V@ClassHandle@ivm@@CA?AV?$unique_ptr@VReferenceHandle@ivm@@U?$default_delete@VReferenceHandle@ivm@@@std@@@std@@P6A?AV23@V?$Local@VValue@v8@@@v8@@@ZV?$tuple@$$V@3@AEBV?$FunctionCallbackInfo@VValue@v8@@@5@@Z 0000000180039db0 f i reference_handle.obj
 0001:00038df0       ?Invoke@?$ConvertParamInvoke@U?$ConvertParam@V?$Local@VValue@v8@@@v8@@@ivm@@$0A@$00@ivm@@SA?AV?$Local@VValue@v8@@@v8@@AEBV?$FunctionCallbackInfo@VValue@v8@@@4@@Z 0000000180039df0 f i reference_handle.obj
 0001:00038eb0       ?Invoke@?$ConvertParamInvoke@U?$ConvertParam@PEAVReferenceHandle@ivm@@@ivm@@$0?0$00@ivm@@SAPEAVReferenceHandle@2@AEBV?$FunctionCallbackInfo@VValue@v8@@@v8@@@Z 0000000180039eb0 f i reference_handle.obj
 0001:00038f00       ?Invoke@?$ConvertParamInvoke@U?$ConvertParam@PEAVReferenceHandle@ivm@@@ivm@@$0?0$0A@@ivm@@SAPEAVReferenceHandle@2@AEBV?$FunctionCallbackInfo@VValue@v8@@@v8@@@Z 0000000180039f00 f i reference_handle.obj
 0001:00038f50       ?Invoke@?$ConvertParamInvoke@U?$ConvertParam@PEAVReferenceHandle@ivm@@@ivm@@$0?0$01@ivm@@SAPEAVReferenceHandle@2@AEBV?$FunctionCallbackInfo@VValue@v8@@@v8@@@Z 0000000180039f50 f i reference_handle.obj
 0001:00038fa0       ?Invoke@?$ConvertParamInvoke@U?$ConvertParam@PEAVReferenceHandle@ivm@@@ivm@@$0?0$02@ivm@@SAPEAVReferenceHandle@2@AEBV?$FunctionCallbackInfo@VValue@v8@@@v8@@@Z 0000000180039fa0 f i reference_handle.obj
 0001:00038ff0       ?Invoke@?$ConvertParamInvoke@U?$ConvertParam@PEAVReferenceHandle@ivm@@@ivm@@$0?0$0A@@ivm@@SAPEAVReferenceHandle@2@AEBV?$PropertyCallbackInfo@VValue@v8@@@v8@@@Z 0000000180039ff0 f i reference_handle.obj
 0001:00039040       ?Convert@?$ConvertParam@PEAVReferenceHandle@ivm@@@ivm@@SAPEAVReferenceHandle@2@V?$Local@VValue@v8@@@v8@@@Z 000000018003a040 f i reference_handle.obj
 0001:00039180       ??$ParameterizeHelper@AEBV?$FunctionCallbackInfo@VValue@v8@@@v8@@$0A@P6A?AV?$unique_ptr@VReferenceHandle@ivm@@U?$default_delete@VReferenceHandle@ivm@@@std@@@std@@V?$Local@VValue@v8@@@2@@ZV34@V?$tuple@V?$Local@VValue@v8@@@v8@@@4@@ClassHandle@ivm@@CA?AV?$unique_ptr@VReferenceHandle@ivm@@U?$default_delete@VReferenceHandle@ivm@@@std@@@std@@P6A?AV23@V?$Local@VValue@v8@@@v8@@@ZV?$tuple@V?$Local@VValue@v8@@@v8@@@3@AEBV?$FunctionCallbackInfo@VValue@v8@@@5@@Z 000000018003a180 f i reference_handle.obj
 0001:000391d0       ?Invoke@?$ConvertParamInvoke@U?$ConvertParam@V?$MaybeLocal@VValue@v8@@@v8@@@ivm@@$0A@$02@ivm@@SA?AV?$MaybeLocal@VValue@v8@@@v8@@AEBV?$FunctionCallbackInfo@VValue@v8@@@4@@Z 000000018003a1d0 f i reference_handle.obj
 0001:00039230       ??$AddMethods@PEBDU?$pair@P6AXAEBV?$FunctionCallbackInfo@VValue@v8@@@v8@@@ZH@std@@PEBDU12@PEBDU12@PEBDU12@PEBDU12@PEBDU12@PEBDU12@PEBDU12@PEBDU12@PEBDU12@PEBDU12@PEBDU?$pair@P6AXV?$Local@VString@v8@@@v8@@AEBV?$PropertyCallbackInfo@VValue@v8@@@2@@ZP6AX0V?$Local@VValue@v8@@@2@AEBV?$PropertyCallbackInfo@X@2@@Z@2@@ClassHandle@ivm@@CAXPEAVIsolate@v8@@AEAV?$Local@VFunctionTemplate@v8@@@3@AEAV?$Local@VObjectTemplate@v8@@@3@AEAV?$Local@VSignature@v8@@@3@AEAV?$Local@VAccessorSignature@v8@@@3@PEBDU?$pair@P6AXAEBV?$FunctionCallbackInfo@VValue@v8@@@v8@@@ZH@std@@56565656565656565656565U?$pair@P6AXV?$Local@VString@v8@@@v8@@AEBV?$PropertyCallbackInfo@VValue@v8@@@2@@ZP6AX0V?$Local@VValue@v8@@@2@AEBV?$PropertyCallbackInfo@X@2@@Z@9@@Z 000000018003a230 f i reference_handle.obj
 0001:000396d0       ?_Target_type@?$_Func_impl@V<lambda_d3d7c00aa09c1b868e973018ff663e96>@@V?$allocator@H@std@@XPEAX@std@@EEBAAEBVtype_info@@XZ 000000018003a6d0 f i reference_handle.obj
 0001:000396e0       ?_Do_call@?$_Func_impl@V<lambda_13c6c2e07069e236ec1d47e9ba7a29f9>@@V?$allocator@H@std@@XPEAX@std@@EEAAX$$QEAPEAX@Z 000000018003a6e0 f i reference_handle.obj
 0001:000396e0       ?_Do_call@?$_Func_impl@V<lambda_8c25eeb07f20d2561780259604f13fe2>@@V?$allocator@H@std@@XPEAX@std@@EEAAX$$QEAPEAX@Z 000000018003a6e0 f i module_handle.obj
 0001:000396e0       ?_Do_call@?$_Func_impl@V<lambda_d3d7c00aa09c1b868e973018ff663e96>@@V?$allocator@H@std@@XPEAX@std@@EEAAX$$QEAPEAX@Z 000000018003a6e0 f i reference_handle.obj
 0001:000396e0       ?_Do_call@?$_Func_impl@V<lambda_b4fd8a0b72873f3d6e69c2558d0e65ac>@@V?$allocator@H@std@@XPEAX@std@@EEAAX$$QEAPEAX@Z 000000018003a6e0 f i script_handle.obj
 0001:000396f0       ?_Move@?$_Func_impl@V<lambda_d3d7c00aa09c1b868e973018ff663e96>@@V?$allocator@H@std@@XPEAX@std@@EEAAPEAV?$_Func_base@XPEAX@2@PEAX@Z 000000018003a6f0 f i reference_handle.obj
 0001:000396f0       ?_Copy@?$_Func_impl@V<lambda_d3d7c00aa09c1b868e973018ff663e96>@@V?$allocator@H@std@@XPEAX@std@@EEBAPEAV?$_Func_base@XPEAX@2@PEAX@Z 000000018003a6f0 f i reference_handle.obj
 0001:00039720       ?_Target_type@?$_Func_impl@V<lambda_13c6c2e07069e236ec1d47e9ba7a29f9>@@V?$allocator@H@std@@XPEAX@std@@EEBAAEBVtype_info@@XZ 000000018003a720 f i reference_handle.obj
 0001:00039730       ?_Copy@?$_Func_impl@V<lambda_13c6c2e07069e236ec1d47e9ba7a29f9>@@V?$allocator@H@std@@XPEAX@std@@EEBAPEAV?$_Func_base@XPEAX@2@PEAX@Z 000000018003a730 f i reference_handle.obj
 0001:00039730       ?_Move@?$_Func_impl@V<lambda_13c6c2e07069e236ec1d47e9ba7a29f9>@@V?$allocator@H@std@@XPEAX@std@@EEAAPEAV?$_Func_base@XPEAX@2@PEAX@Z 000000018003a730 f i reference_handle.obj
 0001:00039760       ?Invoke@?$ConvertParamInvoke@U?$ConvertParam@V?$Local@VValue@v8@@@v8@@@ivm@@$00$01@ivm@@SA?AV?$Local@VValue@v8@@@v8@@AEBV?$FunctionCallbackInfo@VValue@v8@@@4@@Z 000000018003a760 f i reference_handle.obj
 0001:00039820       ?Invoke@?$ConvertParamInvoke@U?$ConvertParam@V?$MaybeLocal@VArray@v8@@@v8@@@ivm@@$00$02@ivm@@SA?AV?$MaybeLocal@VArray@v8@@@v8@@AEBV?$FunctionCallbackInfo@VValue@v8@@@4@@Z 000000018003a820 f i reference_handle.obj
 0001:000398c0       ?Invoke@?$ConvertParamInvoke@U?$ConvertParam@V?$MaybeLocal@VObject@v8@@@v8@@@ivm@@$01$02@ivm@@SA?AV?$MaybeLocal@VObject@v8@@@v8@@AEBV?$FunctionCallbackInfo@VValue@v8@@@4@@Z 000000018003a8c0 f i reference_handle.obj
 0001:00039960       ??$AddMethods@PEBDU?$pair@P6AXAEBV?$FunctionCallbackInfo@VValue@v8@@@v8@@@ZH@std@@PEBDU12@PEBDU12@PEBDU12@PEBDU12@PEBDU12@PEBDU12@PEBDU?$pair@P6AXV?$Local@VString@v8@@@v8@@AEBV?$PropertyCallbackInfo@VValue@v8@@@2@@ZP6AX0V?$Local@VValue@v8@@@2@AEBV?$PropertyCallbackInfo@X@2@@Z@2@@ClassHandle@ivm@@CAXPEAVIsolate@v8@@AEAV?$Local@VFunctionTemplate@v8@@@3@AEAV?$Local@VObjectTemplate@v8@@@3@AEAV?$Local@VSignature@v8@@@3@AEAV?$Local@VAccessorSignature@v8@@@3@PEBDU?$pair@P6AXAEBV?$FunctionCallbackInfo@VValue@v8@@@v8@@@ZH@std@@565656565656565U?$pair@P6AXV?$Local@VString@v8@@@v8@@AEBV?$PropertyCallbackInfo@VValue@v8@@@2@@ZP6AX0V?$Local@VValue@v8@@@2@AEBV?$PropertyCallbackInfo@X@2@@Z@9@@Z 000000018003a960 f i reference_handle.obj
 0001:00039cb0       ??$AddMethods@PEBDU?$pair@P6AXAEBV?$FunctionCallbackInfo@VValue@v8@@@v8@@@ZH@std@@PEBDU12@PEBDU12@PEBDU12@PEBDU?$pair@P6AXV?$Local@VString@v8@@@v8@@AEBV?$PropertyCallbackInfo@VValue@v8@@@2@@ZP6AX0V?$Local@VValue@v8@@@2@AEBV?$PropertyCallbackInfo@X@2@@Z@2@@ClassHandle@ivm@@CAXPEAVIsolate@v8@@AEAV?$Local@VFunctionTemplate@v8@@@3@AEAV?$Local@VObjectTemplate@v8@@@3@AEAV?$Local@VSignature@v8@@@3@AEAV?$Local@VAccessorSignature@v8@@@3@PEBDU?$pair@P6AXAEBV?$FunctionCallbackInfo@VValue@v8@@@v8@@@ZH@std@@565656565U?$pair@P6AXV?$Local@VString@v8@@@v8@@AEBV?$PropertyCallbackInfo@VValue@v8@@@2@@ZP6AX0V?$Local@VValue@v8@@@2@AEBV?$PropertyCallbackInfo@X@2@@Z@9@@Z 000000018003acb0 f i reference_handle.obj
 0001:00039f20       ??$AddMethods@PEBDU?$pair@P6AXAEBV?$FunctionCallbackInfo@VValue@v8@@@v8@@@ZH@std@@PEBDU12@PEBDU?$pair@P6AXV?$Local@VString@v8@@@v8@@AEBV?$PropertyCallbackInfo@VValue@v8@@@2@@ZP6AX0V?$Local@VValue@v8@@@2@AEBV?$PropertyCallbackInfo@X@2@@Z@2@@ClassHandle@ivm@@CAXPEAVIsolate@v8@@AEAV?$Local@VFunctionTemplate@v8@@@3@AEAV?$Local@VObjectTemplate@v8@@@3@AEAV?$Local@VSignature@v8@@@3@AEAV?$Local@VAccessorSignature@v8@@@3@PEBDU?$pair@P6AXAEBV?$FunctionCallbackInfo@VValue@v8@@@v8@@@ZH@std@@56565U?$pair@P6AXV?$Local@VString@v8@@@v8@@AEBV?$PropertyCallbackInfo@VValue@v8@@@2@@ZP6AX0V?$Local@VValue@v8@@@2@AEBV?$PropertyCallbackInfo@X@2@@Z@9@@Z 000000018003af20 f i reference_handle.obj
 0001:0003a150       ??$AddMethods@PEBDU?$pair@P6AXV?$Local@VString@v8@@@v8@@AEBV?$PropertyCallbackInfo@VValue@v8@@@2@@ZP6AX0V?$Local@VValue@v8@@@2@AEBV?$PropertyCallbackInfo@X@2@@Z@std@@@ClassHandle@ivm@@CAXPEAVIsolate@v8@@AEAV?$Local@VFunctionTemplate@v8@@@3@AEAV?$Local@VObjectTemplate@v8@@@3@AEAV?$Local@VSignature@v8@@@3@AEAV?$Local@VAccessorSignature@v8@@@3@PEBDU?$pair@P6AXAEBV?$FunctionCallbackInfo@VValue@v8@@@v8@@@ZH@std@@5U?$pair@P6AXV?$Local@VString@v8@@@v8@@AEBV?$PropertyCallbackInfo@VValue@v8@@@2@@ZP6AX0V?$Local@VValue@v8@@@2@AEBV?$PropertyCallbackInfo@X@2@@Z@9@@Z 000000018003b150 f i reference_handle.obj
 0001:0003a2e0       ??0ScriptHandleTransferable@ScriptHandle@ivm@@QEAA@V?$shared_ptr@VIsolateHolder@ivm@@@std@@V?$shared_ptr@V?$RemoteHandle@VUnboundScript@v8@@@ivm@@@4@@Z 000000018003b2e0 f   script_handle.obj
 0001:0003a3c0       ?TransferIn@ScriptHandleTransferable@ScriptHandle@ivm@@UEAA?AV?$Local@VValue@v8@@@v8@@XZ 000000018003b3c0 f   script_handle.obj
 0001:0003a3f0       ??0ScriptHandle@ivm@@QEAA@V?$shared_ptr@VIsolateHolder@ivm@@@std@@V?$shared_ptr@V?$RemoteHandle@VUnboundScript@v8@@@ivm@@@3@@Z 000000018003b3f0 f   script_handle.obj
 0001:0003a4d0       ?Definition@ScriptHandle@ivm@@SA?AV?$Local@VFunctionTemplate@v8@@@v8@@XZ 000000018003b4d0 f   script_handle.obj
 0001:0003a5d0       ?TransferOut@ScriptHandle@ivm@@UEAA?AV?$unique_ptr@VTransferable@ivm@@U?$default_delete@VTransferable@ivm@@@std@@@std@@XZ 000000018003b5d0 f   script_handle.obj
 0001:0003a630       ??0RunRunner@ivm@@QEAA@PEAVIsolateHolder@1@V?$shared_ptr@V?$RemoteHandle@VUnboundScript@v8@@@ivm@@@std@@IPEAVContextHandle@1@@Z 000000018003b630 f i script_handle.obj
 0001:0003a830       ?Phase2@RunRunner@ivm@@UEAAXXZ 000000018003b830 f i script_handle.obj
 0001:0003a940       ?Phase3@RunRunner@ivm@@UEAA?AV?$Local@VValue@v8@@@v8@@XZ 000000018003b940 f i script_handle.obj
 0001:0003a980       ??_ERunRunner@ivm@@UEAAPEAXI@Z 000000018003b980 f i * CIL library *:* CIL module *
 0001:0003a980       ??_GRunRunner@ivm@@UEAAPEAXI@Z 000000018003b980 f i script_handle.obj
 0001:0003a9c0       ??1RunRunner@ivm@@UEAA@XZ  000000018003b9c0 f i script_handle.obj
 0001:0003aa70       ?reset@?$shared_ptr@V?$RemoteHandle@VUnboundScript@v8@@@ivm@@@std@@QEAAXXZ 000000018003ba70 f i script_handle.obj
 0001:0003aae0       ??$NewInstance@VScriptHandle@ivm@@AEAV?$shared_ptr@VIsolateHolder@ivm@@@std@@AEAV?$shared_ptr@V?$RemoteHandle@VUnboundScript@v8@@@ivm@@@4@@ClassHandle@ivm@@SA?AV?$Local@VObject@v8@@@v8@@AEAV?$shared_ptr@VIsolateHolder@ivm@@@std@@AEAV?$shared_ptr@V?$RemoteHandle@VUnboundScript@v8@@@ivm@@@5@@Z 000000018003bae0 f i script_handle.obj
 0001:0003abe0       ??$Run@$00@ScriptHandle@ivm@@QEAA?AV?$Local@VValue@v8@@@v8@@PEAVContextHandle@1@V?$MaybeLocal@VObject@v8@@@3@@Z 000000018003bbe0 f i script_handle.obj
 0001:0003b080       ??$Run@$01@ScriptHandle@ivm@@QEAA?AV?$Local@VValue@v8@@@v8@@PEAVContextHandle@1@V?$MaybeLocal@VObject@v8@@@3@@Z 000000018003c080 f i script_handle.obj
 0001:0003b4f0       ??$Run@$0A@@ScriptHandle@ivm@@QEAA?AV?$Local@VValue@v8@@@v8@@PEAVContextHandle@1@V?$MaybeLocal@VObject@v8@@@3@@Z 000000018003c4f0 f i script_handle.obj
 0001:0003b960       ??$MakeClass@PEBDU?$pair@P6AXAEBV?$FunctionCallbackInfo@VValue@v8@@@v8@@@ZH@std@@PEBDU12@PEBDU12@PEBDU12@@ClassHandle@ivm@@KA?AV?$Local@VFunctionTemplate@v8@@@v8@@PEBDUCtorFunction@01@0U?$pair@P6AXAEBV?$FunctionCallbackInfo@VValue@v8@@@v8@@@ZH@std@@020202@Z 000000018003c960 f i script_handle.obj
 0001:0003bd30       ??$make_unique@VScriptHandleTransferable@ScriptHandle@ivm@@AEAV?$shared_ptr@VIsolateHolder@ivm@@@std@@AEAV?$shared_ptr@V?$RemoteHandle@VUnboundScript@v8@@@ivm@@@5@@std@@YA?AV?$unique_ptr@VScriptHandleTransferable@ScriptHandle@ivm@@U?$default_delete@VScriptHandleTransferable@ScriptHandle@ivm@@@std@@@0@AEAV?$shared_ptr@VIsolateHolder@ivm@@@0@AEAV?$shared_ptr@V?$RemoteHandle@VUnboundScript@v8@@@ivm@@@0@@Z 000000018003cd30 f i script_handle.obj
 0001:0003bde0       ??$RunWithTimeout@V<lambda_e6dc473769210d839f3a1f8339ca786b>@@@ivm@@YA?AV?$Local@VValue@v8@@@v8@@I$$QEAV<lambda_e6dc473769210d839f3a1f8339ca786b>@@@Z 000000018003cde0 f i script_handle.obj
 0001:0003c1d0       ??$make_unique@VScriptHandle@ivm@@AEAV?$shared_ptr@VIsolateHolder@ivm@@@std@@AEAV?$shared_ptr@V?$RemoteHandle@VUnboundScript@v8@@@ivm@@@4@@std@@YA?AV?$unique_ptr@VScriptHandle@ivm@@U?$default_delete@VScriptHandle@ivm@@@std@@@0@AEAV?$shared_ptr@VIsolateHolder@ivm@@@0@AEAV?$shared_ptr@V?$RemoteHandle@VUnboundScript@v8@@@ivm@@@0@@Z 000000018003d1d0 f i script_handle.obj
 0001:0003c280       ??$Invoke@$1?Release@ScriptHandle@ivm@@QEAA?AV?$Local@VValue@v8@@@v8@@XZ@?$MethodCast@P8ScriptHandle@ivm@@EAA?AV?$Local@VValue@v8@@@v8@@XZ@ClassHandle@ivm@@SA?AV?$Local@VValue@v8@@@v8@@PEAVScriptHandle@2@@Z 000000018003d280 f i script_handle.obj
 0001:0003c300       ??$ParameterizeEntry@$0?0P6A?AV?$Local@VValue@v8@@@v8@@PEAVScriptHandle@ivm@@@Z$1??$Invoke@$1?Release@ScriptHandle@ivm@@QEAA?AV?$Local@VValue@v8@@@v8@@XZ@?$MethodCast@P8ScriptHandle@ivm@@EAA?AV?$Local@VValue@v8@@@v8@@XZ@ClassHandle@4@SA?AV12@0@Z@ClassHandle@ivm@@CAXAEBV?$FunctionCallbackInfo@VValue@v8@@@v8@@@Z 000000018003d300 f i script_handle.obj
 0001:0003c310       ??$Run@$00URunRunner@ivm@@PEAVIsolateHolder@2@V?$shared_ptr@V?$RemoteHandle@VUnboundScript@v8@@@ivm@@@std@@AEAIAEAPEAVContextHandle@2@@ThreePhaseTask@ivm@@SA?AV?$Local@VValue@v8@@@v8@@AEAVIsolateHolder@1@$$QEAPEAV41@$$QEAV?$shared_ptr@V?$RemoteHandle@VUnboundScript@v8@@@ivm@@@std@@AEAIAEAPEAVContextHandle@1@@Z 000000018003d310 f i script_handle.obj
 0001:0003c6a0       ??$Invoke@$1??$Run@$00@ScriptHandle@ivm@@QEAA?AV?$Local@VValue@v8@@@v8@@PEAVContextHandle@2@V?$MaybeLocal@VObject@v8@@@4@@Z@?$MethodCast@P8ScriptHandle@ivm@@EAA?AV?$Local@VValue@v8@@@v8@@PEAVContextHandle@2@V?$MaybeLocal@VObject@v8@@@4@@Z@ClassHandle@ivm@@SA?AV?$Local@VValue@v8@@@v8@@PEAVScriptHandle@2@PEAVContextHandle@2@V?$MaybeLocal@VObject@v8@@@4@@Z 000000018003d6a0 f i script_handle.obj
 0001:0003c6d0       ??$ParameterizeEntry@$0?0P6A?AV?$Local@VValue@v8@@@v8@@PEAVScriptHandle@ivm@@PEAVContextHandle@4@V?$MaybeLocal@VObject@v8@@@2@@Z$1??$Invoke@$1??$Run@$00@ScriptHandle@ivm@@QEAA?AV?$Local@VValue@v8@@@v8@@PEAVContextHandle@2@V?$MaybeLocal@VObject@v8@@@4@@Z@?$MethodCast@P8ScriptHandle@ivm@@EAA?AV?$Local@VValue@v8@@@v8@@PEAVContextHandle@2@V?$MaybeLocal@VObject@v8@@@4@@Z@ClassHandle@4@SA?AV12@012@Z@ClassHandle@ivm@@CAXAEBV?$FunctionCallbackInfo@VValue@v8@@@v8@@@Z 000000018003d6d0 f i script_handle.obj
 0001:0003c6e0       ??$Run@$01URunRunner@ivm@@PEAVIsolateHolder@2@V?$shared_ptr@V?$RemoteHandle@VUnboundScript@v8@@@ivm@@@std@@AEAIAEAPEAVContextHandle@2@@ThreePhaseTask@ivm@@SA?AV?$Local@VValue@v8@@@v8@@AEAVIsolateHolder@1@$$QEAPEAV41@$$QEAV?$shared_ptr@V?$RemoteHandle@VUnboundScript@v8@@@ivm@@@std@@AEAIAEAPEAVContextHandle@1@@Z 000000018003d6e0 f i script_handle.obj
 0001:0003c8a0       ??$Invoke@$1??$Run@$01@ScriptHandle@ivm@@QEAA?AV?$Local@VValue@v8@@@v8@@PEAVContextHandle@2@V?$MaybeLocal@VObject@v8@@@4@@Z@?$MethodCast@P8ScriptHandle@ivm@@EAA?AV?$Local@VValue@v8@@@v8@@PEAVContextHandle@2@V?$MaybeLocal@VObject@v8@@@4@@Z@ClassHandle@ivm@@SA?AV?$Local@VValue@v8@@@v8@@PEAVScriptHandle@2@PEAVContextHandle@2@V?$MaybeLocal@VObject@v8@@@4@@Z 000000018003d8a0 f i script_handle.obj
 0001:0003c8d0       ??$ParameterizeEntry@$0?0P6A?AV?$Local@VValue@v8@@@v8@@PEAVScriptHandle@ivm@@PEAVContextHandle@4@V?$MaybeLocal@VObject@v8@@@2@@Z$1??$Invoke@$1??$Run@$01@ScriptHandle@ivm@@QEAA?AV?$Local@VValue@v8@@@v8@@PEAVContextHandle@2@V?$MaybeLocal@VObject@v8@@@4@@Z@?$MethodCast@P8ScriptHandle@ivm@@EAA?AV?$Local@VValue@v8@@@v8@@PEAVContextHandle@2@V?$MaybeLocal@VObject@v8@@@4@@Z@ClassHandle@4@SA?AV12@012@Z@ClassHandle@ivm@@CAXAEBV?$FunctionCallbackInfo@VValue@v8@@@v8@@@Z 000000018003d8d0 f i script_handle.obj
 0001:0003c8e0       ??$Run@$0A@URunRunner@ivm@@PEAVIsolateHolder@2@V?$shared_ptr@V?$RemoteHandle@VUnboundScript@v8@@@ivm@@@std@@AEAIAEAPEAVContextHandle@2@@ThreePhaseTask@ivm@@SA?AV?$Local@VValue@v8@@@v8@@AEAVIsolateHolder@1@$$QEAPEAV41@$$QEAV?$shared_ptr@V?$RemoteHandle@VUnboundScript@v8@@@ivm@@@std@@AEAIAEAPEAVContextHandle@1@@Z 000000018003d8e0 f i script_handle.obj
 0001:0003c980       ??$Invoke@$1??$Run@$0A@@ScriptHandle@ivm@@QEAA?AV?$Local@VValue@v8@@@v8@@PEAVContextHandle@2@V?$MaybeLocal@VObject@v8@@@4@@Z@?$MethodCast@P8ScriptHandle@ivm@@EAA?AV?$Local@VValue@v8@@@v8@@PEAVContextHandle@2@V?$MaybeLocal@VObject@v8@@@4@@Z@ClassHandle@ivm@@SA?AV?$Local@VValue@v8@@@v8@@PEAVScriptHandle@2@PEAVContextHandle@2@V?$MaybeLocal@VObject@v8@@@4@@Z 000000018003d980 f i script_handle.obj
 0001:0003c9b0       ??$ParameterizeEntry@$0?0P6A?AV?$Local@VValue@v8@@@v8@@PEAVScriptHandle@ivm@@PEAVContextHandle@4@V?$MaybeLocal@VObject@v8@@@2@@Z$1??$Invoke@$1??$Run@$0A@@ScriptHandle@ivm@@QEAA?AV?$Local@VValue@v8@@@v8@@PEAVContextHandle@2@V?$MaybeLocal@VObject@v8@@@4@@Z@?$MethodCast@P8ScriptHandle@ivm@@EAA?AV?$Local@VValue@v8@@@v8@@PEAVContextHandle@2@V?$MaybeLocal@VObject@v8@@@4@@Z@ClassHandle@4@SA?AV12@012@Z@ClassHandle@ivm@@CAXAEBV?$FunctionCallbackInfo@VValue@v8@@@v8@@@Z 000000018003d9b0 f i script_handle.obj
 0001:0003c9c0       ??$make_unique@Vtimer_t@ivm@@AEAIV<lambda_b4fd8a0b72873f3d6e69c2558d0e65ac>@@@std@@YA?AV?$unique_ptr@Vtimer_t@ivm@@U?$default_delete@Vtimer_t@ivm@@@std@@@0@AEAI$$QEAV<lambda_b4fd8a0b72873f3d6e69c2558d0e65ac>@@@Z 000000018003d9c0 f i script_handle.obj
 0001:0003ca60       ??$RunCallback@V<lambda_33621520081d68f1a4be5c8871c077c8>@@$$CBV?$FunctionCallbackInfo@VValue@v8@@@v8@@@FunctorRunners@ivm@@YAXAEBV?$FunctionCallbackInfo@VValue@v8@@@v8@@V<lambda_33621520081d68f1a4be5c8871c077c8>@@@Z 000000018003da60 f i script_handle.obj
 0001:0003cad0       ??$make_unique@URunRunner@ivm@@PEAVIsolateHolder@2@V?$shared_ptr@V?$RemoteHandle@VUnboundScript@v8@@@ivm@@@std@@AEAIAEAPEAVContextHandle@2@@std@@YA?AV?$unique_ptr@URunRunner@ivm@@U?$default_delete@URunRunner@ivm@@@std@@@0@$$QEAPEAVIsolateHolder@ivm@@$$QEAV?$shared_ptr@V?$RemoteHandle@VUnboundScript@v8@@@ivm@@@0@AEAIAEAPEAVContextHandle@3@@Z 000000018003dad0 f i script_handle.obj
 0001:0003cb70       ??$RunCatchValue@V<lambda_01d588b6f2f78da9fc5e213c3350c349>@@V<lambda_41edb13da2432c10c13cddfb469acbaf>@@@FunctorRunners@ivm@@YAXV<lambda_01d588b6f2f78da9fc5e213c3350c349>@@V<lambda_41edb13da2432c10c13cddfb469acbaf>@@@Z 000000018003db70 f i script_handle.obj
 0001:0003cbd0       ??$RunCallback@V<lambda_18e016a0f5261e4f0ef1d68d1e1bf91b>@@$$CBV?$FunctionCallbackInfo@VValue@v8@@@v8@@@FunctorRunners@ivm@@YAXAEBV?$FunctionCallbackInfo@VValue@v8@@@v8@@V<lambda_18e016a0f5261e4f0ef1d68d1e1bf91b>@@@Z 000000018003dbd0 f i script_handle.obj
 0001:0003cc90       ??$RunCallback@V<lambda_78a4f162de4008d61ff576e467dbdcb8>@@$$CBV?$FunctionCallbackInfo@VValue@v8@@@v8@@@FunctorRunners@ivm@@YAXAEBV?$FunctionCallbackInfo@VValue@v8@@@v8@@V<lambda_78a4f162de4008d61ff576e467dbdcb8>@@@Z 000000018003dc90 f i script_handle.obj
 0001:0003cd50       ??$RunCallback@V<lambda_de11c8ee12d06f3c284406618695952c>@@$$CBV?$FunctionCallbackInfo@VValue@v8@@@v8@@@FunctorRunners@ivm@@YAXAEBV?$FunctionCallbackInfo@VValue@v8@@@v8@@V<lambda_de11c8ee12d06f3c284406618695952c>@@@Z 000000018003dd50 f i script_handle.obj
 0001:0003ce10       ?Invoke@?$ConvertParamInvoke@U?$ConvertParam@PEAVScriptHandle@ivm@@@ivm@@$0?0$0A@@ivm@@SAPEAVScriptHandle@2@AEBV?$FunctionCallbackInfo@VValue@v8@@@v8@@@Z 000000018003de10 f i script_handle.obj
 0001:0003ce60       ?Invoke@?$ConvertParamInvoke@U?$ConvertParam@PEAVScriptHandle@ivm@@@ivm@@$0?0$01@ivm@@SAPEAVScriptHandle@2@AEBV?$FunctionCallbackInfo@VValue@v8@@@v8@@@Z 000000018003de60 f i script_handle.obj
 0001:0003ceb0       ?Convert@?$ConvertParam@PEAVScriptHandle@ivm@@@ivm@@SAPEAVScriptHandle@2@V?$Local@VValue@v8@@@v8@@@Z 000000018003deb0 f i script_handle.obj
 0001:0003cff0       ?Invoke@?$ConvertParamInvoke@U?$ConvertParam@PEAVContextHandle@ivm@@@ivm@@$0A@$01@ivm@@SAPEAVContextHandle@2@AEBV?$FunctionCallbackInfo@VValue@v8@@@v8@@@Z 000000018003dff0 f i script_handle.obj
 0001:0003d060       ?_Target_type@?$_Func_impl@V<lambda_b4fd8a0b72873f3d6e69c2558d0e65ac>@@V?$allocator@H@std@@XPEAX@std@@EEBAAEBVtype_info@@XZ 000000018003e060 f i script_handle.obj
 0001:0003d070       ?_Copy@?$_Func_impl@V<lambda_b4fd8a0b72873f3d6e69c2558d0e65ac>@@V?$allocator@H@std@@XPEAX@std@@EEBAPEAV?$_Func_base@XPEAX@2@PEAX@Z 000000018003e070 f i script_handle.obj
 0001:0003d070       ?_Move@?$_Func_impl@V<lambda_b4fd8a0b72873f3d6e69c2558d0e65ac>@@V?$allocator@H@std@@XPEAX@std@@EEAAPEAV?$_Func_base@XPEAX@2@PEAX@Z 000000018003e070 f i script_handle.obj
 0001:0003d0a0       ?Convert@?$ConvertParam@V?$Local@VFunction@v8@@@v8@@@ivm@@SA?AV?$Local@VFunction@v8@@@v8@@AEBV?$Local@VValue@v8@@@4@@Z 000000018003e0a0 f i module_handle.obj
 0001:0003d140       ??0ModuleInfo@ivm@@QEAA@V?$Local@VModule@v8@@@v8@@@Z 000000018003e140 f   module_handle.obj
 0001:0003d430       ??1?$unordered_map@V?$basic_string@DU?$char_traits@D@std@@V?$allocator@D@2@@std@@V?$shared_ptr@UModuleInfo@ivm@@@2@U?$hash@V?$basic_string@DU?$char_traits@D@std@@V?$allocator@D@2@@std@@@2@U?$equal_to@V?$basic_string@DU?$char_traits@D@std@@V?$allocator@D@2@@std@@@2@V?$allocator@U?$pair@$$CBV?$basic_string@DU?$char_traits@D@std@@V?$allocator@D@2@@std@@V?$shared_ptr@UModuleInfo@ivm@@@2@@std@@@2@@std@@QEAA@XZ 000000018003e430 f i module_handle.obj
 0001:0003d480       ??1?$RemoteHandle@VModule@v8@@@ivm@@QEAA@XZ 000000018003e480 f i module_handle.obj
 0001:0003d490       ??1ModuleInfo@ivm@@QEAA@XZ 000000018003e490 f   module_handle.obj
 0001:0003d770       ?TransferIn@ModuleHandleTransferable@ModuleHandle@ivm@@UEAA?AV?$Local@VValue@v8@@@v8@@XZ 000000018003e770 f   module_handle.obj
 0001:0003d7a0       ?Definition@ModuleHandle@ivm@@SA?AV?$Local@VFunctionTemplate@v8@@@v8@@XZ 000000018003e7a0 f   module_handle.obj
 0001:0003d8e0       ?TransferOut@ModuleHandle@ivm@@UEAA?AV?$unique_ptr@VTransferable@ivm@@U?$default_delete@VTransferable@ivm@@@std@@@std@@XZ 000000018003e8e0 f   module_handle.obj
 0001:0003d930       ?GetDependencySpecifiers@ModuleHandle@ivm@@QEAA?AV?$Local@VValue@v8@@@v8@@XZ 000000018003e930 f   module_handle.obj
 0001:0003daa0       ?GetInfo@ModuleHandle@ivm@@QEBA?AV?$shared_ptr@UModuleInfo@ivm@@@std@@XZ 000000018003eaa0 f   module_handle.obj
 0001:0003dc10       ?GetLinker@Implementation@ModuleLinker@ivm@@QEAAAEAV23@XZ 000000018003ec10 f i module_handle.obj
 0001:0003dc70       ??1ModuleLinker@ivm@@UEAA@XZ 000000018003ec70 f i module_handle.obj
 0001:0003dd30       ?Begin@ModuleLinker@ivm@@QEAA?AV?$Local@VValue@v8@@@v8@@PEAVModuleHandle@2@V?$shared_ptr@V?$RemoteHandle@VContext@v8@@@ivm@@@std@@@Z 000000018003ed30 f i module_handle.obj
 0001:0003ddc0       ?ResolveDependency@ModuleLinker@ivm@@QEAAX_KAEAUModuleInfo@2@PEAVModuleHandle@2@@Z 000000018003edc0 f i module_handle.obj
 0001:0003deb0       ?Link@ModuleLinker@ivm@@QEAAXPEAVModuleHandle@2@@Z 000000018003eeb0 f i module_handle.obj
 0001:0003e2c0       ?Reset@ModuleLinker@ivm@@QEAAXW4LinkStatus@ModuleInfo@2@@Z 000000018003f2c0 f i module_handle.obj
 0001:0003e450       ?ResolveCallback@InstantiateRunner@ivm@@SA?AV?$MaybeLocal@VModule@v8@@@v8@@V?$Local@VContext@v8@@@4@V?$Local@VString@v8@@@4@V?$Local@VModule@v8@@@4@@Z 000000018003f450 f i module_handle.obj
 0001:0003e860       ??0InstantiateRunner@ivm@@QEAA@V?$shared_ptr@V?$RemoteHandle@VContext@v8@@@ivm@@@std@@V?$shared_ptr@UModuleInfo@ivm@@@3@V?$Local@VObject@v8@@@v8@@@Z 000000018003f860 f i module_handle.obj
 0001:0003ea80       ?Phase2@InstantiateRunner@ivm@@UEAAXXZ 000000018003fa80 f i module_handle.obj
 0001:0003eba0       ?Phase3@InstantiateRunner@ivm@@UEAA?AV?$Local@VValue@v8@@@v8@@XZ 000000018003fba0 f i module_handle.obj
 0001:0003ec00       ?HandleCallbackReturn@ModuleLinkerSync@ivm@@EEAAXPEAVModuleHandle@2@_KV?$Local@VValue@v8@@@v8@@@Z 000000018003fc00 f i module_handle.obj
 0001:0003ee20       ?Begin@ModuleLinkerSync@ivm@@UEAA?AV?$Local@VValue@v8@@@v8@@PEAVModuleHandle@2@V?$shared_ptr@V?$RemoteHandle@VContext@v8@@@ivm@@@std@@@Z 000000018003fe20 f i module_handle.obj
 0001:0003ef90       ?ModuleResolved@ModuleLinkerAsync@ivm@@CA?AV?$Local@VValue@v8@@@v8@@V?$Local@VArray@v8@@@4@V34@@Z 000000018003ff90 f i module_handle.obj
 0001:0003f350       ?ModuleRejected@ModuleLinkerAsync@ivm@@CA?AV?$Local@VValue@v8@@@v8@@PEAVModuleLinker@2@V34@@Z 0000000180040350 f i module_handle.obj
 0001:0003f480       ?HandleCallbackReturn@ModuleLinkerAsync@ivm@@EEAAXPEAVModuleHandle@2@_KV?$Local@VValue@v8@@@v8@@@Z 0000000180040480 f i module_handle.obj
 0001:0003f740       ?Instantiate@ModuleLinkerAsync@ivm@@AEAAXXZ 0000000180040740 f i module_handle.obj
 0001:0003f7f0       ??0ModuleLinkerAsync@ivm@@QEAA@V?$Local@VObject@v8@@@v8@@@Z 00000001800407f0 f i module_handle.obj
 0001:0003f940       ?Begin@ModuleLinkerAsync@ivm@@UEAA?AV?$Local@VValue@v8@@@v8@@PEAVModuleHandle@2@V?$shared_ptr@V?$RemoteHandle@VContext@v8@@@ivm@@@std@@@Z 0000000180040940 f i module_handle.obj
 0001:0003fb00       ?Instantiate@ModuleHandle@ivm@@QEAA?AV?$Local@VValue@v8@@@v8@@PEAVContextHandle@2@V?$Local@VFunction@v8@@@4@@Z 0000000180040b00 f   module_handle.obj
 0001:0003fb90       ?InstantiateSync@ModuleHandle@ivm@@QEAA?AV?$Local@VValue@v8@@@v8@@PEAVContextHandle@2@V?$Local@VFunction@v8@@@4@@Z 0000000180040b90 f   module_handle.obj
 0001:0003fc20       ??0EvaluateRunner@ivm@@QEAA@V?$shared_ptr@UModuleInfo@ivm@@@std@@I@Z 0000000180040c20 f i module_handle.obj
 0001:0003fcb0       ?Phase2@EvaluateRunner@ivm@@UEAAXXZ 0000000180040cb0 f i module_handle.obj
 0001:0003ff90       ?Phase3@EvaluateRunner@ivm@@UEAA?AV?$Local@VValue@v8@@@v8@@XZ 0000000180040f90 f i module_handle.obj
 0001:0003ffd0       ?GetNamespace@ModuleHandle@ivm@@QEAA?AV?$Local@VValue@v8@@@v8@@XZ 0000000180040fd0 f   module_handle.obj
 0001:000401e0       ??_EModuleLinkerSync@ivm@@UEAAPEAXI@Z 00000001800411e0 f i * CIL library *:* CIL module *
 0001:000401e0       ??_EImplementation@ModuleLinker@ivm@@UEAAPEAXI@Z 00000001800411e0 f i * CIL library *:* CIL module *
 0001:000401e0       ??_GImplementation@ModuleLinker@ivm@@UEAAPEAXI@Z 00000001800411e0 f i module_handle.obj
 0001:000401e0       ??_GModuleLinkerSync@ivm@@UEAAPEAXI@Z 00000001800411e0 f i module_handle.obj
 0001:00040220       ??1Implementation@ModuleLinker@ivm@@UEAA@XZ 0000000180041220 f i module_handle.obj
 0001:00040230       ??_GModuleLinker@ivm@@UEAAPEAXI@Z 0000000180041230 f i module_handle.obj
 0001:00040230       ??_EModuleLinker@ivm@@UEAAPEAXI@Z 0000000180041230 f i * CIL library *:* CIL module *
 0001:00040270       ??_GInstantiateRunner@ivm@@UEAAPEAXI@Z 0000000180041270 f i module_handle.obj
 0001:00040270       ??_EInstantiateRunner@ivm@@UEAAPEAXI@Z 0000000180041270 f i * CIL library *:* CIL module *
 0001:000402b0       ??1InstantiateRunner@ivm@@UEAA@XZ 00000001800412b0 f i module_handle.obj
 0001:00040350       ??_EModuleLinkerAsync@ivm@@UEAAPEAXI@Z 0000000180041350 f i * CIL library *:* CIL module *
 0001:00040350       ??_GModuleLinkerAsync@ivm@@UEAAPEAXI@Z 0000000180041350 f i module_handle.obj
 0001:00040390       ??1ModuleLinkerAsync@ivm@@UEAA@XZ 0000000180041390 f i module_handle.obj
 0001:00040440       ??_GEvaluateRunner@ivm@@UEAAPEAXI@Z 0000000180041440 f i module_handle.obj
 0001:00040440       ??_EEvaluateRunner@ivm@@UEAAPEAXI@Z 0000000180041440 f i * CIL library *:* CIL module *
 0001:00040480       ??1EvaluateRunner@ivm@@UEAA@XZ 0000000180041480 f i module_handle.obj
 0001:000404f0       ??1?$RemoteTuple@VResolver@Promise@v8@@VFunction@3@@ivm@@QEAA@XZ 00000001800414f0 f i module_handle.obj
 0001:000405c0       ??0?$RemoteTuple@VResolver@Promise@v8@@VFunction@3@@ivm@@QEAA@V?$Local@VResolver@Promise@v8@@@v8@@V?$Local@VFunction@v8@@@3@@Z 00000001800415c0 f i module_handle.obj
 0001:000406a0       ??1?$RemoteTuple@VFunction@v8@@@ivm@@QEAA@XZ 00000001800416a0 f i module_handle.obj
 0001:00040760       ??1?$RemoteTuple@VModule@v8@@@ivm@@QEAA@XZ 0000000180041760 f i module_handle.obj
 0001:00040820       ??0?$unordered_map@V?$basic_string@DU?$char_traits@D@std@@V?$allocator@D@2@@std@@V?$shared_ptr@UModuleInfo@ivm@@@2@U?$hash@V?$basic_string@DU?$char_traits@D@std@@V?$allocator@D@2@@std@@@2@U?$equal_to@V?$basic_string@DU?$char_traits@D@std@@V?$allocator@D@2@@std@@@2@V?$allocator@U?$pair@$$CBV?$basic_string@DU?$char_traits@D@std@@V?$allocator@D@2@@std@@V?$shared_ptr@UModuleInfo@ivm@@@2@@std@@@2@@std@@QEAA@XZ 0000000180041820 f i module_handle.obj
 0001:000408b0       ??1?$vector@V?$basic_string@DU?$char_traits@D@std@@V?$allocator@D@2@@std@@V?$allocator@V?$basic_string@DU?$char_traits@D@std@@V?$allocator@D@2@@std@@@2@@std@@QEAA@XZ 00000001800418b0 f i module_handle.obj
 0001:000408f0       ?erase@?$_Hash@V?$_Umap_traits@HPEAUModuleInfo@ivm@@V?$_Uhash_compare@HU?$hash@H@std@@U?$equal_to@H@2@@std@@V?$allocator@U?$pair@$$CBHPEAUModuleInfo@ivm@@@std@@@4@$00@std@@@std@@QEAA?AV?$_List_iterator@V?$_List_val@U?$_List_simple_types@U?$pair@$$CBHPEAUModuleInfo@ivm@@@std@@@std@@@std@@@2@V?$_List_const_iterator@V?$_List_val@U?$_List_simple_types@U?$pair@$$CBHPEAUModuleInfo@ivm@@@std@@@std@@@std@@@2@@Z 00000001800418f0 f i module_handle.obj
 0001:000409d0       ?Run@DisposalTask@?$RemoteTuple@VResolver@Promise@v8@@VFunction@3@@ivm@@UEAAXXZ 00000001800419d0 f i module_handle.obj
 0001:00040a50       ?clear@?$list@U?$pair@$$CBV?$basic_string@DU?$char_traits@D@std@@V?$allocator@D@2@@std@@V?$shared_ptr@UModuleInfo@ivm@@@2@@std@@V?$allocator@U?$pair@$$CBV?$basic_string@DU?$char_traits@D@std@@V?$allocator@D@2@@std@@V?$shared_ptr@UModuleInfo@ivm@@@2@@std@@@2@@std@@QEAAXXZ 0000000180041a50 f i module_handle.obj
 0001:00040b70       ??1?$list@U?$pair@$$CBV?$basic_string@DU?$char_traits@D@std@@V?$allocator@D@2@@std@@V?$shared_ptr@UModuleInfo@ivm@@@2@@std@@V?$allocator@U?$pair@$$CBV?$basic_string@DU?$char_traits@D@std@@V?$allocator@D@2@@std@@V?$shared_ptr@UModuleInfo@ivm@@@2@@std@@@2@@std@@QEAA@XZ 0000000180041b70 f i module_handle.obj
 0001:00040b90       ?lower_bound@?$_Hash@V?$_Umap_traits@V?$basic_string@DU?$char_traits@D@std@@V?$allocator@D@2@@std@@V?$shared_ptr@UModuleInfo@ivm@@@2@V?$_Uhash_compare@V?$basic_string@DU?$char_traits@D@std@@V?$allocator@D@2@@std@@U?$hash@V?$basic_string@DU?$char_traits@D@std@@V?$allocator@D@2@@std@@@2@U?$equal_to@V?$basic_string@DU?$char_traits@D@std@@V?$allocator@D@2@@std@@@2@@2@V?$allocator@U?$pair@$$CBV?$basic_string@DU?$char_traits@D@std@@V?$allocator@D@2@@std@@V?$shared_ptr@UModuleInfo@ivm@@@2@@std@@@2@$0A@@std@@@std@@QEAA?AV?$_List_iterator@V?$_List_val@U?$_List_simple_types@U?$pair@$$CBV?$basic_string@DU?$char_traits@D@std@@V?$allocator@D@2@@std@@V?$shared_ptr@UModuleInfo@ivm@@@2@@std@@@std@@@std@@@2@AEBV?$basic_string@DU?$char_traits@D@std@@V?$allocator@D@2@@2@@Z 0000000180041b90 f i module_handle.obj
 0001:00040d00       ?_Reallocate@?$vector@V?$basic_string@DU?$char_traits@D@std@@V?$allocator@D@2@@std@@V?$allocator@V?$basic_string@DU?$char_traits@D@std@@V?$allocator@D@2@@std@@@2@@std@@IEAAX_K@Z 0000000180041d00 f i module_handle.obj
 0001:00040e30       ??$NewInstance@VModuleHandle@ivm@@AEAV?$shared_ptr@UModuleInfo@ivm@@@std@@@ClassHandle@ivm@@SA?AV?$Local@VObject@v8@@@v8@@AEAV?$shared_ptr@UModuleInfo@ivm@@@std@@@Z 0000000180041e30 f i module_handle.obj
 0001:00040f10       ??$Evaluate@$00@ModuleHandle@ivm@@QEAA?AV?$Local@VValue@v8@@@v8@@V?$MaybeLocal@VObject@v8@@@3@@Z 0000000180041f10 f i module_handle.obj
 0001:000411d0       ??$Evaluate@$0A@@ModuleHandle@ivm@@QEAA?AV?$Local@VValue@v8@@@v8@@V?$MaybeLocal@VObject@v8@@@3@@Z 00000001800421d0 f i module_handle.obj
 0001:00041490       ??$MakeClass@PEBDU?$pair@P6AXV?$Local@VString@v8@@@v8@@AEBV?$PropertyCallbackInfo@VValue@v8@@@2@@ZP6AX0V?$Local@VValue@v8@@@2@AEBV?$PropertyCallbackInfo@X@2@@Z@std@@PEBDU?$pair@P6AXAEBV?$FunctionCallbackInfo@VValue@v8@@@v8@@@ZH@2@PEBDU32@PEBDU32@PEBDU32@PEBDU12@@ClassHandle@ivm@@KA?AV?$Local@VFunctionTemplate@v8@@@v8@@PEBDUCtorFunction@01@0U?$pair@P6AXV?$Local@VString@v8@@@v8@@AEBV?$PropertyCallbackInfo@VValue@v8@@@2@@ZP6AX0V?$Local@VValue@v8@@@2@AEBV?$PropertyCallbackInfo@X@2@@Z@std@@0U?$pair@P6AXAEBV?$FunctionCallbackInfo@VValue@v8@@@v8@@@ZH@6@03030302@Z 0000000180042490 f i module_handle.obj
 0001:00041980       ??$make_unique@VModuleHandleTransferable@ModuleHandle@ivm@@AEAV?$shared_ptr@UModuleInfo@ivm@@@std@@@std@@YA?AV?$unique_ptr@VModuleHandleTransferable@ModuleHandle@ivm@@U?$default_delete@VModuleHandleTransferable@ModuleHandle@ivm@@@std@@@0@AEAV?$shared_ptr@UModuleInfo@ivm@@@0@@Z 0000000180042980 f i module_handle.obj
 0001:00041a10       ??$Unwrap@VModuleLinker@ivm@@@ClassHandle@ivm@@SAPEAVModuleLinker@1@V?$Local@VObject@v8@@@v8@@@Z 0000000180042a10 f i module_handle.obj
 0001:00041ae0       ??$RunBarrier@V<lambda_d3d30b5fff1c45e731207b11ccd1b9c1>@@@FunctorRunners@ivm@@YAXV<lambda_d3d30b5fff1c45e731207b11ccd1b9c1>@@@Z 0000000180042ae0 f i module_handle.obj
 0001:00041b00       ??$Unwrap@VModuleHandle@ivm@@@ClassHandle@ivm@@SAPEAVModuleHandle@1@V?$Local@VObject@v8@@@v8@@@Z 0000000180042b00 f i module_handle.obj
 0001:00041bd0       ??$Run@$0A@UInstantiateRunner@ivm@@AEAV?$shared_ptr@V?$RemoteHandle@VContext@v8@@@ivm@@@std@@AEAV?$shared_ptr@UModuleInfo@ivm@@@4@V?$Local@VObject@v8@@@v8@@@ThreePhaseTask@ivm@@SA?AV?$Local@VValue@v8@@@v8@@AEAVIsolateHolder@1@AEAV?$shared_ptr@V?$RemoteHandle@VContext@v8@@@ivm@@@std@@AEAV?$shared_ptr@UModuleInfo@ivm@@@6@$$QEAV?$Local@VObject@v8@@@3@@Z 0000000180042bd0 f i module_handle.obj
 0001:00041ca0       ??$RunBarrier@V<lambda_7df8e72c1e394764d7cede97922ff7a3>@@@FunctorRunners@ivm@@YAXV<lambda_7df8e72c1e394764d7cede97922ff7a3>@@@Z 0000000180042ca0 f i module_handle.obj
 0001:00041cc0       ??$RunBarrier@V<lambda_702f075e95e2db2f2cf85945ebad26a8>@@@FunctorRunners@ivm@@YAXV<lambda_702f075e95e2db2f2cf85945ebad26a8>@@@Z 0000000180042cc0 f i module_handle.obj
 0001:00041ce0       ??$Run@$00UInstantiateRunner@ivm@@AEAV?$shared_ptr@V?$RemoteHandle@VContext@v8@@@ivm@@@std@@AEAV?$shared_ptr@UModuleInfo@ivm@@@4@V?$Local@VObject@v8@@@v8@@@ThreePhaseTask@ivm@@SA?AV?$Local@VValue@v8@@@v8@@AEAVIsolateHolder@1@AEAV?$shared_ptr@V?$RemoteHandle@VContext@v8@@@ivm@@@std@@AEAV?$shared_ptr@UModuleInfo@ivm@@@6@$$QEAV?$Local@VObject@v8@@@3@@Z 0000000180042ce0 f i module_handle.obj
 0001:00042050       ??$NewInstance@VModuleLinker@ivm@@AEAV?$Local@VFunction@v8@@@v8@@@ClassHandle@ivm@@SA?AV?$Local@VObject@v8@@@v8@@AEAV?$Local@VFunction@v8@@@3@@Z 0000000180043050 f i module_handle.obj
 0001:00042130       ??$SetImplementation@VModuleLinkerAsync@ivm@@@ModuleLinker@ivm@@QEAAXXZ 0000000180043130 f i module_handle.obj
 0001:000421b0       ??$SetImplementation@VModuleLinkerSync@ivm@@@ModuleLinker@ivm@@QEAAXXZ 00000001800431b0 f i module_handle.obj
 0001:00042230       ??$RunWithTimeout@V<lambda_d1cb59b73c5f16b312b351f562de1378>@@@ivm@@YA?AV?$Local@VValue@v8@@@v8@@I$$QEAV<lambda_d1cb59b73c5f16b312b351f562de1378>@@@Z 0000000180043230 f i module_handle.obj
 0001:00042620       ??$make_unique@UDisposalTask@?$RemoteTuple@VResolver@Promise@v8@@VFunction@3@@ivm@@V?$tuple@V?$unique_ptr@V?$Persistent@VResolver@Promise@v8@@V?$NonCopyablePersistentTraits@VResolver@Promise@v8@@@3@@v8@@U?$default_delete@V?$Persistent@VResolver@Promise@v8@@V?$NonCopyablePersistentTraits@VResolver@Promise@v8@@@3@@v8@@@std@@@std@@V?$unique_ptr@V?$Persistent@VFunction@v8@@V?$NonCopyablePersistentTraits@VFunction@v8@@@2@@v8@@U?$default_delete@V?$Persistent@VFunction@v8@@V?$NonCopyablePersistentTraits@VFunction@v8@@@2@@v8@@@std@@@2@@std@@@std@@YA?AV?$unique_ptr@UDisposalTask@?$RemoteTuple@VResolver@Promise@v8@@VFunction@3@@ivm@@U?$default_delete@UDisposalTask@?$RemoteTuple@VResolver@Promise@v8@@VFunction@3@@ivm@@@std@@@0@$$QEAV?$tuple@V?$unique_ptr@V?$Persistent@VResolver@Promise@v8@@V?$NonCopyablePersistentTraits@VResolver@Promise@v8@@@3@@v8@@U?$default_delete@V?$Persistent@VResolver@Promise@v8@@V?$NonCopyablePersistentTraits@VResolver@Promise@v8@@@3@@v8@@@std@@@std@@V?$unique_ptr@V?$Persistent@VFunction@v8@@V?$NonCopyablePersistentTraits@VFunction@v8@@@2@@v8@@U?$default_delete@V?$Persistent@VFunction@v8@@V?$NonCopyablePersistentTraits@VFunction@v8@@@2@@v8@@@std@@@2@@0@@Z 0000000180043620 f i module_handle.obj
 0001:00042680       ??$make_unique@UDisposalTask@?$RemoteTuple@VFunction@v8@@@ivm@@V?$tuple@V?$unique_ptr@V?$Persistent@VFunction@v8@@V?$NonCopyablePersistentTraits@VFunction@v8@@@2@@v8@@U?$default_delete@V?$Persistent@VFunction@v8@@V?$NonCopyablePersistentTraits@VFunction@v8@@@2@@v8@@@std@@@std@@@std@@@std@@YA?AV?$unique_ptr@UDisposalTask@?$RemoteTuple@VFunction@v8@@@ivm@@U?$default_delete@UDisposalTask@?$RemoteTuple@VFunction@v8@@@ivm@@@std@@@0@$$QEAV?$tuple@V?$unique_ptr@V?$Persistent@VFunction@v8@@V?$NonCopyablePersistentTraits@VFunction@v8@@@2@@v8@@U?$default_delete@V?$Persistent@VFunction@v8@@V?$NonCopyablePersistentTraits@VFunction@v8@@@2@@v8@@@std@@@std@@@0@@Z 0000000180043680 f i module_handle.obj
 0001:000426d0       ??$make_unique@UDisposalTask@?$RemoteTuple@VModule@v8@@@ivm@@V?$tuple@V?$unique_ptr@V?$Persistent@VModule@v8@@V?$NonCopyablePersistentTraits@VModule@v8@@@2@@v8@@U?$default_delete@V?$Persistent@VModule@v8@@V?$NonCopyablePersistentTraits@VModule@v8@@@2@@v8@@@std@@@std@@@std@@@std@@YA?AV?$unique_ptr@UDisposalTask@?$RemoteTuple@VModule@v8@@@ivm@@U?$default_delete@UDisposalTask@?$RemoteTuple@VModule@v8@@@ivm@@@std@@@0@$$QEAV?$tuple@V?$unique_ptr@V?$Persistent@VModule@v8@@V?$NonCopyablePersistentTraits@VModule@v8@@@2@@v8@@U?$default_delete@V?$Persistent@VModule@v8@@V?$NonCopyablePersistentTraits@VModule@v8@@@2@@v8@@@std@@@std@@@0@@Z 00000001800436d0 f i module_handle.obj
 0001:00042720       ?_Reserve@?$vector@V?$shared_ptr@UModuleInfo@ivm@@@std@@V?$allocator@V?$shared_ptr@UModuleInfo@ivm@@@std@@@2@@std@@IEAAX_K@Z 0000000180043720 f i module_handle.obj
 0001:000427b0       ??_GDisposalTask@?$RemoteTuple@VResolver@Promise@v8@@VFunction@3@@ivm@@UEAAPEAXI@Z 00000001800437b0 f i module_handle.obj
 0001:000427b0       ??_EDisposalTask@?$RemoteTuple@VResolver@Promise@v8@@VFunction@3@@ivm@@UEAAPEAXI@Z 00000001800437b0 f i * CIL library *:* CIL module *
 0001:00042820       ??$make_unique@VModuleHandle@ivm@@AEAV?$shared_ptr@UModuleInfo@ivm@@@std@@@std@@YA?AV?$unique_ptr@VModuleHandle@ivm@@U?$default_delete@VModuleHandle@ivm@@@std@@@0@AEAV?$shared_ptr@UModuleInfo@ivm@@@0@@Z 0000000180043820 f i module_handle.obj
 0001:000428b0       ??$Invoke@$1?GetDependencySpecifiers@ModuleHandle@ivm@@QEAA?AV?$Local@VValue@v8@@@v8@@XZ@?$MethodCast@P8ModuleHandle@ivm@@EAA?AV?$Local@VValue@v8@@@v8@@XZ@ClassHandle@ivm@@SA?AV?$Local@VValue@v8@@@v8@@PEAVModuleHandle@2@@Z 00000001800438b0 f i module_handle.obj
 0001:000428e0       ??$ParameterizeGetterEntry@P6A?AV?$Local@VValue@v8@@@v8@@PEAVModuleHandle@ivm@@@Z$1??$Invoke@$1?GetDependencySpecifiers@ModuleHandle@ivm@@QEAA?AV?$Local@VValue@v8@@@v8@@XZ@?$MethodCast@P8ModuleHandle@ivm@@EAA?AV?$Local@VValue@v8@@@v8@@XZ@ClassHandle@4@SA?AV12@0@Z@ClassHandle@ivm@@CAXV?$Local@VString@v8@@@v8@@AEBV?$PropertyCallbackInfo@VValue@v8@@@3@@Z 00000001800438e0 f i module_handle.obj
 0001:00042900       ??$Invoke@$1?Instantiate@ModuleHandle@ivm@@QEAA?AV?$Local@VValue@v8@@@v8@@PEAVContextHandle@3@V?$Local@VFunction@v8@@@5@@Z@?$MethodCast@P8ModuleHandle@ivm@@EAA?AV?$Local@VValue@v8@@@v8@@PEAVContextHandle@2@V?$Local@VFunction@v8@@@4@@Z@ClassHandle@ivm@@SA?AV?$Local@VValue@v8@@@v8@@PEAVModuleHandle@2@PEAVContextHandle@2@V?$Local@VFunction@v8@@@4@@Z 0000000180043900 f i module_handle.obj
 0001:00042930       ??$ParameterizeEntry@$0?0P6A?AV?$Local@VValue@v8@@@v8@@PEAVModuleHandle@ivm@@PEAVContextHandle@4@V?$Local@VFunction@v8@@@2@@Z$1??$Invoke@$1?Instantiate@ModuleHandle@ivm@@QEAA?AV?$Local@VValue@v8@@@v8@@PEAVContextHandle@3@V?$Local@VFunction@v8@@@5@@Z@?$MethodCast@P8ModuleHandle@ivm@@EAA?AV?$Local@VValue@v8@@@v8@@PEAVContextHandle@2@V?$Local@VFunction@v8@@@4@@Z@ClassHandle@4@SA?AV12@012@Z@ClassHandle@ivm@@CAXAEBV?$FunctionCallbackInfo@VValue@v8@@@v8@@@Z 0000000180043930 f i module_handle.obj
 0001:00042940       ??$Invoke@$1?InstantiateSync@ModuleHandle@ivm@@QEAA?AV?$Local@VValue@v8@@@v8@@PEAVContextHandle@3@V?$Local@VFunction@v8@@@5@@Z@?$MethodCast@P8ModuleHandle@ivm@@EAA?AV?$Local@VValue@v8@@@v8@@PEAVContextHandle@2@V?$Local@VFunction@v8@@@4@@Z@ClassHandle@ivm@@SA?AV?$Local@VValue@v8@@@v8@@PEAVModuleHandle@2@PEAVContextHandle@2@V?$Local@VFunction@v8@@@4@@Z 0000000180043940 f i module_handle.obj
 0001:00042970       ??$ParameterizeEntry@$0?0P6A?AV?$Local@VValue@v8@@@v8@@PEAVModuleHandle@ivm@@PEAVContextHandle@4@V?$Local@VFunction@v8@@@2@@Z$1??$Invoke@$1?InstantiateSync@ModuleHandle@ivm@@QEAA?AV?$Local@VValue@v8@@@v8@@PEAVContextHandle@3@V?$Local@VFunction@v8@@@5@@Z@?$MethodCast@P8ModuleHandle@ivm@@EAA?AV?$Local@VValue@v8@@@v8@@PEAVContextHandle@2@V?$Local@VFunction@v8@@@4@@Z@ClassHandle@4@SA?AV12@012@Z@ClassHandle@ivm@@CAXAEBV?$FunctionCallbackInfo@VValue@v8@@@v8@@@Z 0000000180043970 f i module_handle.obj
 0001:00042980       ??$Run@$00UEvaluateRunner@ivm@@AEAV?$shared_ptr@UModuleInfo@ivm@@@std@@AEAI@ThreePhaseTask@ivm@@SA?AV?$Local@VValue@v8@@@v8@@AEAVIsolateHolder@1@AEAV?$shared_ptr@UModuleInfo@ivm@@@std@@AEAI@Z 0000000180043980 f i module_handle.obj
 0001:00042cd0       ??$Invoke@$1??$Evaluate@$00@ModuleHandle@ivm@@QEAA?AV?$Local@VValue@v8@@@v8@@V?$MaybeLocal@VObject@v8@@@4@@Z@?$MethodCast@P8ModuleHandle@ivm@@EAA?AV?$Local@VValue@v8@@@v8@@V?$MaybeLocal@VObject@v8@@@4@@Z@ClassHandle@ivm@@SA?AV?$Local@VValue@v8@@@v8@@PEAVModuleHandle@2@V?$MaybeLocal@VObject@v8@@@4@@Z 0000000180043cd0 f i module_handle.obj
 0001:00042d00       ??$ParameterizeEntry@$0?0P6A?AV?$Local@VValue@v8@@@v8@@PEAVModuleHandle@ivm@@V?$MaybeLocal@VObject@v8@@@2@@Z$1??$Invoke@$1??$Evaluate@$00@ModuleHandle@ivm@@QEAA?AV?$Local@VValue@v8@@@v8@@V?$MaybeLocal@VObject@v8@@@4@@Z@?$MethodCast@P8ModuleHandle@ivm@@EAA?AV?$Local@VValue@v8@@@v8@@V?$MaybeLocal@VObject@v8@@@4@@Z@ClassHandle@4@SA?AV12@01@Z@ClassHandle@ivm@@CAXAEBV?$FunctionCallbackInfo@VValue@v8@@@v8@@@Z 0000000180043d00 f i module_handle.obj
 0001:00042d10       ??$Run@$0A@UEvaluateRunner@ivm@@AEAV?$shared_ptr@UModuleInfo@ivm@@@std@@AEAI@ThreePhaseTask@ivm@@SA?AV?$Local@VValue@v8@@@v8@@AEAVIsolateHolder@1@AEAV?$shared_ptr@UModuleInfo@ivm@@@std@@AEAI@Z 0000000180043d10 f i module_handle.obj
 0001:00042e00       ??$Invoke@$1??$Evaluate@$0A@@ModuleHandle@ivm@@QEAA?AV?$Local@VValue@v8@@@v8@@V?$MaybeLocal@VObject@v8@@@4@@Z@?$MethodCast@P8ModuleHandle@ivm@@EAA?AV?$Local@VValue@v8@@@v8@@V?$MaybeLocal@VObject@v8@@@4@@Z@ClassHandle@ivm@@SA?AV?$Local@VValue@v8@@@v8@@PEAVModuleHandle@2@V?$MaybeLocal@VObject@v8@@@4@@Z 0000000180043e00 f i module_handle.obj
 0001:00042e30       ??$ParameterizeEntry@$0?0P6A?AV?$Local@VValue@v8@@@v8@@PEAVModuleHandle@ivm@@V?$MaybeLocal@VObject@v8@@@2@@Z$1??$Invoke@$1??$Evaluate@$0A@@ModuleHandle@ivm@@QEAA?AV?$Local@VValue@v8@@@v8@@V?$MaybeLocal@VObject@v8@@@4@@Z@?$MethodCast@P8ModuleHandle@ivm@@EAA?AV?$Local@VValue@v8@@@v8@@V?$MaybeLocal@VObject@v8@@@4@@Z@ClassHandle@4@SA?AV12@01@Z@ClassHandle@ivm@@CAXAEBV?$FunctionCallbackInfo@VValue@v8@@@v8@@@Z 0000000180043e30 f i module_handle.obj
 0001:00042e40       ??$Invoke@$1?GetNamespace@ModuleHandle@ivm@@QEAA?AV?$Local@VValue@v8@@@v8@@XZ@?$MethodCast@P8ModuleHandle@ivm@@EAA?AV?$Local@VValue@v8@@@v8@@XZ@ClassHandle@ivm@@SA?AV?$Local@VValue@v8@@@v8@@PEAVModuleHandle@2@@Z 0000000180043e40 f i module_handle.obj
 0001:00042e70       ??$ParameterizeGetterEntry@P6A?AV?$Local@VValue@v8@@@v8@@PEAVModuleHandle@ivm@@@Z$1??$Invoke@$1?GetNamespace@ModuleHandle@ivm@@QEAA?AV?$Local@VValue@v8@@@v8@@XZ@?$MethodCast@P8ModuleHandle@ivm@@EAA?AV?$Local@VValue@v8@@@v8@@XZ@ClassHandle@4@SA?AV12@0@Z@ClassHandle@ivm@@CAXV?$Local@VString@v8@@@v8@@AEBV?$PropertyCallbackInfo@VValue@v8@@@3@@Z 0000000180043e70 f i module_handle.obj
 0001:00042e90       ??$GetFunctionTemplate@VModuleLinker@ivm@@@ClassHandle@ivm@@SA?AV?$Local@VFunctionTemplate@v8@@@v8@@XZ 0000000180043e90 f i module_handle.obj
 0001:00042fb0       ??$make_unique@UInstantiateRunner@ivm@@AEAV?$shared_ptr@V?$RemoteHandle@VContext@v8@@@ivm@@@std@@AEAV?$shared_ptr@UModuleInfo@ivm@@@4@V?$Local@VObject@v8@@@v8@@@std@@YA?AV?$unique_ptr@UInstantiateRunner@ivm@@U?$default_delete@UInstantiateRunner@ivm@@@std@@@0@AEAV?$shared_ptr@V?$RemoteHandle@VContext@v8@@@ivm@@@0@AEAV?$shared_ptr@UModuleInfo@ivm@@@0@$$QEAV?$Local@VObject@v8@@@v8@@@Z 0000000180043fb0 f i module_handle.obj
 0001:00043070       ??$ParameterizeEntry@$0?1P6A?AV?$Local@VValue@v8@@@v8@@V?$Local@VArray@v8@@@2@V12@@Z$1?ModuleResolved@ModuleLinkerAsync@ivm@@CA?AV12@01@Z@ClassHandle@ivm@@CAXAEBV?$FunctionCallbackInfo@VValue@v8@@@v8@@@Z 0000000180044070 f i module_handle.obj
 0001:00043080       ??$RunCatchValue@V<lambda_c2f61c468d17a257ea11f1b8b10c3a23>@@V<lambda_96836cfe38ab8a4c6a1bb2e3d4408151>@@@FunctorRunners@ivm@@YAXV<lambda_c2f61c468d17a257ea11f1b8b10c3a23>@@V<lambda_96836cfe38ab8a4c6a1bb2e3d4408151>@@@Z 0000000180044080 f i module_handle.obj
 0001:000430e0       ??$ParameterizeEntry@$0?1P6A?AV?$Local@VValue@v8@@@v8@@PEAVModuleLinker@ivm@@V12@@Z$1?ModuleRejected@ModuleLinkerAsync@4@CA?AV12@01@Z@ClassHandle@ivm@@CAXAEBV?$FunctionCallbackInfo@VValue@v8@@@v8@@@Z 00000001800440e0 f i module_handle.obj
 0001:000430f0       ??$make_unique@VModuleLinker@ivm@@AEAV?$Local@VFunction@v8@@@v8@@@std@@YA?AV?$unique_ptr@VModuleLinker@ivm@@U?$default_delete@VModuleLinker@ivm@@@std@@@0@AEAV?$Local@VFunction@v8@@@v8@@@Z 00000001800440f0 f i module_handle.obj
 0001:00043170       ??$make_unique@VModuleLinkerAsync@ivm@@V?$Local@VObject@v8@@@v8@@@std@@YA?AV?$unique_ptr@VModuleLinkerAsync@ivm@@U?$default_delete@VModuleLinkerAsync@ivm@@@std@@@0@$$QEAV?$Local@VObject@v8@@@v8@@@Z 0000000180044170 f i module_handle.obj
 0001:000431d0       ??$make_unique@VModuleLinkerSync@ivm@@V?$Local@VObject@v8@@@v8@@@std@@YA?AV?$unique_ptr@VModuleLinkerSync@ivm@@U?$default_delete@VModuleLinkerSync@ivm@@@std@@@0@$$QEAV?$Local@VObject@v8@@@v8@@@Z 00000001800441d0 f i module_handle.obj
 0001:00043250       ??$make_unique@Vtimer_t@ivm@@AEAIV<lambda_8c25eeb07f20d2561780259604f13fe2>@@@std@@YA?AV?$unique_ptr@Vtimer_t@ivm@@U?$default_delete@Vtimer_t@ivm@@@std@@@0@AEAI$$QEAV<lambda_8c25eeb07f20d2561780259604f13fe2>@@@Z 0000000180044250 f i module_handle.obj
 0001:000432f0       ??$_Try_emplace@AEBV?$basic_string@DU?$char_traits@D@std@@V?$allocator@D@2@@std@@$$V@?$unordered_map@V?$basic_string@DU?$char_traits@D@std@@V?$allocator@D@2@@std@@V?$shared_ptr@UModuleInfo@ivm@@@2@U?$hash@V?$basic_string@DU?$char_traits@D@std@@V?$allocator@D@2@@std@@@2@U?$equal_to@V?$basic_string@DU?$char_traits@D@std@@V?$allocator@D@2@@std@@@2@V?$allocator@U?$pair@$$CBV?$basic_string@DU?$char_traits@D@std@@V?$allocator@D@2@@std@@V?$shared_ptr@UModuleInfo@ivm@@@2@@std@@@2@@std@@QEAA?AU?$pair@V?$_List_iterator@V?$_List_val@U?$_List_simple_types@U?$pair@$$CBV?$basic_string@DU?$char_traits@D@std@@V?$allocator@D@2@@std@@V?$shared_ptr@UModuleInfo@ivm@@@2@@std@@@std@@@std@@@std@@_N@1@AEBV?$basic_string@DU?$char_traits@D@std@@V?$allocator@D@2@@1@@Z 00000001800442f0 f i module_handle.obj
 0001:00043420       ??$_Destroy_range1@V?$allocator@V?$basic_string@DU?$char_traits@D@std@@V?$allocator@D@2@@std@@@std@@PEAV?$basic_string@DU?$char_traits@D@std@@V?$allocator@D@2@@2@@std@@YAXPEAV?$basic_string@DU?$char_traits@D@std@@V?$allocator@D@2@@0@0AEAU?$_Wrap_alloc@V?$allocator@V?$basic_string@DU?$char_traits@D@std@@V?$allocator@D@2@@std@@@std@@@0@U?$integral_constant@_N$0A@@0@@Z 0000000180044420 f i module_handle.obj
 0001:000434e0       ??$_Insert@AEAU?$pair@$$CBHPEAUModuleInfo@ivm@@@std@@V?$_List_unchecked_iterator@V?$_List_val@U?$_List_simple_types@U?$pair@$$CBHPEAUModuleInfo@ivm@@@std@@@std@@@std@@@2@@?$_Hash@V?$_Umap_traits@HPEAUModuleInfo@ivm@@V?$_Uhash_compare@HU?$hash@H@std@@U?$equal_to@H@2@@std@@V?$allocator@U?$pair@$$CBHPEAUModuleInfo@ivm@@@std@@@4@$00@std@@@std@@IEAA?AU?$pair@V?$_List_iterator@V?$_List_val@U?$_List_simple_types@U?$pair@$$CBHPEAUModuleInfo@ivm@@@std@@@std@@@std@@@std@@_N@1@AEAU?$pair@$$CBHPEAUModuleInfo@ivm@@@1@V?$_List_unchecked_iterator@V?$_List_val@U?$_List_simple_types@U?$pair@$$CBHPEAUModuleInfo@ivm@@@std@@@std@@@std@@@1@@Z 00000001800444e0 f i module_handle.obj
 0001:00043620       ??$RunCallback@V<lambda_4ef66ecd6aeb7120179dad3231f2ee72>@@$$CBV?$PropertyCallbackInfo@VValue@v8@@@v8@@@FunctorRunners@ivm@@YAXAEBV?$PropertyCallbackInfo@VValue@v8@@@v8@@V<lambda_4ef66ecd6aeb7120179dad3231f2ee72>@@@Z 0000000180044620 f i module_handle.obj
 0001:00043690       ??$RunCallback@V<lambda_ae8e092a41d528dbc33e6f525ab19e98>@@$$CBV?$FunctionCallbackInfo@VValue@v8@@@v8@@@FunctorRunners@ivm@@YAXAEBV?$FunctionCallbackInfo@VValue@v8@@@v8@@V<lambda_ae8e092a41d528dbc33e6f525ab19e98>@@@Z 0000000180044690 f i module_handle.obj
 0001:00043750       ??$RunCallback@V<lambda_45fde5ba425f951f6e25696566521a58>@@$$CBV?$FunctionCallbackInfo@VValue@v8@@@v8@@@FunctorRunners@ivm@@YAXAEBV?$FunctionCallbackInfo@VValue@v8@@@v8@@V<lambda_45fde5ba425f951f6e25696566521a58>@@@Z 0000000180044750 f i module_handle.obj
 0001:00043810       ??$make_unique@UEvaluateRunner@ivm@@AEAV?$shared_ptr@UModuleInfo@ivm@@@std@@AEAI@std@@YA?AV?$unique_ptr@UEvaluateRunner@ivm@@U?$default_delete@UEvaluateRunner@ivm@@@std@@@0@AEAV?$shared_ptr@UModuleInfo@ivm@@@0@AEAI@Z 0000000180044810 f i module_handle.obj
 0001:000438a0       ??$RunCatchValue@V<lambda_b61107b3fcc4fcef39c8520409a3a173>@@V<lambda_82984dd6a35666d7d64cc46043c41bb7>@@@FunctorRunners@ivm@@YAXV<lambda_b61107b3fcc4fcef39c8520409a3a173>@@V<lambda_82984dd6a35666d7d64cc46043c41bb7>@@@Z 00000001800448a0 f i module_handle.obj
 0001:00043900       ??$RunCallback@V<lambda_cdabf5a1bf17a464c5fb8c14dfdc57a3>@@$$CBV?$FunctionCallbackInfo@VValue@v8@@@v8@@@FunctorRunners@ivm@@YAXAEBV?$FunctionCallbackInfo@VValue@v8@@@v8@@V<lambda_cdabf5a1bf17a464c5fb8c14dfdc57a3>@@@Z 0000000180044900 f i module_handle.obj
 0001:000439a0       ??$RunCallback@V<lambda_f5056875cd702ebb687dd594526af626>@@$$CBV?$FunctionCallbackInfo@VValue@v8@@@v8@@@FunctorRunners@ivm@@YAXAEBV?$FunctionCallbackInfo@VValue@v8@@@v8@@V<lambda_f5056875cd702ebb687dd594526af626>@@@Z 00000001800449a0 f i module_handle.obj
 0001:00043a40       ??$RunCallback@V<lambda_075c720c302ddb0c3871deb20d401386>@@$$CBV?$PropertyCallbackInfo@VValue@v8@@@v8@@@FunctorRunners@ivm@@YAXAEBV?$PropertyCallbackInfo@VValue@v8@@@v8@@V<lambda_075c720c302ddb0c3871deb20d401386>@@@Z 0000000180044a40 f i module_handle.obj
 0001:00043ab0       ??$RunCallback@V<lambda_95a17d8ad44e530999e55d254ce05cb7>@@$$CBV?$FunctionCallbackInfo@VValue@v8@@@v8@@@FunctorRunners@ivm@@YAXAEBV?$FunctionCallbackInfo@VValue@v8@@@v8@@V<lambda_95a17d8ad44e530999e55d254ce05cb7>@@@Z 0000000180044ab0 f i module_handle.obj
 0001:00043b50       ??$RunCallback@V<lambda_2ac5664262171c75a1ed2d2e881d712b>@@$$CBV?$FunctionCallbackInfo@VValue@v8@@@v8@@@FunctorRunners@ivm@@YAXAEBV?$FunctionCallbackInfo@VValue@v8@@@v8@@V<lambda_2ac5664262171c75a1ed2d2e881d712b>@@@Z 0000000180044b50 f i module_handle.obj
 0001:00043bf0       ?_Check_size@?$_Hash@V?$_Umap_traits@HPEAUModuleInfo@ivm@@V?$_Uhash_compare@HU?$hash@H@std@@U?$equal_to@H@2@@std@@V?$allocator@U?$pair@$$CBHPEAUModuleInfo@ivm@@@std@@@4@$00@std@@@std@@IEAAXXZ 0000000180044bf0 f i module_handle.obj
 0001:00043cb0       ?Invoke@?$ConvertParamInvoke@U?$ConvertParam@PEAVModuleHandle@ivm@@@ivm@@$0?0$0A@@ivm@@SAPEAVModuleHandle@2@AEBV?$PropertyCallbackInfo@VValue@v8@@@v8@@@Z 0000000180044cb0 f i module_handle.obj
 0001:00043d00       ?Invoke@?$ConvertParamInvoke@U?$ConvertParam@PEAVModuleHandle@ivm@@@ivm@@$0?0$01@ivm@@SAPEAVModuleHandle@2@AEBV?$FunctionCallbackInfo@VValue@v8@@@v8@@@Z 0000000180044d00 f i module_handle.obj
 0001:00043d50       ?Invoke@?$ConvertParamInvoke@U?$ConvertParam@PEAVModuleHandle@ivm@@@ivm@@$0?0$00@ivm@@SAPEAVModuleHandle@2@AEBV?$FunctionCallbackInfo@VValue@v8@@@v8@@@Z 0000000180044d50 f i module_handle.obj
 0001:00043da0       ?Invoke@?$ConvertParamInvoke@U?$ConvertParam@V?$Local@VArray@v8@@@v8@@@ivm@@$0?1$00@ivm@@SA?AV?$Local@VArray@v8@@@v8@@AEBV?$FunctionCallbackInfo@VValue@v8@@@4@@Z 0000000180044da0 f i module_handle.obj
 0001:00043e70       ?Invoke@?$ConvertParamInvoke@U?$ConvertParam@PEAVModuleLinker@ivm@@@ivm@@$0?1$00@ivm@@SAPEAVModuleLinker@2@AEBV?$FunctionCallbackInfo@VValue@v8@@@v8@@@Z 0000000180044e70 f i module_handle.obj
 0001:00043ec0       ??$_Insert@AEAU?$pair@$$CBV?$basic_string@DU?$char_traits@D@std@@V?$allocator@D@2@@std@@V?$shared_ptr@UModuleInfo@ivm@@@2@@std@@V?$_List_unchecked_iterator@V?$_List_val@U?$_List_simple_types@U?$pair@$$CBV?$basic_string@DU?$char_traits@D@std@@V?$allocator@D@2@@std@@V?$shared_ptr@UModuleInfo@ivm@@@2@@std@@@std@@@std@@@2@@?$_Hash@V?$_Umap_traits@V?$basic_string@DU?$char_traits@D@std@@V?$allocator@D@2@@std@@V?$shared_ptr@UModuleInfo@ivm@@@2@V?$_Uhash_compare@V?$basic_string@DU?$char_traits@D@std@@V?$allocator@D@2@@std@@U?$hash@V?$basic_string@DU?$char_traits@D@std@@V?$allocator@D@2@@std@@@2@U?$equal_to@V?$basic_string@DU?$char_traits@D@std@@V?$allocator@D@2@@std@@@2@@2@V?$allocator@U?$pair@$$CBV?$basic_string@DU?$char_traits@D@std@@V?$allocator@D@2@@std@@V?$shared_ptr@UModuleInfo@ivm@@@2@@std@@@2@$0A@@std@@@std@@IEAA?AU?$pair@V?$_List_iterator@V?$_List_val@U?$_List_simple_types@U?$pair@$$CBV?$basic_string@DU?$char_traits@D@std@@V?$allocator@D@2@@std@@V?$shared_ptr@UModuleInfo@ivm@@@2@@std@@@std@@@std@@@std@@_N@1@AEAU?$pair@$$CBV?$basic_string@DU?$char_traits@D@std@@V?$allocator@D@2@@std@@V?$shared_ptr@UModuleInfo@ivm@@@2@@1@V?$_List_unchecked_iterator@V?$_List_val@U?$_List_simple_types@U?$pair@$$CBV?$basic_string@DU?$char_traits@D@std@@V?$allocator@D@2@@std@@V?$shared_ptr@UModuleInfo@ivm@@@2@@std@@@std@@@std@@@1@@Z 0000000180044ec0 f i module_handle.obj
 0001:000440a0       ?Convert@?$ConvertParam@PEAVModuleLinker@ivm@@@ivm@@SAPEAVModuleLinker@2@V?$Local@VValue@v8@@@v8@@@Z 00000001800450a0 f i module_handle.obj
 0001:000441e0       ?Convert@?$ConvertParam@PEAVModuleHandle@ivm@@@ivm@@SAPEAVModuleHandle@2@V?$Local@VValue@v8@@@v8@@@Z 00000001800451e0 f i module_handle.obj
 0001:00044320       ?_Check_size@?$_Hash@V?$_Umap_traits@V?$basic_string@DU?$char_traits@D@std@@V?$allocator@D@2@@std@@V?$shared_ptr@UModuleInfo@ivm@@@2@V?$_Uhash_compare@V?$basic_string@DU?$char_traits@D@std@@V?$allocator@D@2@@std@@U?$hash@V?$basic_string@DU?$char_traits@D@std@@V?$allocator@D@2@@std@@@2@U?$equal_to@V?$basic_string@DU?$char_traits@D@std@@V?$allocator@D@2@@std@@@2@@2@V?$allocator@U?$pair@$$CBV?$basic_string@DU?$char_traits@D@std@@V?$allocator@D@2@@std@@V?$shared_ptr@UModuleInfo@ivm@@@2@@std@@@2@$0A@@std@@@std@@IEAAXXZ 0000000180045320 f i module_handle.obj
 0001:000443e0       ?_Destroy_if_not_nil@?$_Hash@V?$_Umap_traits@V?$basic_string@DU?$char_traits@D@std@@V?$allocator@D@2@@std@@V?$shared_ptr@UModuleInfo@ivm@@@2@V?$_Uhash_compare@V?$basic_string@DU?$char_traits@D@std@@V?$allocator@D@2@@std@@U?$hash@V?$basic_string@DU?$char_traits@D@std@@V?$allocator@D@2@@std@@@2@U?$equal_to@V?$basic_string@DU?$char_traits@D@std@@V?$allocator@D@2@@std@@@2@@2@V?$allocator@U?$pair@$$CBV?$basic_string@DU?$char_traits@D@std@@V?$allocator@D@2@@std@@V?$shared_ptr@UModuleInfo@ivm@@@2@@std@@@2@$0A@@std@@@std@@IEAAXV?$_List_unchecked_iterator@V?$_List_val@U?$_List_simple_types@U?$pair@$$CBV?$basic_string@DU?$char_traits@D@std@@V?$allocator@D@2@@std@@V?$shared_ptr@UModuleInfo@ivm@@@2@@std@@@std@@@std@@@2@@Z 00000001800453e0 f i module_handle.obj
 0001:00044470       ?_Target_type@?$_Func_impl@V<lambda_8c25eeb07f20d2561780259604f13fe2>@@V?$allocator@H@std@@XPEAX@std@@EEBAAEBVtype_info@@XZ 0000000180045470 f i module_handle.obj
 0001:00044480       ?_Copy@?$_Func_impl@V<lambda_8c25eeb07f20d2561780259604f13fe2>@@V?$allocator@H@std@@XPEAX@std@@EEBAPEAV?$_Func_base@XPEAX@2@PEAX@Z 0000000180045480 f i module_handle.obj
 0001:00044480       ?_Move@?$_Func_impl@V<lambda_8c25eeb07f20d2561780259604f13fe2>@@V?$allocator@H@std@@XPEAX@std@@EEAAPEAV?$_Func_base@XPEAX@2@PEAX@Z 0000000180045480 f i module_handle.obj
 0001:000444b0       ?Invoke@?$ConvertParamInvoke@U?$ConvertParam@V?$Local@VFunction@v8@@@v8@@@ivm@@$00$01@ivm@@SA?AV?$Local@VFunction@v8@@@v8@@AEBV?$FunctionCallbackInfo@VValue@v8@@@4@@Z 00000001800454b0 f i module_handle.obj
 0001:00044550       ?sendResponse@SessionImpl@ivm@@EEAAXHV?$unique_ptr@VStringBuffer@v8_inspector@@U?$default_delete@VStringBuffer@v8_inspector@@@std@@@std@@@Z 0000000180045550 f i session_handle.obj
 0001:00044920       ?sendNotification@SessionImpl@ivm@@EEAAXV?$unique_ptr@VStringBuffer@v8_inspector@@U?$default_delete@VStringBuffer@v8_inspector@@@std@@@std@@@Z 0000000180045920 f i session_handle.obj
 0001:00044cd0       ??0SessionHandle@ivm@@QEAA@AEAVIsolateEnvironment@1@@Z 0000000180045cd0 f   session_handle.obj
 0001:00044d70       ?Definition@SessionHandle@ivm@@SA?AV?$Local@VFunctionTemplate@v8@@@v8@@XZ 0000000180045d70 f   session_handle.obj
 0001:00044e50       ?CheckDisposed@SessionHandle@ivm@@QEAAXXZ 0000000180045e50 f   session_handle.obj
 0001:00044f80       ?DispatchProtocolMessage@SessionHandle@ivm@@QEAA?AV?$Local@VValue@v8@@@v8@@V?$Local@VString@v8@@@4@@Z 0000000180045f80 f   session_handle.obj
 0001:00045030       ?OnNotificationSetter@SessionHandle@ivm@@QEAAXV?$Local@VFunction@v8@@@v8@@@Z 0000000180046030 f   session_handle.obj
 0001:000450b0       ?OnResponseSetter@SessionHandle@ivm@@QEAAXV?$Local@VFunction@v8@@@v8@@@Z 00000001800460b0 f   session_handle.obj
 0001:00045130       ??_GSessionImpl@ivm@@UEAAPEAXI@Z 0000000180046130 f i session_handle.obj
 0001:00045130       ??_ESessionImpl@ivm@@UEAAPEAXI@Z 0000000180046130 f i * CIL library *:* CIL module *
 0001:00045170       ??1SessionImpl@ivm@@UEAA@XZ 0000000180046170 f i session_handle.obj
 0001:00045250       ??_GSendResponseTask@?1??sendResponse@SessionImpl@ivm@@EEAAXHV?$unique_ptr@VStringBuffer@v8_inspector@@U?$default_delete@VStringBuffer@v8_inspector@@@std@@@std@@@Z@UEAAPEAXI@Z 0000000180046250 f i session_handle.obj
 0001:00045250       ??_ESendResponseTask@?1??sendResponse@SessionImpl@ivm@@EEAAXHV?$unique_ptr@VStringBuffer@v8_inspector@@U?$default_delete@VStringBuffer@v8_inspector@@@std@@@std@@@Z@UEAAPEAXI@Z 0000000180046250 f i * CIL library *:* CIL module *
 0001:00045310       ??_ESendNotificationTask@?1??sendNotification@SessionImpl@ivm@@EEAAXV?$unique_ptr@VStringBuffer@v8_inspector@@U?$default_delete@VStringBuffer@v8_inspector@@@std@@@std@@@Z@UEAAPEAXI@Z 0000000180046310 f i * CIL library *:* CIL module *
 0001:00045310       ??_GSendNotificationTask@?1??sendNotification@SessionImpl@ivm@@EEAAXV?$unique_ptr@VStringBuffer@v8_inspector@@U?$default_delete@VStringBuffer@v8_inspector@@@std@@@std@@@Z@UEAAPEAXI@Z 0000000180046310 f i session_handle.obj
 0001:000453d0       ??$make_unique@USendResponseTask@?1??sendResponse@SessionImpl@ivm@@EEAAXHV?$unique_ptr@VStringBuffer@v8_inspector@@U?$default_delete@VStringBuffer@v8_inspector@@@std@@@std@@@Z@AEAHV56@AEAV?$shared_ptr@V?$RemoteHandle@VFunction@v8@@@ivm@@@6@@std@@YA?AV?$unique_ptr@USendResponseTask@?1??sendResponse@SessionImpl@ivm@@EEAAXHV?$unique_ptr@VStringBuffer@v8_inspector@@U?$default_delete@VStringBuffer@v8_inspector@@@std@@@std@@@Z@U?$default_delete@USendResponseTask@?1??sendResponse@SessionImpl@ivm@@EEAAXHV?$unique_ptr@VStringBuffer@v8_inspector@@U?$default_delete@VStringBuffer@v8_inspector@@@std@@@std@@@Z@@6@@0@AEAH$$QEAV?$unique_ptr@VStringBuffer@v8_inspector@@U?$default_delete@VStringBuffer@v8_inspector@@@std@@@0@AEAV?$shared_ptr@V?$RemoteHandle@VFunction@v8@@@ivm@@@0@@Z 00000001800463d0 f i session_handle.obj
 0001:00045470       ??$make_unique@USendNotificationTask@?1??sendNotification@SessionImpl@ivm@@EEAAXV?$unique_ptr@VStringBuffer@v8_inspector@@U?$default_delete@VStringBuffer@v8_inspector@@@std@@@std@@@Z@V56@AEAV?$shared_ptr@V?$RemoteHandle@VFunction@v8@@@ivm@@@6@@std@@YA?AV?$unique_ptr@USendNotificationTask@?1??sendNotification@SessionImpl@ivm@@EEAAXV?$unique_ptr@VStringBuffer@v8_inspector@@U?$default_delete@VStringBuffer@v8_inspector@@@std@@@std@@@Z@U?$default_delete@USendNotificationTask@?1??sendNotification@SessionImpl@ivm@@EEAAXV?$unique_ptr@VStringBuffer@v8_inspector@@U?$default_delete@VStringBuffer@v8_inspector@@@std@@@std@@@Z@@6@@0@$$QEAV?$unique_ptr@VStringBuffer@v8_inspector@@U?$default_delete@VStringBuffer@v8_inspector@@@std@@@0@AEAV?$shared_ptr@V?$RemoteHandle@VFunction@v8@@@ivm@@@0@@Z 0000000180046470 f i session_handle.obj
 0001:00045510       ??$make_shared@VSessionImpl@ivm@@AEAVIsolateEnvironment@2@@std@@YA?AV?$shared_ptr@VSessionImpl@ivm@@@0@AEAVIsolateEnvironment@ivm@@@Z 0000000180046510 f i session_handle.obj
 0001:000455e0       ??$MakeClass@PEBDU?$pair@P6AXAEBV?$FunctionCallbackInfo@VValue@v8@@@v8@@@ZH@std@@PEBDU12@PEBDU?$pair@P6AXV?$Local@VString@v8@@@v8@@AEBV?$PropertyCallbackInfo@VValue@v8@@@2@@ZP6AX0V?$Local@VValue@v8@@@2@AEBV?$PropertyCallbackInfo@X@2@@Z@2@PEBDU32@@ClassHandle@ivm@@KA?AV?$Local@VFunctionTemplate@v8@@@v8@@PEBDUCtorFunction@01@0U?$pair@P6AXAEBV?$FunctionCallbackInfo@VValue@v8@@@v8@@@ZH@std@@020U?$pair@P6AXV?$Local@VString@v8@@@v8@@AEBV?$PropertyCallbackInfo@VValue@v8@@@2@@ZP6AX0V?$Local@VValue@v8@@@2@AEBV?$PropertyCallbackInfo@X@2@@Z@6@03@Z 00000001800465e0 f i session_handle.obj
 0001:00045980       ??$make_shared@V?$RemoteHandle@VFunction@v8@@@ivm@@AEAV?$Local@VFunction@v8@@@v8@@@std@@YA?AV?$shared_ptr@V?$RemoteHandle@VFunction@v8@@@ivm@@@0@AEAV?$Local@VFunction@v8@@@v8@@@Z 0000000180046980 f i session_handle.obj
 0001:00045a30       ?_Destroy@?$_Ref_count_obj@V?$RemoteHandle@VFunction@v8@@@ivm@@@std@@EEAAXXZ 0000000180046a30 f i session_handle.obj
 0001:00045a40       ??$Invoke@$1?DispatchProtocolMessage@SessionHandle@ivm@@QEAA?AV?$Local@VValue@v8@@@v8@@V?$Local@VString@v8@@@5@@Z@?$MethodCast@P8SessionHandle@ivm@@EAA?AV?$Local@VValue@v8@@@v8@@V?$Local@VString@v8@@@4@@Z@ClassHandle@ivm@@SA?AV?$Local@VValue@v8@@@v8@@PEAVSessionHandle@2@V?$Local@VString@v8@@@4@@Z 0000000180046a40 f i session_handle.obj
 0001:00045a70       ??$ParameterizeEntry@$0?0P6A?AV?$Local@VValue@v8@@@v8@@PEAVSessionHandle@ivm@@V?$Local@VString@v8@@@2@@Z$1??$Invoke@$1?DispatchProtocolMessage@SessionHandle@ivm@@QEAA?AV?$Local@VValue@v8@@@v8@@V?$Local@VString@v8@@@5@@Z@?$MethodCast@P8SessionHandle@ivm@@EAA?AV?$Local@VValue@v8@@@v8@@V?$Local@VString@v8@@@4@@Z@ClassHandle@4@SA?AV12@01@Z@ClassHandle@ivm@@CAXAEBV?$FunctionCallbackInfo@VValue@v8@@@v8@@@Z 0000000180046a70 f i session_handle.obj
 0001:00045a80       ??$Invoke@$1?Dispose@SessionHandle@ivm@@QEAA?AV?$Local@VValue@v8@@@v8@@XZ@?$MethodCast@P8SessionHandle@ivm@@EAA?AV?$Local@VValue@v8@@@v8@@XZ@ClassHandle@ivm@@SA?AV?$Local@VValue@v8@@@v8@@PEAVSessionHandle@2@@Z 0000000180046a80 f i session_handle.obj
 0001:00045b10       ??$ParameterizeEntry@$0?0P6A?AV?$Local@VValue@v8@@@v8@@PEAVSessionHandle@ivm@@@Z$1??$Invoke@$1?Dispose@SessionHandle@ivm@@QEAA?AV?$Local@VValue@v8@@@v8@@XZ@?$MethodCast@P8SessionHandle@ivm@@EAA?AV?$Local@VValue@v8@@@v8@@XZ@ClassHandle@4@SA?AV12@0@Z@ClassHandle@ivm@@CAXAEBV?$FunctionCallbackInfo@VValue@v8@@@v8@@@Z 0000000180046b10 f i session_handle.obj
 0001:00045b20       ??$Invoke@$1?OnNotificationGetter@SessionHandle@ivm@@QEAA?AV?$Local@VValue@v8@@@v8@@XZ@?$MethodCast@P8SessionHandle@ivm@@EAA?AV?$Local@VValue@v8@@@v8@@XZ@ClassHandle@ivm@@SA?AV?$Local@VValue@v8@@@v8@@PEAVSessionHandle@2@@Z 0000000180046b20 f i session_handle.obj
 0001:00045bb0       ??$ParameterizeGetterEntry@P6A?AV?$Local@VValue@v8@@@v8@@PEAVSessionHandle@ivm@@@Z$1??$Invoke@$1?OnNotificationGetter@SessionHandle@ivm@@QEAA?AV?$Local@VValue@v8@@@v8@@XZ@?$MethodCast@P8SessionHandle@ivm@@EAA?AV?$Local@VValue@v8@@@v8@@XZ@ClassHandle@4@SA?AV12@0@Z@ClassHandle@ivm@@CAXV?$Local@VString@v8@@@v8@@AEBV?$PropertyCallbackInfo@VValue@v8@@@3@@Z 0000000180046bb0 f i session_handle.obj
 0001:00045bd0       ??$Invoke@$1?OnNotificationSetter@SessionHandle@ivm@@QEAAXV?$Local@VFunction@v8@@@v8@@@Z@?$MethodCast@P8SessionHandle@ivm@@EAAXV?$Local@VFunction@v8@@@v8@@@Z@ClassHandle@ivm@@SAXPEAVSessionHandle@2@V?$Local@VFunction@v8@@@v8@@@Z 0000000180046bd0 f i session_handle.obj
 0001:00045be0       ??$ParameterizeSetterEntry@P6AXPEAVSessionHandle@ivm@@V?$Local@VFunction@v8@@@v8@@@Z$1??$Invoke@$1?OnNotificationSetter@SessionHandle@ivm@@QEAAXV?$Local@VFunction@v8@@@v8@@@Z@?$MethodCast@P8SessionHandle@ivm@@EAAXV?$Local@VFunction@v8@@@v8@@@Z@ClassHandle@2@SAX01@Z@ClassHandle@ivm@@CAXV?$Local@VString@v8@@@v8@@V?$Local@VValue@v8@@@3@AEBV?$PropertyCallbackInfo@X@3@@Z 0000000180046be0 f i session_handle.obj
 0001:00045c20       ??$Invoke@$1?OnResponseGetter@SessionHandle@ivm@@QEAA?AV?$Local@VValue@v8@@@v8@@XZ@?$MethodCast@P8SessionHandle@ivm@@EAA?AV?$Local@VValue@v8@@@v8@@XZ@ClassHandle@ivm@@SA?AV?$Local@VValue@v8@@@v8@@PEAVSessionHandle@2@@Z 0000000180046c20 f i session_handle.obj
 0001:00045cb0       ??$ParameterizeGetterEntry@P6A?AV?$Local@VValue@v8@@@v8@@PEAVSessionHandle@ivm@@@Z$1??$Invoke@$1?OnResponseGetter@SessionHandle@ivm@@QEAA?AV?$Local@VValue@v8@@@v8@@XZ@?$MethodCast@P8SessionHandle@ivm@@EAA?AV?$Local@VValue@v8@@@v8@@XZ@ClassHandle@4@SA?AV12@0@Z@ClassHandle@ivm@@CAXV?$Local@VString@v8@@@v8@@AEBV?$PropertyCallbackInfo@VValue@v8@@@3@@Z 0000000180046cb0 f i session_handle.obj
 0001:00045cd0       ??$Invoke@$1?OnResponseSetter@SessionHandle@ivm@@QEAAXV?$Local@VFunction@v8@@@v8@@@Z@?$MethodCast@P8SessionHandle@ivm@@EAAXV?$Local@VFunction@v8@@@v8@@@Z@ClassHandle@ivm@@SAXPEAVSessionHandle@2@V?$Local@VFunction@v8@@@v8@@@Z 0000000180046cd0 f i session_handle.obj
 0001:00045ce0       ??$ParameterizeSetterEntry@P6AXPEAVSessionHandle@ivm@@V?$Local@VFunction@v8@@@v8@@@Z$1??$Invoke@$1?OnResponseSetter@SessionHandle@ivm@@QEAAXV?$Local@VFunction@v8@@@v8@@@Z@?$MethodCast@P8SessionHandle@ivm@@EAAXV?$Local@VFunction@v8@@@v8@@@Z@ClassHandle@2@SAX01@Z@ClassHandle@ivm@@CAXV?$Local@VString@v8@@@v8@@V?$Local@VValue@v8@@@3@AEBV?$PropertyCallbackInfo@X@3@@Z 0000000180046ce0 f i session_handle.obj
 0001:00045d20       ??_G?$_Ref_count_obj@VSessionImpl@ivm@@@std@@UEAAPEAXI@Z 0000000180046d20 f i session_handle.obj
 0001:00045d20       ??_G?$_Ref_count_obj_alloc@V__ExceptionPtr@@U?$_StaticAllocator@H@@@std@@UEAAPEAXI@Z 0000000180046d20 f i libcpmt:excptptr.obj
 0001:00045d20       ??_E?$_Ref_count_obj@VSessionImpl@ivm@@@std@@UEAAPEAXI@Z 0000000180046d20 f i * CIL library *:* CIL module *
 0001:00045d20       ??_E?$_Ref_count_obj_alloc@V__ExceptionPtr@@U?$_StaticAllocator@H@@@std@@UEAAPEAXI@Z 0000000180046d20 f i libcpmt:excptptr.obj
 0001:00045d20       ??_E?$_Ref_count_obj@V__ExceptionPtr@@@std@@UEAAPEAXI@Z 0000000180046d20 f i libcpmt:excptptr.obj
 0001:00045d20       ??_G?$_Ref_count_obj@V__ExceptionPtr@@@std@@UEAAPEAXI@Z 0000000180046d20 f i libcpmt:excptptr.obj
 0001:00045d50       ??$RunCallback@V<lambda_e4420865caddd4db9ece9c357dab9552>@@$$CBV?$FunctionCallbackInfo@VValue@v8@@@v8@@@FunctorRunners@ivm@@YAXAEBV?$FunctionCallbackInfo@VValue@v8@@@v8@@V<lambda_e4420865caddd4db9ece9c357dab9552>@@@Z 0000000180046d50 f i session_handle.obj
 0001:00045df0       ??$RunCallback@V<lambda_ec76b98abafb6f1fb343f8c3f847589e>@@$$CBV?$FunctionCallbackInfo@VValue@v8@@@v8@@@FunctorRunners@ivm@@YAXAEBV?$FunctionCallbackInfo@VValue@v8@@@v8@@V<lambda_ec76b98abafb6f1fb343f8c3f847589e>@@@Z 0000000180046df0 f i session_handle.obj
 0001:00045e60       ??$RunCallback@V<lambda_cc6e1a34536674e849c298312d6f4458>@@$$CBV?$PropertyCallbackInfo@VValue@v8@@@v8@@@FunctorRunners@ivm@@YAXAEBV?$PropertyCallbackInfo@VValue@v8@@@v8@@V<lambda_cc6e1a34536674e849c298312d6f4458>@@@Z 0000000180046e60 f i session_handle.obj
 0001:00045ed0       ??$RunCallback@V<lambda_754bc935a4ef8ea34dbed60cac787cfe>@@$$CBV?$PropertyCallbackInfo@X@v8@@@FunctorRunners@ivm@@YAXAEBV?$PropertyCallbackInfo@X@v8@@V<lambda_754bc935a4ef8ea34dbed60cac787cfe>@@@Z 0000000180046ed0 f i session_handle.obj
 0001:00045fb0       ??$RunCallback@V<lambda_21d1c7d3a0655651231ec35fe26ac061>@@$$CBV?$PropertyCallbackInfo@VValue@v8@@@v8@@@FunctorRunners@ivm@@YAXAEBV?$PropertyCallbackInfo@VValue@v8@@@v8@@V<lambda_21d1c7d3a0655651231ec35fe26ac061>@@@Z 0000000180046fb0 f i session_handle.obj
 0001:00046020       ??$RunCallback@V<lambda_02234abf8b9fbe6b5edc95f02c4a42b3>@@$$CBV?$PropertyCallbackInfo@X@v8@@@FunctorRunners@ivm@@YAXAEBV?$PropertyCallbackInfo@X@v8@@V<lambda_02234abf8b9fbe6b5edc95f02c4a42b3>@@@Z 0000000180047020 f i session_handle.obj
 0001:00046100       ??$_Construct@PEBD@?$vector@GV?$allocator@G@std@@@std@@QEAAXPEBD0Uforward_iterator_tag@1@@Z 0000000180047100 f i session_handle.obj
 0001:000461c0       ?allocate@?$_Wrap_alloc@V?$allocator@G@std@@@std@@QEAAPEAG_K@Z 00000001800471c0 f i session_handle.obj
 0001:00046230       ?Invoke@?$ConvertParamInvoke@U?$ConvertParam@PEAVSessionHandle@ivm@@@ivm@@$0?0$00@ivm@@SAPEAVSessionHandle@2@AEBV?$FunctionCallbackInfo@VValue@v8@@@v8@@@Z 0000000180047230 f i session_handle.obj
 0001:00046280       ?Invoke@?$ConvertParamInvoke@U?$ConvertParam@PEAVSessionHandle@ivm@@@ivm@@$0?0$0A@@ivm@@SAPEAVSessionHandle@2@AEBV?$FunctionCallbackInfo@VValue@v8@@@v8@@@Z 0000000180047280 f i session_handle.obj
 0001:000462d0       ?Invoke@?$ConvertParamInvoke@U?$ConvertParam@PEAVSessionHandle@ivm@@@ivm@@$0?0$0A@@ivm@@SAPEAVSessionHandle@2@AEBV?$PropertyCallbackInfo@VValue@v8@@@v8@@@Z 00000001800472d0 f i session_handle.obj
 0001:00046320       ?Invoke@?$ConvertParamInvoke@U?$ConvertParam@PEAVSessionHandle@ivm@@@ivm@@$0?0$00@ivm@@SAPEAVSessionHandle@2@U?$pair@PEAV?$Local@VValue@v8@@@v8@@PEBV?$PropertyCallbackInfo@X@2@@std@@@Z 0000000180047320 f i session_handle.obj
 0001:00046380       ?Convert@?$ConvertParam@PEAVSessionHandle@ivm@@@ivm@@SAPEAVSessionHandle@2@V?$Local@VValue@v8@@@v8@@@Z 0000000180047380 f i session_handle.obj
 0001:000464c0       ?Invoke@?$ConvertParamInvoke@U?$ConvertParam@V?$Local@VFunction@v8@@@v8@@@ivm@@$0A@$00@ivm@@SA?AV?$Local@VFunction@v8@@@v8@@U?$pair@PEAV?$Local@VValue@v8@@@v8@@PEBV?$PropertyCallbackInfo@X@2@@std@@@Z 00000001800474c0 f i session_handle.obj
 0001:00046520       ?TransferOut@Transferable@ivm@@SA?AV?$unique_ptr@VTransferable@ivm@@U?$default_delete@VTransferable@ivm@@@std@@@std@@AEBV?$Local@VValue@v8@@@v8@@@Z 0000000180047520 f   transferable.obj
 0001:000466e0       ??$Unwrap@VTransferableHandle@ivm@@@ClassHandle@ivm@@SAPEAVTransferableHandle@1@V?$Local@VObject@v8@@@v8@@@Z 00000001800476e0 f i transferable.obj
 0001:00046800       ??_GExternalCopySerializerDelegate@ivm@@UEAAPEAXI@Z 0000000180047800 f i nortti:external_copy_nortti.obj
 0001:00046800       ??_EExternalCopySerializerDelegate@ivm@@UEAAPEAXI@Z 0000000180047800 f i * CIL library *:* CIL module *
 0001:00046840       ?ThrowDataCloneError@ExternalCopySerializerDelegate@ivm@@UEAAXV?$Local@VString@v8@@@v8@@@Z 0000000180047840 f   nortti:external_copy_nortti.obj
 0001:00046880       ?WriteHostObject@ExternalCopySerializerDelegate@ivm@@UEAA?AV?$Maybe@_N@v8@@PEAVIsolate@4@V?$Local@VObject@v8@@@4@@Z 0000000180047880 f   nortti:external_copy_nortti.obj
 0001:000469a0       ?GetSharedArrayBufferId@ExternalCopySerializerDelegate@ivm@@UEAA?AV?$Maybe@I@v8@@PEAVIsolate@4@V?$Local@VSharedArrayBuffer@v8@@@4@@Z 00000001800479a0 f   nortti:external_copy_nortti.obj
 0001:00046aa0       ??_EExternalCopyDeserializerDelegate@ivm@@UEAAPEAXI@Z 0000000180047aa0 f i * CIL library *:* CIL module *
 0001:00046aa0       ??_GExternalCopyDeserializerDelegate@ivm@@UEAAPEAXI@Z 0000000180047aa0 f i nortti:external_copy_nortti.obj
 0001:00046ae0       ?ReadHostObject@ExternalCopyDeserializerDelegate@ivm@@UEAA?AV?$MaybeLocal@VObject@v8@@@v8@@PEAVIsolate@4@@Z 0000000180047ae0 f   nortti:external_copy_nortti.obj
 0001:00046b20       ??$RunBarrier@V<lambda_05dc3a8585eee4fe3726316653be2a32>@@@FunctorRunners@ivm@@YAXV<lambda_05dc3a8585eee4fe3726316653be2a32>@@@Z 0000000180047b20 f i nortti:external_copy_nortti.obj
 0001:00046b40       ??$RunBarrier@V<lambda_8db843b100245480e6d22af1315dd392>@@@FunctorRunners@ivm@@YAXV<lambda_8db843b100245480e6d22af1315dd392>@@@Z 0000000180047b40 f i nortti:external_copy_nortti.obj
 0001:00046b60       ??$RunBarrier@V<lambda_f37542fe3f9ddb8c0d7c74c913411784>@@@FunctorRunners@ivm@@YAXV<lambda_f37542fe3f9ddb8c0d7c74c913411784>@@@Z 0000000180047b60 f i nortti:external_copy_nortti.obj
 0001:00046bce       __imp_load_?LowMemoryNotification@Isolate@v8@@QEAAXXZ 0000000180047bce f   node:node.exe
 0001:00046bda       __tailMerge_node_exe       0000000180047bda f i node:node.exe
 0001:00046c53       __imp_load_?TerminateExecution@Isolate@v8@@QEAAXXZ 0000000180047c53 f   node:node.exe
 0001:00046c5f       __imp_load_?GetHeapStatistics@Isolate@v8@@QEAAXPEAVHeapStatistics@2@@Z 0000000180047c5f f   node:node.exe
 0001:00046c6b       __imp_load_?GetCurrent@Isolate@v8@@SAPEAV12@XZ 0000000180047c6b f   node:node.exe
 0001:00046c77       __imp_load_?SetProtection@Allocator@ArrayBuffer@v8@@UEAAXPEAX_KW4Protection@123@@Z 0000000180047c77 f   node:node.exe
 0001:00046c83       ?SetProtection@Allocator@ArrayBuffer@v8@@UEAAXPEAX_KW4Protection@123@@Z 0000000180047c83 f   node:node.exe
 0001:00046c89       __imp_load_?Free@Allocator@ArrayBuffer@v8@@UEAAXPEAX_KW4AllocationMode@123@@Z 0000000180047c89 f   node:node.exe
 0001:00046c95       ?Free@Allocator@ArrayBuffer@v8@@UEAAXPEAX_KW4AllocationMode@123@@Z 0000000180047c95 f   node:node.exe
 0001:00046c9b       __imp_load_?Reserve@Allocator@ArrayBuffer@v8@@UEAAPEAX_K@Z 0000000180047c9b f   node:node.exe
 0001:00046ca7       ?Reserve@Allocator@ArrayBuffer@v8@@UEAAPEAX_K@Z 0000000180047ca7 f   node:node.exe
 0001:00046cad       __imp_load_??0HeapStatistics@v8@@QEAA@XZ 0000000180047cad f   node:node.exe
 0001:00046cb9       __imp_load_??0Allocator@ArrayBuffer@v8@@QEAA@XZ 0000000180047cb9 f   node:node.exe
 0001:00046cc5       __imp_load_??1Allocator@ArrayBuffer@v8@@UEAA@XZ 0000000180047cc5 f   node:node.exe
 0001:00046cd1       __imp_load_?SlowGetAlignedPointerFromInternalField@Object@v8@@AEAAPEAXH@Z 0000000180047cd1 f   node:node.exe
 0001:00046cdd       __imp_load_?InternalFieldCount@Object@v8@@QEAAHXZ 0000000180047cdd f   node:node.exe
 0001:00046ce9       __imp_load_uv_unref        0000000180047ce9 f   node:node.exe
 0001:00046cf5       __imp_load_?Exit@Context@v8@@QEAAXXZ 0000000180047cf5 f   node:node.exe
 0001:00046d01       __imp_load_?Enter@Context@v8@@QEAAXXZ 0000000180047d01 f   node:node.exe
 0001:00046d0d       __imp_load_?New@Context@v8@@SA?AV?$Local@VContext@v8@@@2@PEAVIsolate@2@PEAVExtensionConfiguration@2@V?$MaybeLocal@VObjectTemplate@v8@@@2@V?$MaybeLocal@VValue@v8@@@2@@Z 0000000180047d0d f   node:node.exe
 0001:00046d19       __imp_load_?SetOOMErrorHandler@Isolate@v8@@QEAAXP6AXPEBD_N@Z@Z 0000000180047d19 f   node:node.exe
 0001:00046d25       __imp_load_?RestoreOriginalHeapLimit@Isolate@v8@@QEAAXXZ 0000000180047d25 f   node:node.exe
 0001:00046d31       __imp_load_?IncreaseHeapLimitForDebugging@Isolate@v8@@QEAAXXZ 0000000180047d31 f   node:node.exe
 0001:00046d3d       __imp_load_?RunMicrotasks@Isolate@v8@@QEAAXXZ 0000000180047d3d f   node:node.exe
 0001:00046d49       __imp_load_?SetPromiseRejectCallback@Isolate@v8@@QEAAXP6AXVPromiseRejectMessage@2@@Z@Z 0000000180047d49 f   node:node.exe
 0001:00046d55       __imp_load_?RequestInterrupt@Isolate@v8@@QEAAXP6AXPEAV12@PEAX@Z1@Z 0000000180047d55 f   node:node.exe
 0001:00046d61       __imp_load_?AddGCEpilogueCallback@Isolate@v8@@QEAAXP6AXPEAV12@W4GCType@2@W4GCCallbackFlags@2@@Z1@Z 0000000180047d61 f   node:node.exe
 0001:00046d6d       __imp_load_?ThrowException@Isolate@v8@@QEAA?AV?$Local@VValue@v8@@@2@V32@@Z 0000000180047d6d f   node:node.exe
 0001:00046d79       __imp_load_?GetCurrentContext@Isolate@v8@@QEAA?AV?$Local@VContext@v8@@@2@XZ 0000000180047d79 f   node:node.exe
 0001:00046d85       __imp_load_?InContext@Isolate@v8@@QEAA_NXZ 0000000180047d85 f   node:node.exe
 0001:00046d91       __imp_load_?DiscardThreadSpecificMetadata@Isolate@v8@@QEAAXXZ 0000000180047d91 f   node:node.exe
 0001:00046d9d       __imp_load_?Dispose@Isolate@v8@@QEAAXXZ 0000000180047d9d f   node:node.exe
 0001:00046da9       __imp_load_?New@Isolate@v8@@SAPEAV12@AEBUCreateParams@12@@Z 0000000180047da9 f   node:node.exe
 0001:00046db5       __imp_load_?CreateHandle@HandleScope@v8@@KAPEAPEAVObject@internal@2@PEAVIsolate@42@PEAV342@@Z 0000000180047db5 f   node:node.exe
 0001:00046dc1       __imp_load_??1HandleScope@v8@@QEAA@XZ 0000000180047dc1 f   node:node.exe
 0001:00046dcd       __imp_load_??0HandleScope@v8@@QEAA@PEAVIsolate@1@@Z 0000000180047dcd f   node:node.exe
 0001:00046dd9       __imp_load_?Error@Exception@v8@@SA?AV?$Local@VValue@v8@@@2@V?$Local@VString@v8@@@2@@Z 0000000180047dd9 f   node:node.exe
 0001:00046de5       __imp_load_?Initialize@Locker@v8@@AEAAXPEAVIsolate@2@@Z 0000000180047de5 f   node:node.exe
 0001:00046df1       __imp_load_??1Locker@v8@@QEAA@XZ 0000000180047df1 f   node:node.exe
 0001:00046dfd       __imp_load_?Initialize@Unlocker@v8@@AEAAXPEAVIsolate@2@@Z 0000000180047dfd f   node:node.exe
 0001:00046e09       __imp_load_??1Unlocker@v8@@QEAA@XZ 0000000180047e09 f   node:node.exe
 0001:00046e15       __imp_load_?DisposeGlobal@V8@v8@@CAXPEAPEAVObject@internal@2@@Z 0000000180047e15 f   node:node.exe
 0001:00046e21       __imp_load_?GlobalizeReference@V8@v8@@CAPEAPEAVObject@internal@2@PEAVIsolate@42@PEAPEAV342@@Z 0000000180047e21 f   node:node.exe
 0001:00046e2d       __imp_load_?NewFromOneByte@String@v8@@SA?AV?$MaybeLocal@VString@v8@@@2@PEAVIsolate@2@PEBEW4NewStringType@2@H@Z 0000000180047e2d f   node:node.exe
 0001:00046e39       __imp_load_??0ResourceConstraints@v8@@QEAA@XZ 0000000180047e39 f   node:node.exe
 0001:00046e45       __imp_load_?Set@Object@v8@@QEAA?AV?$Maybe@_N@2@V?$Local@VContext@v8@@@2@V?$Local@VValue@v8@@@2@1@Z 0000000180047e45 f   node:node.exe
 0001:00046e51       __imp_load_uv_ref          0000000180047e51 f   node:node.exe
 0001:00046e5d       __imp_load_uv_async_send   0000000180047e5d f   node:node.exe
 0001:00046e69       __imp_load_uv_async_init   0000000180047e69 f   node:node.exe
 0001:00046e75       __imp_load_uv_default_loop 0000000180047e75 f   node:node.exe
 0001:00046e81       __imp_load_??1Scope@Isolate@v8@@QEAA@XZ 0000000180047e81 f   node:node.exe
 0001:00046e8d       __imp_load_??0Scope@Isolate@v8@@QEAA@PEAV12@@Z 0000000180047e8d f   node:node.exe
 0001:00046e99       __imp_load_?create@V8Inspector@v8_inspector@@SA?AV?$unique_ptr@VV8Inspector@v8_inspector@@U?$default_delete@VV8Inspector@v8_inspector@@@std@@@std@@PEAVIsolate@v8@@PEAVV8InspectorClient@2@@Z 0000000180047e99 f   node:node.exe
 0001:00046ea5       __imp_load_??0Channel@V8Inspector@v8_inspector@@QEAA@XZ 0000000180047ea5 f   node:node.exe
 0001:00046eb1       __imp_load_??0V8InspectorClient@v8_inspector@@QEAA@XZ 0000000180047eb1 f   node:node.exe
 0001:00046ebd       __imp_load_??1Channel@V8Inspector@v8_inspector@@UEAA@XZ 0000000180047ebd f   node:node.exe
 0001:00046ec9       __imp_load_?maxAsyncCallStackDepthChanged@V8InspectorClient@v8_inspector@@UEAAXH@Z 0000000180047ec9 f   node:node.exe
 0001:00046ed5       ?maxAsyncCallStackDepthChanged@V8InspectorClient@v8_inspector@@UEAAXH@Z 0000000180047ed5 f   node:node.exe
 0001:00046edb       __imp_load_?canExecuteScripts@V8InspectorClient@v8_inspector@@UEAA_NH@Z 0000000180047edb f   node:node.exe
 0001:00046ee7       ?canExecuteScripts@V8InspectorClient@v8_inspector@@UEAA_NH@Z 0000000180047ee7 f   node:node.exe
 0001:00046eed       __imp_load_?cancelTimer@V8InspectorClient@v8_inspector@@UEAAXPEAX@Z 0000000180047eed f   node:node.exe
 0001:00046ef9       ?cancelTimer@V8InspectorClient@v8_inspector@@UEAAXPEAX@Z 0000000180047ef9 f   node:node.exe
 0001:00046eff       __imp_load_?startRepeatingTimer@V8InspectorClient@v8_inspector@@UEAAXNP6AXPEAX@Z0@Z 0000000180047eff f   node:node.exe
 0001:00046f0b       ?startRepeatingTimer@V8InspectorClient@v8_inspector@@UEAAXNP6AXPEAX@Z0@Z 0000000180047f0b f   node:node.exe
 0001:00046f11       __imp_load_?currentTimeMS@V8InspectorClient@v8_inspector@@UEAANXZ 0000000180047f11 f   node:node.exe
 0001:00046f1d       ?currentTimeMS@V8InspectorClient@v8_inspector@@UEAANXZ 0000000180047f1d f   node:node.exe
 0001:00046f23       __imp_load_?consoleClear@V8InspectorClient@v8_inspector@@UEAAXH@Z 0000000180047f23 f   node:node.exe
 0001:00046f2f       ?consoleClear@V8InspectorClient@v8_inspector@@UEAAXH@Z 0000000180047f2f f   node:node.exe
 0001:00046f35       __imp_load_?consoleTimeStamp@V8InspectorClient@v8_inspector@@UEAAXAEBVStringView@2@@Z 0000000180047f35 f   node:node.exe
 0001:00046f41       ?consoleTimeStamp@V8InspectorClient@v8_inspector@@UEAAXAEBVStringView@2@@Z 0000000180047f41 f   node:node.exe
 0001:00046f47       __imp_load_?consoleTimeEnd@V8InspectorClient@v8_inspector@@UEAAXAEBVStringView@2@@Z 0000000180047f47 f   node:node.exe
 0001:00046f53       ?consoleTimeEnd@V8InspectorClient@v8_inspector@@UEAAXAEBVStringView@2@@Z 0000000180047f53 f   node:node.exe
 0001:00046f59       __imp_load_?consoleTime@V8InspectorClient@v8_inspector@@UEAAXAEBVStringView@2@@Z 0000000180047f59 f   node:node.exe
 0001:00046f65       ?consoleTime@V8InspectorClient@v8_inspector@@UEAAXAEBVStringView@2@@Z 0000000180047f65 f   node:node.exe
 0001:00046f6b       __imp_load_?memoryInfo@V8InspectorClient@v8_inspector@@UEAA?AV?$MaybeLocal@VValue@v8@@@v8@@PEAVIsolate@4@V?$Local@VContext@v8@@@4@@Z 0000000180047f6b f   node:node.exe
 0001:00046f77       ?memoryInfo@V8InspectorClient@v8_inspector@@UEAA?AV?$MaybeLocal@VValue@v8@@@v8@@PEAVIsolate@4@V?$Local@VContext@v8@@@4@@Z 0000000180047f77 f   node:node.exe
 0001:00046f7d       __imp_load_?consoleAPIMessage@V8InspectorClient@v8_inspector@@UEAAXHW4MessageErrorLevel@Isolate@v8@@AEBVStringView@2@1IIPEAVV8StackTrace@2@@Z 0000000180047f7d f   node:node.exe
 0001:00046f89       ?consoleAPIMessage@V8InspectorClient@v8_inspector@@UEAAXHW4MessageErrorLevel@Isolate@v8@@AEBVStringView@2@1IIPEAVV8StackTrace@2@@Z 0000000180047f89 f   node:node.exe
 0001:00046f8f       __imp_load_?installAdditionalCommandLineAPI@V8InspectorClient@v8_inspector@@UEAAXV?$Local@VContext@v8@@@v8@@V?$Local@VObject@v8@@@4@@Z 0000000180047f8f f   node:node.exe
 0001:00046f9b       ?installAdditionalCommandLineAPI@V8InspectorClient@v8_inspector@@UEAAXV?$Local@VContext@v8@@@v8@@V?$Local@VObject@v8@@@4@@Z 0000000180047f9b f   node:node.exe
 0001:00046fa1       __imp_load_?endEnsureAllContextsInGroup@V8InspectorClient@v8_inspector@@UEAAXH@Z 0000000180047fa1 f   node:node.exe
 0001:00046fad       ?endEnsureAllContextsInGroup@V8InspectorClient@v8_inspector@@UEAAXH@Z 0000000180047fad f   node:node.exe
 0001:00046fb3       __imp_load_?beginEnsureAllContextsInGroup@V8InspectorClient@v8_inspector@@UEAAXH@Z 0000000180047fb3 f   node:node.exe
 0001:00046fbf       ?beginEnsureAllContextsInGroup@V8InspectorClient@v8_inspector@@UEAAXH@Z 0000000180047fbf f   node:node.exe
 0001:00046fc5       __imp_load_?ensureDefaultContextInGroup@V8InspectorClient@v8_inspector@@UEAA?AV?$Local@VContext@v8@@@v8@@H@Z 0000000180047fc5 f   node:node.exe
 0001:00046fd1       ?ensureDefaultContextInGroup@V8InspectorClient@v8_inspector@@UEAA?AV?$Local@VContext@v8@@@v8@@H@Z 0000000180047fd1 f   node:node.exe
 0001:00046fd7       __imp_load_?isInspectableHeapObject@V8InspectorClient@v8_inspector@@UEAA_NV?$Local@VObject@v8@@@v8@@@Z 0000000180047fd7 f   node:node.exe
 0001:00046fe3       ?isInspectableHeapObject@V8InspectorClient@v8_inspector@@UEAA_NV?$Local@VObject@v8@@@v8@@@Z 0000000180047fe3 f   node:node.exe
 0001:00046fe9       __imp_load_?formatAccessorsAsProperties@V8InspectorClient@v8_inspector@@UEAA_NV?$Local@VValue@v8@@@v8@@@Z 0000000180047fe9 f   node:node.exe
 0001:00046ff5       ?formatAccessorsAsProperties@V8InspectorClient@v8_inspector@@UEAA_NV?$Local@VValue@v8@@@v8@@@Z 0000000180047ff5 f   node:node.exe
 0001:00046ffb       __imp_load_?valueSubtype@V8InspectorClient@v8_inspector@@UEAA?AV?$unique_ptr@VStringBuffer@v8_inspector@@U?$default_delete@VStringBuffer@v8_inspector@@@std@@@std@@V?$Local@VValue@v8@@@v8@@@Z 0000000180047ffb f   node:node.exe
 0001:00047007       ?valueSubtype@V8InspectorClient@v8_inspector@@UEAA?AV?$unique_ptr@VStringBuffer@v8_inspector@@U?$default_delete@VStringBuffer@v8_inspector@@@std@@@std@@V?$Local@VValue@v8@@@v8@@@Z 0000000180048007 f   node:node.exe
 0001:0004700d       __imp_load_?endUserGesture@V8InspectorClient@v8_inspector@@UEAAXXZ 000000018004800d f   node:node.exe
 0001:00047019       ?endUserGesture@V8InspectorClient@v8_inspector@@UEAAXXZ 0000000180048019 f   node:node.exe
 0001:0004701f       __imp_load_?beginUserGesture@V8InspectorClient@v8_inspector@@UEAAXXZ 000000018004801f f   node:node.exe
 0001:0004702b       ?beginUserGesture@V8InspectorClient@v8_inspector@@UEAAXXZ 000000018004802b f   node:node.exe
 0001:00047031       __imp_load_?unmuteMetrics@V8InspectorClient@v8_inspector@@UEAAXH@Z 0000000180048031 f   node:node.exe
 0001:0004703d       ?unmuteMetrics@V8InspectorClient@v8_inspector@@UEAAXH@Z 000000018004803d f   node:node.exe
 0001:00047043       __imp_load_?muteMetrics@V8InspectorClient@v8_inspector@@UEAAXH@Z 0000000180048043 f   node:node.exe
 0001:0004704f       ?muteMetrics@V8InspectorClient@v8_inspector@@UEAAXH@Z 000000018004804f f   node:node.exe
 0001:00047055       __imp_load_?runIfWaitingForDebugger@V8InspectorClient@v8_inspector@@UEAAXH@Z 0000000180048055 f   node:node.exe
 0001:00047061       ?runIfWaitingForDebugger@V8InspectorClient@v8_inspector@@UEAAXH@Z 0000000180048061 f   node:node.exe
 0001:00047067       __imp_load_??1V8InspectorClient@v8_inspector@@UEAA@XZ 0000000180048067 f   node:node.exe
 0001:00047073       __imp_load_??0V8ContextInfo@v8_inspector@@QEAA@V?$Local@VContext@v8@@@v8@@HAEBVStringView@1@@Z 0000000180048073 f   node:node.exe
 0001:0004707f       __imp_load_?New@Private@v8@@SA?AV?$Local@VPrivate@v8@@@2@PEAVIsolate@2@V?$Local@VString@v8@@@2@@Z 000000018004807f f   node:node.exe
 0001:0004708b       __imp_load_?New@Signature@v8@@SA?AV?$Local@VSignature@v8@@@2@PEAVIsolate@2@V?$Local@VFunctionTemplate@v8@@@2@@Z 000000018004808b f   node:node.exe
 0001:00047097       __imp_load_?IsWasm@StackFrame@v8@@QEBA_NXZ 0000000180048097 f   node:node.exe
 0001:000470a3       __imp_load_?IsConstructor@StackFrame@v8@@QEBA_NXZ 00000001800480a3 f   node:node.exe
 0001:000470af       __imp_load_?IsEval@StackFrame@v8@@QEBA_NXZ 00000001800480af f   node:node.exe
 0001:000470bb       __imp_load_?GetFunctionName@StackFrame@v8@@QEBA?AV?$Local@VString@v8@@@2@XZ 00000001800480bb f   node:node.exe
 0001:000470c7       __imp_load_?GetScriptNameOrSourceURL@StackFrame@v8@@QEBA?AV?$Local@VString@v8@@@2@XZ 00000001800480c7 f   node:node.exe
 0001:000470d3       __imp_load_?GetScriptName@StackFrame@v8@@QEBA?AV?$Local@VString@v8@@@2@XZ 00000001800480d3 f   node:node.exe
 0001:000470df       __imp_load_?GetColumn@StackFrame@v8@@QEBAHXZ 00000001800480df f   node:node.exe
 0001:000470eb       __imp_load_?GetLineNumber@StackFrame@v8@@QEBAHXZ 00000001800480eb f   node:node.exe
 0001:000470f7       __imp_load_?GetStackTrace@Exception@v8@@SA?AV?$Local@VStackTrace@v8@@@2@V?$Local@VValue@v8@@@2@@Z 00000001800480f7 f   node:node.exe
 0001:00047103       __imp_load_?TypeError@Exception@v8@@SA?AV?$Local@VValue@v8@@@2@V?$Local@VString@v8@@@2@@Z 0000000180048103 f   node:node.exe
 0001:0004710f       __imp_load_?New@AccessorSignature@v8@@SA?AV?$Local@VAccessorSignature@v8@@@2@PEAVIsolate@2@V?$Local@VFunctionTemplate@v8@@@2@@Z 000000018004810f f   node:node.exe
 0001:0004711b       __imp_load_?New@Array@v8@@SA?AV?$Local@VArray@v8@@@2@PEAVIsolate@2@H@Z 000000018004811b f   node:node.exe
 0001:00047127       __imp_load_?HasInstance@FunctionTemplate@v8@@QEAA_NV?$Local@VValue@v8@@@2@@Z 0000000180048127 f   node:node.exe
 0001:00047133       __imp_load_?SetClassName@FunctionTemplate@v8@@QEAAXV?$Local@VString@v8@@@2@@Z 0000000180048133 f   node:node.exe
 0001:0004713f       __imp_load_?PrototypeTemplate@FunctionTemplate@v8@@QEAA?AV?$Local@VObjectTemplate@v8@@@2@XZ 000000018004813f f   node:node.exe
 0001:0004714b       __imp_load_?InstanceTemplate@FunctionTemplate@v8@@QEAA?AV?$Local@VObjectTemplate@v8@@@2@XZ 000000018004814b f   node:node.exe
 0001:00047157       __imp_load_?New@FunctionTemplate@v8@@SA?AV?$Local@VFunctionTemplate@v8@@@2@PEAVIsolate@2@P6AXAEBV?$FunctionCallbackInfo@VValue@v8@@@2@@ZV?$Local@VValue@v8@@@2@V?$Local@VSignature@v8@@@2@HW4ConstructorBehavior@2@@Z 0000000180048157 f   node:node.exe
 0001:00047163       __imp_load_?Eternalize@V8@v8@@CAPEAVValue@2@PEAVIsolate@2@PEAV32@@Z 0000000180048163 f   node:node.exe
 0001:0004716f       __imp_load_?ClearWeak@V8@v8@@CAPEAXPEAPEAVObject@internal@2@@Z 000000018004816f f   node:node.exe
 0001:0004717b       __imp_load_?MakeWeak@V8@v8@@CAXPEAPEAVObject@internal@2@PEAXP6AXAEBV?$WeakCallbackInfo@X@2@@ZW4WeakCallbackType@2@@Z 000000018004817b f   node:node.exe
 0001:00047187       __imp_load_?ToString@Value@v8@@QEBA?AV?$MaybeLocal@VString@v8@@@2@V?$Local@VContext@v8@@@2@@Z 0000000180048187 f   node:node.exe
 0001:00047193       __imp_load_?IsArray@Value@v8@@QEBA_NXZ 0000000180048193 f   node:node.exe
 0001:0004719f       __imp_load_??1Utf8Value@String@v8@@QEAA@XZ 000000018004819f f   node:node.exe
 0001:000471ab       __imp_load_??0Utf8Value@String@v8@@QEAA@PEAVIsolate@2@V?$Local@VValue@v8@@@2@@Z 00000001800481ab f   node:node.exe
 0001:000471b7       __imp_load_?Concat@String@v8@@SA?AV?$Local@VString@v8@@@2@V32@0@Z 00000001800481b7 f   node:node.exe
 0001:000471c3       __imp_load_?NewFromUtf8@String@v8@@SA?AV?$MaybeLocal@VString@v8@@@2@PEAVIsolate@2@PEBDW4NewStringType@2@H@Z 00000001800481c3 f   node:node.exe
 0001:000471cf       __imp_load_?GetFrameCount@StackTrace@v8@@QEBAHXZ 00000001800481cf f   node:node.exe
 0001:000471db       __imp_load_?GetFrame@StackTrace@v8@@QEBA?AV?$Local@VStackFrame@v8@@@2@I@Z 00000001800481db f   node:node.exe
 0001:000471e7       __imp_load_?SetAlignedPointerInInternalField@Object@v8@@QEAAXHPEAX@Z 00000001800481e7 f   node:node.exe
 0001:000471f3       __imp_load_?GetConstructorName@Object@v8@@QEAA?AV?$Local@VString@v8@@@2@XZ 00000001800481f3 f   node:node.exe
 0001:000471ff       __imp_load_?GetPrivate@Object@v8@@QEAA?AV?$MaybeLocal@VValue@v8@@@2@V?$Local@VContext@v8@@@2@V?$Local@VPrivate@v8@@@2@@Z 00000001800481ff f   node:node.exe
 0001:0004720b       __imp_load_?SetPrivate@Object@v8@@QEAA?AV?$Maybe@_N@2@V?$Local@VContext@v8@@@2@V?$Local@VPrivate@v8@@@2@V?$Local@VValue@v8@@@2@@Z 000000018004820b f   node:node.exe
 0001:00047217       __imp_load_?SetAccessor@Object@v8@@QEAA?AV?$Maybe@_N@2@V?$Local@VContext@v8@@@2@V?$Local@VName@v8@@@2@P6AX1AEBV?$PropertyCallbackInfo@VValue@v8@@@2@@ZP6AX1V?$Local@VValue@v8@@@2@AEBV?$PropertyCallbackInfo@X@2@@ZV?$MaybeLocal@VValue@v8@@@2@W4AccessControl@2@W4PropertyAttribute@2@@Z 0000000180048217 f   node:node.exe
 0001:00047223       __imp_load_?Get@Object@v8@@QEAA?AV?$MaybeLocal@VValue@v8@@@2@V?$Local@VContext@v8@@@2@V?$Local@VValue@v8@@@2@@Z 0000000180048223 f   node:node.exe
 0001:0004722f       __imp_load_?Get@Object@v8@@QEAA?AV?$MaybeLocal@VValue@v8@@@2@V?$Local@VContext@v8@@@2@I@Z 000000018004822f f   node:node.exe
 0001:0004723b       __imp_load_?Set@Object@v8@@QEAA?AV?$Maybe@_N@2@V?$Local@VContext@v8@@@2@IV?$Local@VValue@v8@@@2@@Z 000000018004823b f   node:node.exe
 0001:00047247       __imp_load_?SetInternalFieldCount@ObjectTemplate@v8@@QEAAXH@Z 0000000180048247 f   node:node.exe
 0001:00047253       __imp_load_?NewInstance@ObjectTemplate@v8@@QEAA?AV?$MaybeLocal@VObject@v8@@@2@V?$Local@VContext@v8@@@2@@Z 0000000180048253 f   node:node.exe
 0001:0004725f       __imp_load_??DUtf8Value@String@v8@@QEBAPEBDXZ 000000018004825f f   node:node.exe
 0001:0004726b       __imp_load_?Reject@Resolver@Promise@v8@@QEAA?AV?$Maybe@_N@3@V?$Local@VContext@v8@@@3@V?$Local@VValue@v8@@@3@@Z 000000018004826b f   node:node.exe
 0001:00047277       __imp_load_?Resolve@Resolver@Promise@v8@@QEAA?AV?$Maybe@_N@3@V?$Local@VContext@v8@@@3@V?$Local@VValue@v8@@@3@@Z 0000000180048277 f   node:node.exe
 0001:00047283       __imp_load_?GetPromise@Resolver@Promise@v8@@QEAA?AV?$Local@VPromise@v8@@@3@XZ 0000000180048283 f   node:node.exe
 0001:0004728f       __imp_load_?IsLocked@Locker@v8@@SA_NPEAVIsolate@2@@Z 000000018004828f f   node:node.exe
 0001:0004729b       __imp_load_?IsObject@Value@v8@@QEBA_NXZ 000000018004829b f   node:node.exe
 0001:000472a7       __imp_load_?Reset@TryCatch@v8@@QEAAXXZ 00000001800482a7 f   node:node.exe
 0001:000472b3       __imp_load_?Exception@TryCatch@v8@@QEBA?AV?$Local@VValue@v8@@@2@XZ 00000001800482b3 f   node:node.exe
 0001:000472bf       __imp_load_?ReThrow@TryCatch@v8@@QEAA?AV?$Local@VValue@v8@@@2@XZ 00000001800482bf f   node:node.exe
 0001:000472cb       __imp_load_?HasCaught@TryCatch@v8@@QEBA_NXZ 00000001800482cb f   node:node.exe
 0001:000472d7       __imp_load_??1TryCatch@v8@@QEAA@XZ 00000001800482d7 f   node:node.exe
 0001:000472e3       __imp_load_??0TryCatch@v8@@QEAA@PEAVIsolate@1@@Z 00000001800482e3 f   node:node.exe
 0001:000472ef       __imp_load_?CurrentStackTrace@StackTrace@v8@@SA?AV?$Local@VStackTrace@v8@@@2@PEAVIsolate@2@HW4StackTraceOptions@12@@Z 00000001800482ef f   node:node.exe
 0001:000472fb       __imp_load_?EmitAsyncInit__New@node@@YA?AUasync_context@1@PEAVIsolate@v8@@V?$Local@VObject@v8@@@4@V?$Local@VString@v8@@@4@N@Z 00000001800482fb f   node:node.exe
 0001:00047307       __imp_load_??1CallbackScope@node@@QEAA@XZ 0000000180048307 f   node:node.exe
 0001:00047313       __imp_load_??0CallbackScope@node@@QEAA@PEAVIsolate@v8@@V?$Local@VObject@v8@@@3@Uasync_context@1@@Z 0000000180048313 f   node:node.exe
 0001:0004731f       __imp_load_?EmitAsyncDestroy@node@@YAXPEAVIsolate@v8@@Uasync_context@1@@Z 000000018004831f f   node:node.exe
 0001:0004732b       __imp_load_?Set@Template@v8@@QEAAXV?$Local@VName@v8@@@2@V?$Local@VData@v8@@@2@W4PropertyAttribute@2@@Z 000000018004832b f   node:node.exe
 0001:00047337       __imp_load_?Inherit@FunctionTemplate@v8@@QEAAXV?$Local@VFunctionTemplate@v8@@@2@@Z 0000000180048337 f   node:node.exe
 0001:00047343       __imp_load_?CreateDataProperty@Object@v8@@QEAA?AV?$Maybe@_N@2@V?$Local@VContext@v8@@@2@V?$Local@VName@v8@@@2@V?$Local@VValue@v8@@@2@@Z 0000000180048343 f   node:node.exe
 0001:0004734f       __imp_load_?SetAccessor@ObjectTemplate@v8@@QEAAXV?$Local@VString@v8@@@2@P6AX0AEBV?$PropertyCallbackInfo@VValue@v8@@@2@@ZP6AX0V?$Local@VValue@v8@@@2@AEBV?$PropertyCallbackInfo@X@2@@Z3W4AccessControl@2@W4PropertyAttribute@2@V?$Local@VAccessorSignature@v8@@@2@@Z 000000018004834f f   node:node.exe
 0001:0004735b       __imp_load_?New@Uint8Array@v8@@SA?AV?$Local@VUint8Array@v8@@@2@V?$Local@VArrayBuffer@v8@@@2@_K1@Z 000000018004835b f   node:node.exe
 0001:00047367       __imp_load_?New@Uint8Array@v8@@SA?AV?$Local@VUint8Array@v8@@@2@V?$Local@VSharedArrayBuffer@v8@@@2@_K1@Z 0000000180048367 f   node:node.exe
 0001:00047373       __imp_load_?New@Uint8ClampedArray@v8@@SA?AV?$Local@VUint8ClampedArray@v8@@@2@V?$Local@VArrayBuffer@v8@@@2@_K1@Z 0000000180048373 f   node:node.exe
 0001:0004737f       __imp_load_?New@Uint8ClampedArray@v8@@SA?AV?$Local@VUint8ClampedArray@v8@@@2@V?$Local@VSharedArrayBuffer@v8@@@2@_K1@Z 000000018004837f f   node:node.exe
 0001:0004738b       __imp_load_?New@DataView@v8@@SA?AV?$Local@VDataView@v8@@@2@V?$Local@VArrayBuffer@v8@@@2@_K1@Z 000000018004838b f   node:node.exe
 0001:00047397       __imp_load_?New@DataView@v8@@SA?AV?$Local@VDataView@v8@@@2@V?$Local@VSharedArrayBuffer@v8@@@2@_K1@Z 0000000180048397 f   node:node.exe
 0001:000473a3       __imp_load_?New@Integer@v8@@SA?AV?$Local@VInteger@v8@@@2@PEAVIsolate@2@H@Z 00000001800483a3 f   node:node.exe
 0001:000473af       __imp_load_?New@Int8Array@v8@@SA?AV?$Local@VInt8Array@v8@@@2@V?$Local@VArrayBuffer@v8@@@2@_K1@Z 00000001800483af f   node:node.exe
 0001:000473bb       __imp_load_?New@Int8Array@v8@@SA?AV?$Local@VInt8Array@v8@@@2@V?$Local@VSharedArrayBuffer@v8@@@2@_K1@Z 00000001800483bb f   node:node.exe
 0001:000473c7       __imp_load_?HasBuffer@ArrayBufferView@v8@@QEBA_NXZ 00000001800483c7 f   node:node.exe
 0001:000473d3       __imp_load_?ByteLength@ArrayBufferView@v8@@QEAA_KXZ 00000001800483d3 f   node:node.exe
 0001:000473df       __imp_load_?ByteOffset@ArrayBufferView@v8@@QEAA_KXZ 00000001800483df f   node:node.exe
 0001:000473eb       __imp_load_?Buffer@ArrayBufferView@v8@@QEAA?AV?$Local@VArrayBuffer@v8@@@2@XZ 00000001800483eb f   node:node.exe
 0001:000473f7       __imp_load_?SyntaxError@Exception@v8@@SA?AV?$Local@VValue@v8@@@2@V?$Local@VString@v8@@@2@@Z 00000001800483f7 f   node:node.exe
 0001:00047403       __imp_load_?ReferenceError@Exception@v8@@SA?AV?$Local@VValue@v8@@@2@V?$Local@VString@v8@@@2@@Z 0000000180048403 f   node:node.exe
 0001:0004740f       __imp_load_?RangeError@Exception@v8@@SA?AV?$Local@VValue@v8@@@2@V?$Local@VString@v8@@@2@@Z 000000018004840f f   node:node.exe
 0001:0004741b       __imp_load_?New@Float32Array@v8@@SA?AV?$Local@VFloat32Array@v8@@@2@V?$Local@VArrayBuffer@v8@@@2@_K1@Z 000000018004841b f   node:node.exe
 0001:00047427       __imp_load_?New@Float32Array@v8@@SA?AV?$Local@VFloat32Array@v8@@@2@V?$Local@VSharedArrayBuffer@v8@@@2@_K1@Z 0000000180048427 f   node:node.exe
 0001:00047433       __imp_load_?ValueOf@Date@v8@@QEBANXZ 0000000180048433 f   node:node.exe
 0001:0004743f       __imp_load_?New@Date@v8@@SA?AV?$MaybeLocal@VValue@v8@@@2@V?$Local@VContext@v8@@@2@N@Z 000000018004843f f   node:node.exe
 0001:0004744b       __imp_load_?Value@Boolean@v8@@QEBA_NXZ 000000018004844b f   node:node.exe
 0001:00047457       __imp_load_?GetContents@ArrayBuffer@v8@@QEAA?AVContents@12@XZ 0000000180048457 f   node:node.exe
 0001:00047463       __imp_load_?Externalize@ArrayBuffer@v8@@QEAA?AVContents@12@XZ 0000000180048463 f   node:node.exe
 0001:0004746f       __imp_load_?Neuter@ArrayBuffer@v8@@QEAAXXZ 000000018004846f f   node:node.exe
 0001:0004747b       __imp_load_?IsNeuterable@ArrayBuffer@v8@@QEBA_NXZ 000000018004847b f   node:node.exe
 0001:00047487       __imp_load_?IsExternal@ArrayBuffer@v8@@QEBA_NXZ 0000000180048487 f   node:node.exe
 0001:00047493       __imp_load_?New@ArrayBuffer@v8@@SA?AV?$Local@VArrayBuffer@v8@@@2@PEAVIsolate@2@_K@Z 0000000180048493 f   node:node.exe
 0001:0004749f       __imp_load_?New@ArrayBuffer@v8@@SA?AV?$Local@VArrayBuffer@v8@@@2@PEAVIsolate@2@PEAX_KW4ArrayBufferCreationMode@2@@Z 000000018004849f f   node:node.exe
 0001:000474ab       __imp_load_?ByteLength@ArrayBuffer@v8@@QEBA_KXZ 00000001800484ab f   node:node.exe
 0001:000474b7       __imp_load_?IsSharedArrayBuffer@Value@v8@@QEBA_NXZ 00000001800484b7 f   node:node.exe
 0001:000474c3       __imp_load_?IsDataView@Value@v8@@QEBA_NXZ 00000001800484c3 f   node:node.exe
 0001:000474cf       __imp_load_?IsFloat64Array@Value@v8@@QEBA_NXZ 00000001800484cf f   node:node.exe
 0001:000474db       __imp_load_?IsFloat32Array@Value@v8@@QEBA_NXZ 00000001800484db f   node:node.exe
 0001:000474e7       __imp_load_?IsInt32Array@Value@v8@@QEBA_NXZ 00000001800484e7 f   node:node.exe
 0001:000474f3       __imp_load_?IsUint32Array@Value@v8@@QEBA_NXZ 00000001800484f3 f   node:node.exe
 0001:000474ff       __imp_load_?IsInt16Array@Value@v8@@QEBA_NXZ 00000001800484ff f   node:node.exe
 0001:0004750b       __imp_load_?IsUint16Array@Value@v8@@QEBA_NXZ 000000018004850b f   node:node.exe
 0001:00047517       __imp_load_?IsInt8Array@Value@v8@@QEBA_NXZ 0000000180048517 f   node:node.exe
 0001:00047523       __imp_load_?IsUint8ClampedArray@Value@v8@@QEBA_NXZ 0000000180048523 f   node:node.exe
 0001:0004752f       __imp_load_?IsUint8Array@Value@v8@@QEBA_NXZ 000000018004852f f   node:node.exe
 0001:0004753b       __imp_load_?IsArrayBufferView@Value@v8@@QEBA_NXZ 000000018004853b f   node:node.exe
 0001:00047547       __imp_load_?IsArrayBuffer@Value@v8@@QEBA_NXZ 0000000180048547 f   node:node.exe
 0001:00047553       __imp_load_?IsDate@Value@v8@@QEBA_NXZ 0000000180048553 f   node:node.exe
 0001:0004755f       __imp_load_?IsUint32@Value@v8@@QEBA_NXZ 000000018004855f f   node:node.exe
 0001:0004756b       __imp_load_?IsInt32@Value@v8@@QEBA_NXZ 000000018004856b f   node:node.exe
 0001:00047577       __imp_load_?IsNumber@Value@v8@@QEBA_NXZ 0000000180048577 f   node:node.exe
 0001:00047583       __imp_load_?IsBoolean@Value@v8@@QEBA_NXZ 0000000180048583 f   node:node.exe
 0001:0004758f       __imp_load_?IsSymbol@Value@v8@@QEBA_NXZ 000000018004858f f   node:node.exe
 0001:0004759b       __imp_load_?TransferSharedArrayBuffer@ValueDeserializer@v8@@QEAAXIV?$Local@VSharedArrayBuffer@v8@@@2@@Z 000000018004859b f   node:node.exe
 0001:000475a7       __imp_load_?TransferArrayBuffer@ValueDeserializer@v8@@QEAAXIV?$Local@VArrayBuffer@v8@@@2@@Z 00000001800485a7 f   node:node.exe
 0001:000475b3       __imp_load_?ReadValue@ValueDeserializer@v8@@QEAA?AV?$MaybeLocal@VValue@v8@@@2@V?$Local@VContext@v8@@@2@@Z 00000001800485b3 f   node:node.exe
 0001:000475bf       __imp_load_?ReadHeader@ValueDeserializer@v8@@QEAA?AV?$Maybe@_N@2@V?$Local@VContext@v8@@@2@@Z 00000001800485bf f   node:node.exe
 0001:000475cb       __imp_load_??1ValueDeserializer@v8@@QEAA@XZ 00000001800485cb f   node:node.exe
 0001:000475d7       __imp_load_??0ValueDeserializer@v8@@QEAA@PEAVIsolate@1@PEBE_KPEAVDelegate@01@@Z 00000001800485d7 f   node:node.exe
 0001:000475e3       __imp_load_?New@Float64Array@v8@@SA?AV?$Local@VFloat64Array@v8@@@2@V?$Local@VArrayBuffer@v8@@@2@_K1@Z 00000001800485e3 f   node:node.exe
 0001:000475ef       __imp_load_?New@Float64Array@v8@@SA?AV?$Local@VFloat64Array@v8@@@2@V?$Local@VSharedArrayBuffer@v8@@@2@_K1@Z 00000001800485ef f   node:node.exe
 0001:000475fb       __imp_load_?Value@Uint32@v8@@QEBAIXZ 00000001800485fb f   node:node.exe
 0001:00047607       __imp_load_?New@Uint16Array@v8@@SA?AV?$Local@VUint16Array@v8@@@2@V?$Local@VArrayBuffer@v8@@@2@_K1@Z 0000000180048607 f   node:node.exe
 0001:00047613       __imp_load_?New@Uint16Array@v8@@SA?AV?$Local@VUint16Array@v8@@@2@V?$Local@VSharedArrayBuffer@v8@@@2@_K1@Z 0000000180048613 f   node:node.exe
 0001:0004761f       __imp_load_?NewExternalOneByte@String@v8@@SA?AV?$MaybeLocal@VString@v8@@@2@PEAVIsolate@2@PEAVExternalOneByteStringResource@12@@Z 000000018004861f f   node:node.exe
 0001:0004762b       __imp_load_?NewExternalTwoByte@String@v8@@SA?AV?$MaybeLocal@VString@v8@@@2@PEAVIsolate@2@PEAVExternalStringResource@12@@Z 000000018004862b f   node:node.exe
 0001:00047637       __imp_load_?NewFromTwoByte@String@v8@@SA?AV?$MaybeLocal@VString@v8@@@2@PEAVIsolate@2@PEBGW4NewStringType@2@H@Z 0000000180048637 f   node:node.exe
 0001:00047643       __imp_load_?WriteOneByte@String@v8@@QEBAHPEAEHHH@Z 0000000180048643 f   node:node.exe
 0001:0004764f       __imp_load_?Write@String@v8@@QEBAHPEAGHHH@Z 000000018004864f f   node:node.exe
 0001:0004765b       __imp_load_?IsOneByte@String@v8@@QEBA_NXZ 000000018004865b f   node:node.exe
 0001:00047667       __imp_load_?Length@String@v8@@QEBAHXZ 0000000180048667 f   node:node.exe
 0001:00047673       __imp_load_?Externalize@SharedArrayBuffer@v8@@QEAA?AVContents@12@XZ 0000000180048673 f   node:node.exe
 0001:0004767f       __imp_load_?IsExternal@SharedArrayBuffer@v8@@QEBA_NXZ 000000018004867f f   node:node.exe
 0001:0004768b       __imp_load_?New@SharedArrayBuffer@v8@@SA?AV?$Local@VSharedArrayBuffer@v8@@@2@PEAVIsolate@2@PEAX_KW4ArrayBufferCreationMode@2@@Z 000000018004868b f   node:node.exe
 0001:00047697       __imp_load_?ByteLength@SharedArrayBuffer@v8@@QEBA_KXZ 0000000180048697 f   node:node.exe
 0001:000476a3       __imp_load_?Value@Int32@v8@@QEBAHXZ 00000001800486a3 f   node:node.exe
 0001:000476af       __imp_load_?New@Int32Array@v8@@SA?AV?$Local@VInt32Array@v8@@@2@V?$Local@VArrayBuffer@v8@@@2@_K1@Z 00000001800486af f   node:node.exe
 0001:000476bb       __imp_load_?New@Int32Array@v8@@SA?AV?$Local@VInt32Array@v8@@@2@V?$Local@VSharedArrayBuffer@v8@@@2@_K1@Z 00000001800486bb f   node:node.exe
 0001:000476c7       __imp_load_?New@Number@v8@@SA?AV?$Local@VNumber@v8@@@2@PEAVIsolate@2@N@Z 00000001800486c7 f   node:node.exe
 0001:000476d3       __imp_load_?Value@Number@v8@@QEBANXZ 00000001800486d3 f   node:node.exe
 0001:000476df       __imp_load_?TransferArrayBuffer@ValueSerializer@v8@@QEAAXIV?$Local@VArrayBuffer@v8@@@2@@Z 00000001800486df f   node:node.exe
 0001:000476eb       __imp_load_?Release@ValueSerializer@v8@@QEAA?AU?$pair@PEAE_K@std@@XZ 00000001800486eb f   node:node.exe
 0001:000476f7       __imp_load_?WriteValue@ValueSerializer@v8@@QEAA?AV?$Maybe@_N@2@V?$Local@VContext@v8@@@2@V?$Local@VValue@v8@@@2@@Z 00000001800486f7 f   node:node.exe
 0001:00047703       __imp_load_?WriteHeader@ValueSerializer@v8@@QEAAXXZ 0000000180048703 f   node:node.exe
 0001:0004770f       __imp_load_??1ValueSerializer@v8@@QEAA@XZ 000000018004870f f   node:node.exe
 0001:0004771b       __imp_load_??0ValueSerializer@v8@@QEAA@PEAVIsolate@1@PEAVDelegate@01@@Z 000000018004871b f   node:node.exe
 0001:00047727       __imp_load_?New@Int16Array@v8@@SA?AV?$Local@VInt16Array@v8@@@2@V?$Local@VArrayBuffer@v8@@@2@_K1@Z 0000000180048727 f   node:node.exe
 0001:00047733       __imp_load_?New@Int16Array@v8@@SA?AV?$Local@VInt16Array@v8@@@2@V?$Local@VSharedArrayBuffer@v8@@@2@_K1@Z 0000000180048733 f   node:node.exe
 0001:0004773f       __imp_load_?New@Uint32Array@v8@@SA?AV?$Local@VUint32Array@v8@@@2@V?$Local@VArrayBuffer@v8@@@2@_K1@Z 000000018004873f f   node:node.exe
 0001:0004774b       __imp_load_?New@Uint32Array@v8@@SA?AV?$Local@VUint32Array@v8@@@2@V?$Local@VSharedArrayBuffer@v8@@@2@_K1@Z 000000018004874b f   node:node.exe
 0001:00047757       __imp_load_??0ExternalOneByteStringResource@String@v8@@IEAA@XZ 0000000180048757 f   node:node.exe
 0001:00047763       __imp_load_??1ExternalOneByteStringResource@String@v8@@UEAA@XZ 0000000180048763 f   node:node.exe
 0001:0004776f       __imp_load_??0ExternalStringResource@String@v8@@IEAA@XZ 000000018004876f f   node:node.exe
 0001:0004777b       __imp_load_??1ExternalStringResource@String@v8@@UEAA@XZ 000000018004877b f   node:node.exe
 0001:00047787       __imp_load_?Dispose@ExternalStringResourceBase@String@v8@@MEAAXXZ 0000000180048787 f   node:node.exe
 0001:00047793       ?Dispose@ExternalStringResourceBase@String@v8@@MEAAXXZ 0000000180048793 f   node:node.exe
 0001:00047799       __imp_load_?IsCompressible@ExternalStringResourceBase@String@v8@@UEBA_NXZ 0000000180048799 f   node:node.exe
 0001:000477a5       ?IsCompressible@ExternalStringResourceBase@String@v8@@UEBA_NXZ 00000001800487a5 f   node:node.exe
 0001:000477ab       __imp_load_??1Delegate@ValueDeserializer@v8@@UEAA@XZ 00000001800487ab f   node:node.exe
 0001:000477b7       __imp_load_??1Delegate@ValueSerializer@v8@@UEAA@XZ 00000001800487b7 f   node:node.exe
 0001:000477c3       __imp_load_?ReportExternalAllocationLimitReached@Isolate@v8@@AEAAXXZ 00000001800487c3 f   node:node.exe
 0001:000477cf       __imp_load_?SetAccessorProperty@Template@v8@@QEAAXV?$Local@VName@v8@@@2@V?$Local@VFunctionTemplate@v8@@@2@1W4PropertyAttribute@2@W4AccessControl@2@@Z 00000001800487cf f   node:node.exe
 0001:000477db       __imp_load_?Length@Array@v8@@QEBAIXZ 00000001800487db f   node:node.exe
 0001:000477e7       __imp_load_?ToBoolean@Value@v8@@QEBA?AV?$MaybeLocal@VBoolean@v8@@@2@V?$Local@VContext@v8@@@2@@Z 00000001800487e7 f   node:node.exe
 0001:000477f3       __imp_load_?IsTrue@Value@v8@@QEBA_NXZ 00000001800487f3 f   node:node.exe
 0001:000477ff       __imp_load_?GetCurrentPlatform@V8@internal@v8@@SAPEAVPlatform@3@XZ 00000001800487ff f   node:node.exe
 0001:0004780b       __imp_load_?ShutdownPlatform@V8@v8@@SAXXZ 000000018004880b f   node:node.exe
 0001:00047817       __imp_load_?InitializePlatform@V8@v8@@SAXPEAVPlatform@2@@Z 0000000180048817 f   node:node.exe
 0001:00047823       __imp_load_?SetFlagsFromCommandLine@V8@v8@@SAXPEAHPEAPEAD_N@Z 0000000180048823 f   node:node.exe
 0001:0004782f       __imp_load_node_module_register 000000018004882f f   node:node.exe
 0001:0004783b       __imp_load_?DetachGlobal@Context@v8@@QEAAXXZ 000000018004883b f   node:node.exe
 0001:00047847       __imp_load_?Global@Context@v8@@QEAA?AV?$Local@VObject@v8@@@2@XZ 0000000180048847 f   node:node.exe
 0001:00047853       __imp_load_?New@Resolver@Promise@v8@@SA?AV?$MaybeLocal@VResolver@Promise@v8@@@3@V?$Local@VContext@v8@@@3@@Z 0000000180048853 f   node:node.exe
 0001:0004785f       __imp_load_?ContextDisposedNotification@Isolate@v8@@QEAAH_N@Z 000000018004885f f   node:node.exe
 0001:0004786b       __imp_load_??1CachedData@ScriptCompiler@v8@@QEAA@XZ 000000018004886b f   node:node.exe
 0001:00047877       __imp_load_??0CachedData@ScriptCompiler@v8@@QEAA@PEBEHW4BufferPolicy@012@@Z 0000000180048877 f   node:node.exe
 0001:00047883       __imp_load_?CompileModule@ScriptCompiler@v8@@SA?AV?$MaybeLocal@VModule@v8@@@2@PEAVIsolate@2@PEAVSource@12@@Z 0000000180048883 f   node:node.exe
 0001:0004788f       __imp_load_?Compile@ScriptCompiler@v8@@SA?AV?$MaybeLocal@VScript@v8@@@2@V?$Local@VContext@v8@@@2@PEAVSource@12@W4CompileOptions@12@@Z 000000018004888f f   node:node.exe
 0001:0004789b       __imp_load_?CompileUnboundScript@ScriptCompiler@v8@@SA?AV?$MaybeLocal@VUnboundScript@v8@@@2@PEAVIsolate@2@PEAVSource@12@W4CompileOptions@12@@Z 000000018004889b f   node:node.exe
 0001:000478a7       __imp_load_?CreateBlob@SnapshotCreator@v8@@QEAA?AVStartupData@2@W4FunctionCodeHandling@12@@Z 00000001800488a7 f   node:node.exe
 0001:000478b3       __imp_load_?AddContext@SnapshotCreator@v8@@QEAA_KV?$Local@VContext@v8@@@2@USerializeInternalFieldsCallback@2@@Z 00000001800488b3 f   node:node.exe
 0001:000478bf       __imp_load_?SetDefaultContext@SnapshotCreator@v8@@QEAAXV?$Local@VContext@v8@@@2@@Z 00000001800488bf f   node:node.exe
 0001:000478cb       __imp_load_?GetIsolate@SnapshotCreator@v8@@QEAAPEAVIsolate@2@XZ 00000001800488cb f   node:node.exe
 0001:000478d7       __imp_load_??1SnapshotCreator@v8@@QEAA@XZ 00000001800488d7 f   node:node.exe
 0001:000478e3       __imp_load_??0SnapshotCreator@v8@@QEAA@PEB_JPEAVStartupData@1@@Z 00000001800488e3 f   node:node.exe
 0001:000478ef       __imp_load_?BindToCurrentContext@UnboundScript@v8@@QEAA?AV?$Local@VScript@v8@@@2@XZ 00000001800488ef f   node:node.exe
 0001:000478fb       __imp_load_?ToLocalEmpty@V8@v8@@CAXXZ 00000001800488fb f   node:node.exe
 0001:00047907       __imp_load_?ToArrayIndex@Value@v8@@QEBA?AV?$MaybeLocal@VUint32@v8@@@2@V?$Local@VContext@v8@@@2@@Z 0000000180048907 f   node:node.exe
 0001:00047913       __imp_load_?GetStartColumn@Message@v8@@QEBA?AV?$Maybe@H@2@V?$Local@VContext@v8@@@2@@Z 0000000180048913 f   node:node.exe
 0001:0004791f       __imp_load_?GetLineNumber@Message@v8@@QEBA?AV?$Maybe@H@2@V?$Local@VContext@v8@@@2@@Z 000000018004891f f   node:node.exe
 0001:0004792b       __imp_load_?GetScriptResourceName@Message@v8@@QEBA?AV?$Local@VValue@v8@@@2@XZ 000000018004892b f   node:node.exe
 0001:00047937       __imp_load_?Message@TryCatch@v8@@QEBA?AV?$Local@VMessage@v8@@@2@XZ 0000000180048937 f   node:node.exe
 0001:00047943       __imp_load_?GetUnboundScript@Script@v8@@QEAA?AV?$Local@VUnboundScript@v8@@@2@XZ 0000000180048943 f   node:node.exe
 0001:0004794f       __imp_load_?Run@Script@v8@@QEAA?AV?$MaybeLocal@VValue@v8@@@2@V?$Local@VContext@v8@@@2@@Z 000000018004894f f   node:node.exe
 0001:0004795b       __imp_load_?New@Object@v8@@SA?AV?$Local@VObject@v8@@@2@PEAVIsolate@2@@Z 000000018004895b f   node:node.exe
 0001:00047967       __imp_load_?GetOwnPropertyNames@Object@v8@@QEAA?AV?$MaybeLocal@VArray@v8@@@2@V?$Local@VContext@v8@@@2@@Z 0000000180048967 f   node:node.exe
 0001:00047973       __imp_load_uv_hrtime       0000000180048973 f   node:node.exe
 0001:0004797f       __imp_load_uv_dlsym        000000018004897f f   node:node.exe
 0001:0004798b       __imp_load_uv_dlopen       000000018004898b f   node:node.exe
 0001:00047997       __imp_load_uv_dlclose      0000000180048997 f   node:node.exe
 0001:000479a3       __imp_load_?Value@External@v8@@QEBAPEAXXZ 00000001800489a3 f   node:node.exe
 0001:000479af       __imp_load_?New@External@v8@@SA?AV?$Local@VExternal@v8@@@2@PEAVIsolate@2@PEAX@Z 00000001800489af f   node:node.exe
 0001:000479bb       __imp_load_?CancelTerminateExecution@Isolate@v8@@QEAAXXZ 00000001800489bb f   node:node.exe
 0001:000479c7       __imp_load_?GetFunction@FunctionTemplate@v8@@QEAA?AV?$MaybeLocal@VFunction@v8@@@2@V?$Local@VContext@v8@@@2@@Z 00000001800489c7 f   node:node.exe
 0001:000479d3       __imp_load_?IsPromise@Value@v8@@QEBA_NXZ 00000001800489d3 f   node:node.exe
 0001:000479df       __imp_load_?IsFunction@Value@v8@@QEBA_NXZ 00000001800489df f   node:node.exe
 0001:000479eb       __imp_load_?Compile@Script@v8@@SA?AV?$MaybeLocal@VScript@v8@@@2@V?$Local@VContext@v8@@@2@V?$Local@VString@v8@@@2@PEAVScriptOrigin@2@@Z 00000001800489eb f   node:node.exe
 0001:000479f7       __imp_load_?Delete@Object@v8@@QEAA?AV?$Maybe@_N@2@V?$Local@VContext@v8@@@2@V?$Local@VValue@v8@@@2@@Z 00000001800489f7 f   node:node.exe
 0001:00047a03       __imp_load_?Call@Function@v8@@QEAA?AV?$MaybeLocal@VValue@v8@@@2@V?$Local@VContext@v8@@@2@V?$Local@VValue@v8@@@2@HQEAV52@@Z 0000000180048a03 f   node:node.exe
 0001:00047a0f       __imp_load_?GetModuleNamespace@Module@v8@@QEAA?AV?$Local@VValue@v8@@@2@XZ 0000000180048a0f f   node:node.exe
 0001:00047a1b       __imp_load_?Evaluate@Module@v8@@QEAA?AV?$MaybeLocal@VValue@v8@@@2@V?$Local@VContext@v8@@@2@@Z 0000000180048a1b f   node:node.exe
 0001:00047a27       __imp_load_?InstantiateModule@Module@v8@@QEAA?AV?$Maybe@_N@2@V?$Local@VContext@v8@@@2@P6A?AV?$MaybeLocal@VModule@v8@@@2@0V?$Local@VString@v8@@@2@V?$Local@VModule@v8@@@2@@Z@Z 0000000180048a27 f   node:node.exe
 0001:00047a33       __imp_load_?GetIdentityHash@Module@v8@@QEBAHXZ 0000000180048a33 f   node:node.exe
 0001:00047a3f       __imp_load_?GetModuleRequest@Module@v8@@QEBA?AV?$Local@VString@v8@@@2@H@Z 0000000180048a3f f   node:node.exe
 0001:00047a4b       __imp_load_?GetModuleRequestsLength@Module@v8@@QEBAHXZ 0000000180048a4b f   node:node.exe
 0001:00047a57       __imp_load_?GetStatus@Module@v8@@QEBA?AW4Status@12@XZ 0000000180048a57 f   node:node.exe
 0001:00047a63       __imp_load_?Resolve@Resolver@Promise@v8@@QEAAXV?$Local@VValue@v8@@@3@@Z 0000000180048a63 f   node:node.exe
 0001:00047a6f       __imp_load_?Then@Promise@v8@@QEAA?AV?$MaybeLocal@VPromise@v8@@@2@V?$Local@VContext@v8@@@2@V?$Local@VFunction@v8@@@2@@Z 0000000180048a6f f   node:node.exe
 0001:00047a7b       __imp_load_?Catch@Promise@v8@@QEAA?AV?$MaybeLocal@VPromise@v8@@@2@V?$Local@VContext@v8@@@2@V?$Local@VFunction@v8@@@2@@Z 0000000180048a7b f   node:node.exe
 0001:00047a87       __imp_load_?Set@Object@v8@@QEAA_NIV?$Local@VValue@v8@@@2@@Z 0000000180048a87 f   node:node.exe
 0001:00047a93       __imp_load_?New@Function@v8@@SA?AV?$MaybeLocal@VFunction@v8@@@2@V?$Local@VContext@v8@@@2@P6AXAEBV?$FunctionCallbackInfo@VValue@v8@@@2@@ZV?$Local@VValue@v8@@@2@HW4ConstructorBehavior@2@@Z 0000000180048a93 f   node:node.exe
 0001:00047a9f       __imp_load_?ToString@Value@v8@@QEBA?AV?$Local@VString@v8@@@2@XZ 0000000180048a9f f   node:node.exe
 0001:00047aac       ??1GlobalCore@details@Concurrency@@QEAA@XZ 0000000180048aac f i libcpmt:cond.obj
 0001:00047abc       ?create_stl_condition_variable@details@Concurrency@@YAXPEAVstl_condition_variable_interface@12@@Z 0000000180048abc f i libcpmt:cond.obj
 0001:00047b50       ?destroy@stl_condition_variable_concrt@details@Concurrency@@UEAAXXZ 0000000180048b50 f i libcpmt:cond.obj
 0001:00047c44       ?notify_all@stl_condition_variable_concrt@details@Concurrency@@UEAAXXZ 0000000180048c44 f i libcpmt:cond.obj
 0001:00047c50       ?notify_all@stl_condition_variable_vista@details@Concurrency@@UEAAXXZ 0000000180048c50 f i libcpmt:cond.obj
 0001:00047c50       ?notify_all@stl_condition_variable_win7@details@Concurrency@@UEAAXXZ 0000000180048c50 f i libcpmt:cond.obj
 0001:00047c5c       ?notify_one@stl_condition_variable_concrt@details@Concurrency@@UEAAXXZ 0000000180048c5c f i libcpmt:cond.obj
 0001:00047c68       ?notify_one@stl_condition_variable_win7@details@Concurrency@@UEAAXXZ 0000000180048c68 f i libcpmt:cond.obj
 0001:00047c68       ?notify_one@stl_condition_variable_vista@details@Concurrency@@UEAAXXZ 0000000180048c68 f i libcpmt:cond.obj
 0001:00047c74       ?wait@stl_condition_variable_concrt@details@Concurrency@@UEAAXPEAVstl_critical_section_interface@23@@Z 0000000180048c74 f i libcpmt:cond.obj
 0001:00047c84       ?wait@stl_condition_variable_vista@details@Concurrency@@UEAAXPEAVstl_critical_section_interface@23@@Z 0000000180048c84 f i libcpmt:cond.obj
 0001:00047ca8       ?wait@stl_condition_variable_win7@details@Concurrency@@UEAAXPEAVstl_critical_section_interface@23@@Z 0000000180048ca8 f i libcpmt:cond.obj
 0001:00047cd0       ?wait_for@stl_condition_variable_concrt@details@Concurrency@@UEAA_NPEAVstl_critical_section_interface@23@I@Z 0000000180048cd0 f i libcpmt:cond.obj
 0001:00047ce0       ?wait_for@stl_condition_variable_vista@details@Concurrency@@UEAA_NPEAVstl_critical_section_interface@23@I@Z 0000000180048ce0 f i libcpmt:cond.obj
 0001:00047cfc       ?wait_for@stl_condition_variable_win7@details@Concurrency@@UEAA_NPEAVstl_critical_section_interface@23@I@Z 0000000180048cfc f i libcpmt:cond.obj
 0001:00047d1c       _Cnd_broadcast             0000000180048d1c f   libcpmt:cond.obj
 0001:00047d4c       _Cnd_destroy               0000000180048d4c f   libcpmt:cond.obj
 0001:00047d6c       _Cnd_destroy_in_situ       0000000180048d6c f   libcpmt:cond.obj
 0001:00047d9c       _Cnd_init                  0000000180048d9c f   libcpmt:cond.obj
 0001:00047de0       _Cnd_init_in_situ          0000000180048de0 f   libcpmt:cond.obj
 0001:00047de8       _Cnd_signal                0000000180048de8 f   libcpmt:cond.obj
 0001:00047e18       _Cnd_wait                  0000000180048e18 f   libcpmt:cond.obj
 0001:00047e20       _Thrd_current              0000000180048e20 f   libcpmt:cthread.obj
 0001:00047ea0       _Thrd_detach               0000000180048ea0 f   libcpmt:cthread.obj
 0001:00047ebc       _Thrd_equal                0000000180048ebc f   libcpmt:cthread.obj
 0001:00047ec8       _Thrd_hardware_concurrency 0000000180048ec8 f   libcpmt:cthread.obj
 0001:00047ee0       _Thrd_join                 0000000180048ee0 f   libcpmt:cthread.obj
 0001:00047f48       _Thrd_sleep                0000000180048f48 f   libcpmt:cthread.obj
 0001:00047fbc       _Thrd_start                0000000180048fbc f   libcpmt:cthread.obj
 0001:00047ff8       _Query_perf_counter        0000000180048ff8 f   libcpmt:xtime.obj
 0001:00048014       _Query_perf_frequency      0000000180049014 f   libcpmt:xtime.obj
 0001:00048030       _Xtime_diff_to_millis2     0000000180049030 f   libcpmt:xtime.obj
 0001:000480fc       _Xtime_get_ticks           00000001800490fc f   libcpmt:xtime.obj
 0001:0004812c       xtime_get                  000000018004912c f   libcpmt:xtime.obj
 0001:00048184       ??0_System_error@std@@QEAA@AEBV01@@Z 0000000180049184 f i libcpmt:thread0.obj
 0001:000481d8       ??0exception@std@@QEAA@AEBV01@@Z 00000001800491d8 f i libcpmt:thread0.obj
 0001:00048210       ??0runtime_error@std@@QEAA@AEBV01@@Z 0000000180049210 f i libcpmt:thread0.obj
 0001:00048250       ??0system_error@std@@QEAA@AEBV01@@Z 0000000180049250 f i libcpmt:thread0.obj
 0001:000482ac       ??0system_error@std@@QEAA@HAEBVerror_category@1@PEBD@Z 00000001800492ac f i libcpmt:thread0.obj
 0001:00048378       ?_Throw_C_error@std@@YAXH@Z 0000000180049378 f   libcpmt:thread0.obj
 0001:000483b4       ?_Throw_Cpp_error@std@@YAXH@Z 00000001800493b4 f   libcpmt:thread0.obj
 0001:000483fc       ?what@exception@std@@UEBAPEBDXZ 00000001800493fc f i libcpmt:thread0.obj
 0001:00048410       ??0bad_alloc@std@@QEAA@AEBV01@@Z 0000000180049410 f i libcpmt:xthrow.obj
 0001:00048450       ??0bad_alloc@std@@QEAA@XZ  0000000180049450 f i libcpmt:xthrow.obj
 0001:00048470       ??0bad_function_call@std@@QEAA@AEBV01@@Z 0000000180049470 f i libcpmt:xthrow.obj
 0001:000484b0       ??0bad_function_call@std@@QEAA@XZ 00000001800494b0 f i libcpmt:xthrow.obj
 0001:000484c8       ??0invalid_argument@std@@QEAA@AEBV01@@Z 00000001800494c8 f i libcpmt:xthrow.obj
 0001:00048508       ??0invalid_argument@std@@QEAA@PEBD@Z 0000000180049508 f i libcpmt:xthrow.obj
 0001:00048554       ??0length_error@std@@QEAA@AEBV01@@Z 0000000180049554 f i libcpmt:xthrow.obj
 0001:00048594       ??0length_error@std@@QEAA@PEBD@Z 0000000180049594 f i libcpmt:xthrow.obj
 0001:000485e0       ??0out_of_range@std@@QEAA@AEBV01@@Z 00000001800495e0 f i libcpmt:xthrow.obj
 0001:00048620       ??0out_of_range@std@@QEAA@PEBD@Z 0000000180049620 f i libcpmt:xthrow.obj
 0001:0004866c       ??_Gbad_exception@std@@UEAAPEAXI@Z 000000018004966c f i libvcruntime:frame.obj
 0001:0004866c       ??_Eimproper_scheduler_attach@Concurrency@@UEAAPEAXI@Z 000000018004966c f i libconcrt:SchedulerBase.obj
 0001:0004866c       ??_Einvalid_scheduler_policy_thread_specification@Concurrency@@UEAAPEAXI@Z 000000018004966c f i libconcrt:Exceptions.obj
 0001:0004866c       ??_E_Interruption_exception@details@Concurrency@@UEAAPEAXI@Z 000000018004966c f i libconcrt:TaskCollection.obj
 0001:0004866c       ??_Ginvalid_scheduler_policy_key@Concurrency@@UEAAPEAXI@Z 000000018004966c f i libconcrt:Exceptions.obj
 0001:0004866c       ??_G__non_rtti_object@std@@UEAAPEAXI@Z 000000018004966c f i libvcruntime:rtti.obj
 0001:0004866c       ??_Gmissing_wait@Concurrency@@UEAAPEAXI@Z 000000018004966c f i libconcrt:Exceptions.obj
 0001:0004866c       ??_Ginvalid_scheduler_policy_value@Concurrency@@UEAAPEAXI@Z 000000018004966c f i libconcrt:Exceptions.obj
 0001:0004866c       ??_Einvalid_oversubscribe_operation@Concurrency@@UEAAPEAXI@Z 000000018004966c f i libconcrt:Exceptions.obj
 0001:0004866c       ??_E__non_rtti_object@std@@UEAAPEAXI@Z 000000018004966c f i libvcruntime:rtti.obj
 0001:0004866c       ??_Ebad_alloc@std@@UEAAPEAXI@Z 000000018004966c f i libcpmt:xthrow.obj
 0001:0004866c       ??_Ginvalid_oversubscribe_operation@Concurrency@@UEAAPEAXI@Z 000000018004966c f i libconcrt:Exceptions.obj
 0001:0004866c       ??_Emissing_wait@Concurrency@@UEAAPEAXI@Z 000000018004966c f i libconcrt:Exceptions.obj
 0001:0004866c       ??_G_Interruption_exception@details@Concurrency@@UEAAPEAXI@Z 000000018004966c f i libconcrt:TaskCollection.obj
 0001:0004866c       ??_Eimproper_lock@Concurrency@@UEAAPEAXI@Z 000000018004966c f i libconcrt:rtlocks.obj
 0001:0004866c       ??_Einvalid_scheduler_policy_value@Concurrency@@UEAAPEAXI@Z 000000018004966c f i libconcrt:Exceptions.obj
 0001:0004866c       ??_Gcontext_self_unblock@Concurrency@@UEAAPEAXI@Z 000000018004966c f i libconcrt:Exceptions.obj
 0001:0004866c       ??_Econtext_unblock_unbalanced@Concurrency@@UEAAPEAXI@Z 000000018004966c f i libconcrt:Exceptions.obj
 0001:0004866c       ??_Einvalid_argument@std@@UEAAPEAXI@Z 000000018004966c f i libcpmt:xthrow.obj
 0001:0004866c       ??_Ginvalid_operation@Concurrency@@UEAAPEAXI@Z 000000018004966c f i libconcrt:ResourceManager.obj
 0001:0004866c       ??_Ebad_exception@std@@UEAAPEAXI@Z 000000018004966c f i libvcruntime:frame.obj
 0001:0004866c       ??_Gbad_function_call@std@@UEAAPEAXI@Z 000000018004966c f i libcpmt:xthrow.obj
 0001:0004866c       ??_Gout_of_range@std@@UEAAPEAXI@Z 000000018004966c f i libcpmt:xthrow.obj
 0001:0004866c       ??_Econtext_self_unblock@Concurrency@@UEAAPEAXI@Z 000000018004966c f i libconcrt:Exceptions.obj
 0001:0004866c       ??_Gbad_array_new_length@std@@UEAAPEAXI@Z 000000018004966c f i LIBCMT:throw_bad_alloc.obj
 0001:0004866c       ??_Eunsupported_os@Concurrency@@UEAAPEAXI@Z 000000018004966c f i libconcrt:ResourceManager.obj
 0001:0004866c       ??_Gimproper_scheduler_attach@Concurrency@@UEAAPEAXI@Z 000000018004966c f i libconcrt:SchedulerBase.obj
 0001:0004866c       ??_Einvalid_operation@Concurrency@@UEAAPEAXI@Z 000000018004966c f i libconcrt:ResourceManager.obj
 0001:0004866c       ??_Ebad_function_call@std@@UEAAPEAXI@Z 000000018004966c f i libcpmt:xthrow.obj
 0001:0004866c       ??_Gunsupported_os@Concurrency@@UEAAPEAXI@Z 000000018004966c f i libconcrt:ResourceManager.obj
 0001:0004866c       ??_Ebad_typeid@std@@UEAAPEAXI@Z 000000018004966c f i libvcruntime:rtti.obj
 0001:0004866c       ??_Gbad_cast@std@@UEAAPEAXI@Z 000000018004966c f i libcpmt:locale.obj
 0001:0004866c       ??_Glength_error@std@@UEAAPEAXI@Z 000000018004966c f i libcpmt:xthrow.obj
 0001:0004866c       ??_Ginvalid_scheduler_policy_thread_specification@Concurrency@@UEAAPEAXI@Z 000000018004966c f i libconcrt:Exceptions.obj
 0001:0004866c       ??_Ginvalid_argument@std@@UEAAPEAXI@Z 000000018004966c f i libcpmt:xthrow.obj
 0001:0004866c       ??_Ebad_cast@std@@UEAAPEAXI@Z 000000018004966c f i libcpmt:locale.obj
 0001:0004866c       ??_Gnested_scheduler_missing_detach@Concurrency@@UEAAPEAXI@Z 000000018004966c f i libconcrt:Exceptions.obj
 0001:0004866c       ??_Eout_of_range@std@@UEAAPEAXI@Z 000000018004966c f i libcpmt:xthrow.obj
 0001:0004866c       ??_Gcontext_unblock_unbalanced@Concurrency@@UEAAPEAXI@Z 000000018004966c f i libconcrt:Exceptions.obj
 0001:0004866c       ??_Gbad_alloc@std@@UEAAPEAXI@Z 000000018004966c f i libcpmt:xthrow.obj
 0001:0004866c       ??_Gexception@std@@UEAAPEAXI@Z 000000018004966c f i libcpmt:thread0.obj
 0001:0004866c       ??_Enested_scheduler_missing_detach@Concurrency@@UEAAPEAXI@Z 000000018004966c f i libconcrt:Exceptions.obj
 0001:0004866c       ??_Elength_error@std@@UEAAPEAXI@Z 000000018004966c f i libcpmt:xthrow.obj
 0001:0004866c       ??_Gbad_typeid@std@@UEAAPEAXI@Z 000000018004966c f i libvcruntime:rtti.obj
 0001:0004866c       ??_Einvalid_scheduler_policy_key@Concurrency@@UEAAPEAXI@Z 000000018004966c f i libconcrt:Exceptions.obj
 0001:0004866c       ??_Gimproper_scheduler_reference@Concurrency@@UEAAPEAXI@Z 000000018004966c f i libconcrt:SchedulerBase.obj
 0001:0004866c       ??_Gimproper_lock@Concurrency@@UEAAPEAXI@Z 000000018004966c f i libconcrt:rtlocks.obj
 0001:0004866c       ??_Eimproper_scheduler_reference@Concurrency@@UEAAPEAXI@Z 000000018004966c f i libconcrt:SchedulerBase.obj
 0001:0004866c       ??_Eexception@std@@UEAAPEAXI@Z 000000018004966c f i libcpmt:thread0.obj
 0001:0004866c       ??_Ebad_array_new_length@std@@UEAAPEAXI@Z 000000018004966c f i LIBCMT:throw_bad_alloc.obj
 0001:000486b0       ?_Xbad_function_call@std@@YAXXZ 00000001800496b0 f   libcpmt:xthrow.obj
 0001:000486d0       ?_Xlength_error@std@@YAXPEBD@Z 00000001800496d0 f   libcpmt:xthrow.obj
 0001:000486f4       ?_Xout_of_range@std@@YAXPEBD@Z 00000001800496f4 f   libcpmt:xthrow.obj
 0001:00048718       ?what@bad_function_call@std@@UEBAPEBDXZ 0000000180049718 f i libcpmt:xthrow.obj
 0001:00048720       ?_Syserror_map@std@@YAPEBDH@Z 0000000180049720 f   libcpmt:syserror.obj
 0001:00048748       ?create_stl_critical_section@details@Concurrency@@YAXPEAVstl_critical_section_interface@12@@Z 0000000180049748 f i libcpmt:mutex.obj
 0001:000487f0       ?destroy@stl_critical_section_concrt@details@Concurrency@@UEAAXXZ 00000001800497f0 f i libcpmt:mutex.obj
 0001:000487fc       ?destroy@stl_critical_section_vista@details@Concurrency@@UEAAXXZ 00000001800497fc f i libcpmt:mutex.obj
 0001:00048808       ?lock@stl_critical_section_concrt@details@Concurrency@@UEAAXXZ 0000000180049808 f i libcpmt:mutex.obj
 0001:00048814       ?lock@stl_critical_section_vista@details@Concurrency@@UEAAXXZ 0000000180049814 f i libcpmt:mutex.obj
 0001:00048820       ?lock@stl_critical_section_win7@details@Concurrency@@UEAAXXZ 0000000180049820 f i libcpmt:mutex.obj
 0001:000489c0       ?try_lock@stl_critical_section_concrt@details@Concurrency@@UEAA_NXZ 00000001800499c0 f i libcpmt:mutex.obj
 0001:000489cc       ?try_lock_for@stl_critical_section_concrt@details@Concurrency@@UEAA_NI@Z 00000001800499cc f i libcpmt:mutex.obj
 0001:000489d8       ?try_lock_for@stl_critical_section_vista@details@Concurrency@@UEAA_NI@Z 00000001800499d8 f i libcpmt:mutex.obj
 0001:000489d8       ?try_lock@stl_critical_section_vista@details@Concurrency@@UEAA_NXZ 00000001800499d8 f i libcpmt:mutex.obj
 0001:000489f0       ?try_lock@stl_critical_section_win7@details@Concurrency@@UEAA_NXZ 00000001800499f0 f i libcpmt:mutex.obj
 0001:000489f0       ?try_lock_for@stl_critical_section_win7@details@Concurrency@@UEAA_NI@Z 00000001800499f0 f i libcpmt:mutex.obj
 0001:00048a08       ?unlock@stl_critical_section_concrt@details@Concurrency@@UEAAXXZ 0000000180049a08 f i libcpmt:mutex.obj
 0001:00048a14       ?unlock@stl_critical_section_vista@details@Concurrency@@UEAAXXZ 0000000180049a14 f i libcpmt:mutex.obj
 0001:00048a20       ?unlock@stl_critical_section_win7@details@Concurrency@@UEAAXXZ 0000000180049a20 f i libcpmt:mutex.obj
 0001:00048a2c       _Mtx_clear_owner           0000000180049a2c f   libcpmt:mutex.obj
 0001:00048a34       _Mtx_destroy               0000000180049a34 f   libcpmt:mutex.obj
 0001:00048a54       _Mtx_destroy_in_situ       0000000180049a54 f   libcpmt:mutex.obj
 0001:00048a84       _Mtx_init                  0000000180049a84 f   libcpmt:mutex.obj
 0001:00048ad8       _Mtx_init_in_situ          0000000180049ad8 f   libcpmt:mutex.obj
 0001:00048b08       _Mtx_lock                  0000000180049b08 f   libcpmt:mutex.obj
 0001:00048b10       _Mtx_reset_owner           0000000180049b10 f   libcpmt:mutex.obj
 0001:00048b2c       _Mtx_unlock                0000000180049b2c f   libcpmt:mutex.obj
 0001:00048b68       _Cnd_do_broadcast_at_thread_exit 0000000180049b68 f   libcpmt:xnotify.obj
 0001:00048c38       _Lock_shared_ptr_spin_lock 0000000180049c38 f   libcpmt:atomic.obj
 0001:00048c48       _Unlock_shared_ptr_spin_lock 0000000180049c48 f   libcpmt:atomic.obj
 0001:00048c54       ??0_Init_locks@std@@QEAA@XZ 0000000180049c54 f   libcpmt:xlock.obj
 0001:00048ca0       ??0_Lockit@std@@QEAA@H@Z   0000000180049ca0 f   libcpmt:xlock.obj
 0001:00048cdc       ??1_Init_locks@std@@QEAA@XZ 0000000180049cdc f   libcpmt:xlock.obj
 0001:00048d20       ??1_Lockit@std@@QEAA@XZ    0000000180049d20 f   libcpmt:xlock.obj
 0001:00048d54       _Lock_at_thread_exit_mutex 0000000180049d54 f   libcpmt:xlock.obj
 0001:00048d60       _Unlock_at_thread_exit_mutex 0000000180049d60 f   libcpmt:xlock.obj
 0001:00048d6c       ??4?$_Yarn@D@std@@QEAAAEAV01@PEBD@Z 0000000180049d6c f i libcpmt:locale0.obj
 0001:00048de4       ??_G_Fac_node@std@@QEAAPEAXI@Z 0000000180049de4 f i libcpmt:locale0.obj
 0001:00048e70       ??_E_Locimp@locale@std@@MEAAPEAXI@Z 0000000180049e70 f i libcpmt:locale0.obj
 0001:00048e70       ??_G_Locimp@locale@std@@MEAAPEAXI@Z 0000000180049e70 f i libcpmt:locale0.obj
 0001:00048edc       ?_Facet_Register@std@@YAXPEAV_Facet_base@1@@Z 0000000180049edc f   libcpmt:locale0.obj
 0001:00048f14       ?_Getgloballocale@locale@std@@CAPEAV_Locimp@12@XZ 0000000180049f14 f   libcpmt:locale0.obj
 0001:00048f1c       ?_Init@locale@std@@CAPEAV_Locimp@12@_N@Z 0000000180049f1c f   libcpmt:locale0.obj
 0001:00048fd8       ?_Locimp_dtor@_Locimp@locale@std@@CAXPEAV123@@Z 0000000180049fd8 f   libcpmt:locale0.obj
 0001:00049080       ?_Locinfo_ctor@_Locinfo@std@@SAXPEAV12@PEBD@Z 000000018004a080 f   libcpmt:locale0.obj
 0001:000490ec       ?_Locinfo_dtor@_Locinfo@std@@SAXPEAV12@@Z 000000018004a0ec f   libcpmt:locale0.obj
 0001:00049110       ?_New_Locimp@_Locimp@locale@std@@CAPEAV123@_N@Z 000000018004a110 f   libcpmt:locale0.obj
 0001:00049180       ?_Setgloballocale@locale@std@@CAXPEAX@Z 000000018004a180 f   libcpmt:locale0.obj
 0001:000491b4       _Deletegloballocale        000000018004a1b4 f   libcpmt:locale0.obj
 0001:0004923c       ?_Ios_base_dtor@ios_base@std@@CAXPEAV12@@Z 000000018004a23c f   libcpmt:ios.obj
 0001:00049280       ?_Tidy@ios_base@std@@AEAAXXZ 000000018004a280 f i libcpmt:ios.obj
 0001:00049310       _Getctype                  000000018004a310 f   libcpmt:_tolower.obj
 0001:000493d0       _Tolower                   000000018004a3d0 f   libcpmt:_tolower.obj
 0001:000494f8       _Getcvt                    000000018004a4f8 f   libcpmt:xwctomb.obj
 0001:00049588       _Toupper                   000000018004a588 f   libcpmt:_toupper.obj
 0001:00049b90       __crtAcquireSRWLockExclusive 000000018004ab90 f   libcpmt:winapisupp.obj
 0001:00049bc8       __crtCloseThreadpoolTimer  000000018004abc8 f   libcpmt:winapisupp.obj
 0001:00049c00       __crtCloseThreadpoolWait   000000018004ac00 f   libcpmt:winapisupp.obj
 0001:00049c38       __crtCreateEventExW        000000018004ac38 f   libcpmt:winapisupp.obj
 0001:00049cb4       __crtCreateSemaphoreExW    000000018004acb4 f   libcpmt:winapisupp.obj
 0001:00049d54       __crtCreateThreadpoolTimer 000000018004ad54 f   libcpmt:winapisupp.obj
 0001:00049db0       __crtCreateThreadpoolWait  000000018004adb0 f   libcpmt:winapisupp.obj
 0001:00049e0c       __crtFlushProcessWriteBuffers 000000018004ae0c f   libcpmt:winapisupp.obj
 0001:00049e34       __crtFreeLibraryWhenCallbackReturns 000000018004ae34 f   libcpmt:winapisupp.obj
 0001:00049e7c       __crtGetCurrentProcessorNumber 000000018004ae7c f   libcpmt:winapisupp.obj
 0001:00049eb0       __crtGetSystemTimePreciseAsFileTime 000000018004aeb0 f   libcpmt:winapisupp.obj
 0001:00049ef0       __crtGetTickCount64        000000018004aef0 f   libcpmt:winapisupp.obj
 0001:00049f28       __crtInitializeConditionVariable 000000018004af28 f   libcpmt:winapisupp.obj
 0001:00049f60       __crtInitializeCriticalSectionEx 000000018004af60 f   libcpmt:winapisupp.obj
 0001:00049fc0       __crtInitializeSRWLock     000000018004afc0 f   libcpmt:winapisupp.obj
 0001:00049ff8       __crtReleaseSRWLockExclusive 000000018004aff8 f   libcpmt:winapisupp.obj
 0001:0004a030       __crtSetThreadpoolTimer    000000018004b030 f   libcpmt:winapisupp.obj
 0001:0004a098       __crtSetThreadpoolWait     000000018004b098 f   libcpmt:winapisupp.obj
 0001:0004a0f0       __crtSleepConditionVariableCS 000000018004b0f0 f   libcpmt:winapisupp.obj
 0001:0004a148       __crtSleepConditionVariableSRW 000000018004b148 f   libcpmt:winapisupp.obj
 0001:0004a1b0       __crtTryAcquireSRWLockExclusive 000000018004b1b0 f   libcpmt:winapisupp.obj
 0001:0004a1e8       __crtWaitForThreadpoolTimerCallbacks 000000018004b1e8 f   libcpmt:winapisupp.obj
 0001:0004a22c       __crtWakeAllConditionVariable 000000018004b22c f   libcpmt:winapisupp.obj
 0001:0004a264       __crtWakeConditionVariable 000000018004b264 f   libcpmt:winapisupp.obj
 0001:0004a29c       ??1_ReentrantBlockingLock@details@Concurrency@@QEAA@XZ 000000018004b29c f   libconcrt:rtlocks.obj
 0001:0004a29c       _Mtxdst                    000000018004b29c f   libcpmt:xmtx.obj
 0001:0004a29c       ??1_NonReentrantBlockingLock@details@Concurrency@@QEAA@XZ 000000018004b29c f   libconcrt:rtlocks.obj
 0001:0004a2a4       _Mtxinit                   000000018004b2a4 f   libcpmt:xmtx.obj
 0001:0004a2b4       _Mtxunlock                 000000018004b2b4 f   libcpmt:xmtx.obj
 0001:0004a2b4       ?_Release@_NonReentrantBlockingLock@details@Concurrency@@QEAAXXZ 000000018004b2b4 f   libconcrt:rtlocks.obj
 0001:0004a2b4       ?_Release@_ReentrantBlockingLock@details@Concurrency@@QEAAXXZ 000000018004b2b4 f   libconcrt:rtlocks.obj
 0001:0004a2bc       ?_Atexit@@YAXP6AXXZ@Z      000000018004b2bc f   libcpmt:iosptrs.obj
 0001:0004a2fc       ??0bad_cast@std@@QEAA@AEBV01@@Z 000000018004b2fc f i libcpmt:locale.obj
 0001:0004a33c       __crtLCMapStringA          000000018004b33c f   libcpmt:StlLCMapStringA.obj
 0001:0004a628       GetTableIndexFromLocaleName 000000018004b628 f   libcpmt:winapinls.obj
 0001:0004a6b4       __crtDownlevelLocaleNameToLCID 000000018004b6b4 f   libcpmt:winapinls.obj
 0001:0004a6e8       __crtLCMapStringEx         000000018004b6e8 f   libcpmt:winapinls.obj
 0001:0004a7a4       __wcsnicmp_ascii           000000018004b7a4 f   libcpmt:winapinls.obj
 0001:0004a810       __security_check_cookie    000000018004b810 f   LIBCMT:_amdsecgs_.obj
 0001:0004a834       ??3@YAXPEAX_K@Z            000000018004b834 f   LIBCMT:delete_scalar_size.obj
 0001:0004a834       ??_V@YAXPEAX@Z             000000018004b834 f   LIBCMT:delete_array.obj
 0001:0004a83c       ??_Gtype_info@@UEAAPEAXI@Z 000000018004b83c f i LIBCMT:std_type_info_static.obj
 0001:0004a83c       ??_Etype_info@@UEAAPEAXI@Z 000000018004b83c f i LIBCMT:std_type_info_static.obj
 0001:0004a9b0       _Init_thread_abort         000000018004b9b0 f   LIBCMT:thread_safe_statics.obj
 0001:0004a9e0       _Init_thread_footer        000000018004b9e0 f   LIBCMT:thread_safe_statics.obj
 0001:0004aa40       _Init_thread_header        000000018004ba40 f   LIBCMT:thread_safe_statics.obj
 0001:0004aaa8       _Init_thread_notify        000000018004baa8 f   LIBCMT:thread_safe_statics.obj
 0001:0004ab04       _Init_thread_wait          000000018004bb04 f   LIBCMT:thread_safe_statics.obj
 0001:0004ab9c       ??2@YAPEAX_K@Z             000000018004bb9c f   LIBCMT:new_scalar.obj
 0001:0004abd8       __scrt_acquire_startup_lock 000000018004bbd8 f   LIBCMT:utility.obj
 0001:0004ac14       __scrt_dllmain_after_initialize_c 000000018004bc14 f   LIBCMT:utility.obj
 0001:0004ac48       __scrt_dllmain_before_initialize_c 000000018004bc48 f   LIBCMT:utility.obj
 0001:0004ac60       __scrt_dllmain_crt_thread_attach 000000018004bc60 f   LIBCMT:utility.obj
 0001:0004ac88       __scrt_dllmain_crt_thread_detach 000000018004bc88 f   LIBCMT:utility.obj
 0001:0004aca0       __scrt_dllmain_exception_filter 000000018004bca0 f   LIBCMT:utility.obj
 0001:0004ad04       __scrt_dllmain_uninitialize_c 000000018004bd04 f   LIBCMT:utility.obj
 0001:0004ad34       __scrt_dllmain_uninitialize_critical 000000018004bd34 f   LIBCMT:utility.obj
 0001:0004ad48       __scrt_initialize_crt      000000018004bd48 f   LIBCMT:utility.obj
 0001:0004ad94       __scrt_initialize_onexit_tables 000000018004bd94 f   LIBCMT:utility.obj
 0001:0004ae60       __scrt_is_nonwritable_in_current_image 000000018004be60 f   LIBCMT:utility.obj
 0001:0004aefc       __scrt_release_startup_lock 000000018004befc f   LIBCMT:utility.obj
 0001:0004af20       __scrt_uninitialize_crt    000000018004bf20 f   LIBCMT:utility.obj
 0001:0004af4c       _onexit                    000000018004bf4c f   LIBCMT:utility.obj
 0001:0004af9c       atexit                     000000018004bf9c f   LIBCMT:utility.obj
 0001:0004afb4       ??3@YAXPEAX@Z              000000018004bfb4 f   LIBCMT:delete_scalar.obj
 0001:0004b308       _DllMainCRTStartup         000000018004c308 f   LIBCMT:dll_dllmain.obj
 0001:0004b348       ??_M@YAXPEAX_K1P6AX0@Z@Z   000000018004c348 f   LIBCMT:ehvecdtr.obj
 0001:0004b3b4       ?__ArrayUnwind@@YAXPEAX_K1P6AX0@Z@Z 000000018004c3b4 f   LIBCMT:ehvecdtr.obj
 0001:0004b418       ??_V@YAXPEAX_K@Z           000000018004c418 f   LIBCMT:delete_array_size.obj
 0001:0004b420       __GSHandlerCheck           000000018004c420 f   LIBCMT:_gshandler_.obj
 0001:0004b440       __GSHandlerCheckCommon     000000018004c440 f   LIBCMT:_gshandler_.obj
 0001:0004b49c       _guard_check_icall         000000018004c49c f i LIBCMT:checkcfg.obj
 0001:0004b4a4       __GSHandlerCheck_EH        000000018004c4a4 f   LIBCMT:gshandlereh.obj
 0001:0004b540       _alloca_probe              000000018004c540 f   LIBCMT:_chkstk_.obj
 0001:0004b540       __chkstk                   000000018004c540 f   LIBCMT:_chkstk_.obj
 0001:0004b594       __raise_securityfailure    000000018004c594 f   LIBCMT:gs_report.obj
 0001:0004b5c8       __report_gsfailure         000000018004c5c8 f   LIBCMT:gs_report.obj
 0001:0004b69c       __report_rangecheckfailure 000000018004c69c f   LIBCMT:gs_report.obj
 0001:0004b6b0       __report_securityfailure   000000018004c6b0 f   LIBCMT:gs_report.obj
 0001:0004b830       __crt_debugger_hook        000000018004c830 f   LIBCMT:utility_desktop.obj
 0001:0004b838       __scrt_fastfail            000000018004c838 f   LIBCMT:utility_desktop.obj
 0001:0004b980       ??0bad_array_new_length@std@@QEAA@AEBV01@@Z 000000018004c980 f i LIBCMT:throw_bad_alloc.obj
 0001:0004b9c0       ??0bad_array_new_length@std@@QEAA@XZ 000000018004c9c0 f i LIBCMT:throw_bad_alloc.obj
 0001:0004b9e0       ??1nested_scheduler_missing_detach@Concurrency@@UEAA@XZ 000000018004c9e0 f i libconcrt:Exceptions.obj
 0001:0004b9e0       ??1length_error@std@@UEAA@XZ 000000018004c9e0 f i libcpmt:xthrow.obj
 0001:0004b9e0       ??1context_self_unblock@Concurrency@@UEAA@XZ 000000018004c9e0 f i libconcrt:Exceptions.obj
 0001:0004b9e0       ??1bad_alloc@std@@UEAA@XZ  000000018004c9e0 f i libcpmt:xthrow.obj
 0001:0004b9e0       ??1invalid_oversubscribe_operation@Concurrency@@UEAA@XZ 000000018004c9e0 f i libconcrt:Exceptions.obj
 0001:0004b9e0       ??1unsupported_os@Concurrency@@UEAA@XZ 000000018004c9e0 f i libconcrt:ResourceManager.obj
 0001:0004b9e0       ??1context_unblock_unbalanced@Concurrency@@UEAA@XZ 000000018004c9e0 f i libconcrt:Exceptions.obj
 0001:0004b9e0       ??1bad_exception@std@@UEAA@XZ 000000018004c9e0 f i libvcruntime:frame.obj
 0001:0004b9e0       ??1missing_wait@Concurrency@@UEAA@XZ 000000018004c9e0 f i libconcrt:Exceptions.obj
 0001:0004b9e0       ??1invalid_scheduler_policy_value@Concurrency@@UEAA@XZ 000000018004c9e0 f i libconcrt:Exceptions.obj
 0001:0004b9e0       ??1invalid_scheduler_policy_thread_specification@Concurrency@@UEAA@XZ 000000018004c9e0 f i libconcrt:Exceptions.obj
 0001:0004b9e0       ??1_Interruption_exception@details@Concurrency@@UEAA@XZ 000000018004c9e0 f i libconcrt:TaskCollection.obj
 0001:0004b9e0       ??1scheduler_resource_allocation_error@Concurrency@@UEAA@XZ 000000018004c9e0 f i libconcrt:Platform.obj
 0001:0004b9e0       ??1invalid_operation@Concurrency@@UEAA@XZ 000000018004c9e0 f i libconcrt:ResourceManager.obj
 0001:0004b9e0       ??1invalid_scheduler_policy_key@Concurrency@@UEAA@XZ 000000018004c9e0 f i libconcrt:Exceptions.obj
 0001:0004b9e0       ??1improper_scheduler_attach@Concurrency@@UEAA@XZ 000000018004c9e0 f i libconcrt:SchedulerBase.obj
 0001:0004b9e0       ??1__non_rtti_object@std@@UEAA@XZ 000000018004c9e0 f i libvcruntime:rtti.obj
 0001:0004b9e0       ??1out_of_range@std@@UEAA@XZ 000000018004c9e0 f i libcpmt:xthrow.obj
 0001:0004b9e0       ??1bad_function_call@std@@UEAA@XZ 000000018004c9e0 f i libcpmt:xthrow.obj
 0001:0004b9e0       ??1invalid_argument@std@@UEAA@XZ 000000018004c9e0 f i libcpmt:xthrow.obj
